; Listing generated by Microsoft (R) Optimizing Compiler Version 17.00.50727.1 

	TITLE	C:\Users\TomKein\Documents\visual studio 2012\Projects\fxconf3\Test\stdafx.cpp
	.686P
	.XMM
	include listing.inc
	.model	flat

INCLUDELIB OLDNAMES

PUBLIC	___@@_PchSym_@00@UfhvihUglnpvrmUwlxfnvmghUerhfzoLhgfwrlLCABCUkilqvxghUucxlmuDUgvhgUivovzhvUhgwzucOlyq@D355AA21A61937B1
;	COMDAT ___@@_PchSym_@00@UfhvihUglnpvrmUwlxfnvmghUerhfzoLhgfwrlLCABCUkilqvxghUucxlmuDUgvhgUivovzhvUhgwzucOlyq@D355AA21A61937B1
_BSS	SEGMENT
___@@_PchSym_@00@UfhvihUglnpvrmUwlxfnvmghUerhfzoLhgfwrlLCABCUkilqvxghUucxlmuDUgvhgUivovzhvUhgwzucOlyq@D355AA21A61937B1 DD 01H DUP (?)
_BSS	ENDS
PUBLIC	__real@3ff3be76c8b43958
PUBLIC	__real@3ff5851eb851eb85
EXTRN	__CxxThrowException@8:PROC
EXTRN	___CxxFrameHandler3:PROC
EXTRN	_memcpy:PROC
EXTRN	___security_cookie:DWORD
EXTRN	__fltused:DWORD
;	COMDAT __real@3ff5851eb851eb85
CONST	SEGMENT
__real@3ff5851eb851eb85 DQ 03ff5851eb851eb85r	; 1.345
CONST	ENDS
;	COMDAT __real@3ff3be76c8b43958
CONST	SEGMENT
__real@3ff3be76c8b43958 DQ 03ff3be76c8b43958r	; 1.234
CONST	ENDS
END
