; Listing generated by Microsoft (R) Optimizing Compiler Version 17.00.50727.1 

	TITLE	C:\Users\TomKein\Documents\visual studio 2012\Projects\fxconf3\Test\Test.cpp
	.686P
	.XMM
	include listing.inc
	.model	flat

INCLUDELIB OLDNAMES

PUBLIC	??_C@_07DCLBNMLN@generic?$AA@			; `string'
PUBLIC	??_C@_0O@BFJCFAAK@unknown?5error?$AA@		; `string'
PUBLIC	??_C@_08LLGCOLLL@iostream?$AA@			; `string'
PUBLIC	??_C@_0BG@PADBLCHM@iostream?5stream?5error?$AA@	; `string'
PUBLIC	??_C@_06FHFOAHML@system?$AA@			; `string'
PUBLIC	??_C@_0M@LACCCNMM@hello?5world?$AA@		; `string'
PUBLIC	??_C@_06IEGNHKAC@time?3?5?$AA@			; `string'
PUBLIC	??_C@_05JMPHEBDN@res?3?5?$AA@			; `string'
PUBLIC	??_C@_05DEADDJGB@ptr?3?5?$AA@			; `string'
PUBLIC	??_C@_0BI@CFPLBAOH@invalid?5string?5position?$AA@ ; `string'
PUBLIC	??_C@_0BA@JFNIOLAK@string?5too?5long?$AA@	; `string'
PUBLIC	??_R2_System_error_category@std@@8		; std::_System_error_category::`RTTI Base Class Array'
PUBLIC	??_R2_Iostream_error_category@std@@8		; std::_Iostream_error_category::`RTTI Base Class Array'
PUBLIC	??_R2_Generic_error_category@std@@8		; std::_Generic_error_category::`RTTI Base Class Array'
PUBLIC	??_R2error_category@std@@8			; std::error_category::`RTTI Base Class Array'
PUBLIC	??_R1A@?0A@EA@_System_error_category@std@@8	; std::_System_error_category::`RTTI Base Class Descriptor at (0,-1,0,64)'
PUBLIC	??_R1A@?0A@EA@_Iostream_error_category@std@@8	; std::_Iostream_error_category::`RTTI Base Class Descriptor at (0,-1,0,64)'
PUBLIC	??_R1A@?0A@EA@_Generic_error_category@std@@8	; std::_Generic_error_category::`RTTI Base Class Descriptor at (0,-1,0,64)'
PUBLIC	??_R1A@?0A@EA@error_category@std@@8		; std::error_category::`RTTI Base Class Descriptor at (0,-1,0,64)'
PUBLIC	??_R3_System_error_category@std@@8		; std::_System_error_category::`RTTI Class Hierarchy Descriptor'
PUBLIC	??_R0?AV_System_error_category@std@@@8		; std::_System_error_category `RTTI Type Descriptor'
PUBLIC	??_R3_Iostream_error_category@std@@8		; std::_Iostream_error_category::`RTTI Class Hierarchy Descriptor'
PUBLIC	??_R0?AV_Iostream_error_category@std@@@8	; std::_Iostream_error_category `RTTI Type Descriptor'
PUBLIC	??_R3_Generic_error_category@std@@8		; std::_Generic_error_category::`RTTI Class Hierarchy Descriptor'
PUBLIC	??_R0?AV_Generic_error_category@std@@@8		; std::_Generic_error_category `RTTI Type Descriptor'
PUBLIC	??_R3error_category@std@@8			; std::error_category::`RTTI Class Hierarchy Descriptor'
PUBLIC	??_R0?AVerror_category@std@@@8			; std::error_category `RTTI Type Descriptor'
PUBLIC	??_R4_System_error_category@std@@6B@		; std::_System_error_category::`RTTI Complete Object Locator'
PUBLIC	??_R4_Iostream_error_category@std@@6B@		; std::_Iostream_error_category::`RTTI Complete Object Locator'
PUBLIC	??_R4_Generic_error_category@std@@6B@		; std::_Generic_error_category::`RTTI Complete Object Locator'
PUBLIC	??_R4error_category@std@@6B@			; std::error_category::`RTTI Complete Object Locator'
PUBLIC	?type@@3HA					; type
PUBLIC	?ss@@3PAHA					; ss
PUBLIC	??_7_System_error_category@std@@6B@		; std::_System_error_category::`vftable'
PUBLIC	??_7_Iostream_error_category@std@@6B@		; std::_Iostream_error_category::`vftable'
PUBLIC	??_7_Generic_error_category@std@@6B@		; std::_Generic_error_category::`vftable'
PUBLIC	??_7error_category@std@@6B@			; std::error_category::`vftable'
PUBLIC	?value@?$_Sizeof@U_Nil@std@@U12@U12@U12@U12@U12@U12@U12@@std@@2IB ; std::_Sizeof<std::_Nil,std::_Nil,std::_Nil,std::_Nil,std::_Nil,std::_Nil,std::_Nil,std::_Nil>::value
PUBLIC	?value@?$integral_constant@_N$00@std@@2_NB	; std::integral_constant<bool,1>::value
PUBLIC	?value@?$integral_constant@_N$0A@@std@@2_NB	; std::integral_constant<bool,0>::value
EXTRN	__imp_?rdstate@ios_base@std@@QBEHXZ:PROC
EXTRN	__imp_?good@ios_base@std@@QBE_NXZ:PROC
EXTRN	__imp_?flags@ios_base@std@@QBEHXZ:PROC
EXTRN	__imp_?width@ios_base@std@@QBE_JXZ:PROC
EXTRN	__imp_?width@ios_base@std@@QAE_J_J@Z:PROC
EXTRN	__imp_?endl@std@@YAAAV?$basic_ostream@DU?$char_traits@D@std@@@1@AAV21@@Z:PROC
EXTRN	__imp_?setstate@?$basic_ios@DU?$char_traits@D@std@@@std@@QAEXH_N@Z:PROC
EXTRN	__imp_?rdbuf@?$basic_ios@DU?$char_traits@D@std@@@std@@QBEPAV?$basic_streambuf@DU?$char_traits@D@std@@@2@XZ:PROC
EXTRN	__imp_??6?$basic_ostream@DU?$char_traits@D@std@@@std@@QAEAAV01@P6AAAV01@AAV01@@Z@Z:PROC
EXTRN	__imp_??6?$basic_ostream@DU?$char_traits@D@std@@@std@@QAEAAV01@J@Z:PROC
EXTRN	__imp_??6?$basic_ostream@DU?$char_traits@D@std@@@std@@QAEAAV01@N@Z:PROC
EXTRN	__imp_??6?$basic_ostream@DU?$char_traits@D@std@@@std@@QAEAAV01@PBX@Z:PROC
EXTRN	__imp_?flush@?$basic_ostream@DU?$char_traits@D@std@@@std@@QAEAAV12@XZ:PROC
EXTRN	__imp_??5?$basic_istream@DU?$char_traits@D@std@@@std@@QAEAAV01@AAH@Z:PROC
EXTRN	__imp_?sputc@?$basic_streambuf@DU?$char_traits@D@std@@@std@@QAEHD@Z:PROC
EXTRN	__imp_?fill@?$basic_ios@DU?$char_traits@D@std@@@std@@QBEDXZ:PROC
EXTRN	__imp_?tie@?$basic_ios@DU?$char_traits@D@std@@@std@@QBEPAV?$basic_ostream@DU?$char_traits@D@std@@@2@XZ:PROC
EXTRN	__imp_?_Osfx@?$basic_ostream@DU?$char_traits@D@std@@@std@@QAEXXZ:PROC
EXTRN	__imp_?sputn@?$basic_streambuf@DU?$char_traits@D@std@@@std@@QAE_JPBD_J@Z:PROC
EXTRN	__imp___purecall:PROC
EXTRN	__imp_?_Xbad_alloc@std@@YAXXZ:PROC
EXTRN	_atexit:PROC
EXTRN	__imp_?_Xlength_error@std@@YAXPBD@Z:PROC
EXTRN	__imp_?_Xout_of_range@std@@YAXPBD@Z:PROC
EXTRN	__imp_?uncaught_exception@std@@YA_NXZ:PROC
EXTRN	__imp_?cin@std@@3V?$basic_istream@DU?$char_traits@D@std@@@1@A:BYTE
EXTRN	__imp__clock:PROC
EXTRN	__imp_?cout@std@@3V?$basic_ostream@DU?$char_traits@D@std@@@1@A:BYTE
EXTRN	__imp_?_Winerror_map@std@@YAPBDH@Z:PROC
EXTRN	__imp_?_Syserror_map@std@@YAPBDH@Z:PROC
EXTRN	__imp_??2@YAPAXI@Z:PROC
EXTRN	??_7type_info@@6B@:QWORD			; type_info::`vftable'
EXTRN	__imp__memmove:PROC
EXTRN	__imp_??3@YAXPAX@Z:PROC
EXTRN	@__security_check_cookie@4:PROC
EXTRN	__purecall:PROC
?type@@3HA DD	01H DUP (?)				; type
_BSS	ENDS
;	COMDAT ?value@?$integral_constant@_N$0A@@std@@2_NB
CONST	SEGMENT
?value@?$integral_constant@_N$0A@@std@@2_NB DB 00H	; std::integral_constant<bool,0>::value
CONST	ENDS
;	COMDAT ?value@?$integral_constant@_N$00@std@@2_NB
CONST	SEGMENT
?value@?$integral_constant@_N$00@std@@2_NB DB 01H	; std::integral_constant<bool,1>::value
CONST	ENDS
;	COMDAT ?value@?$_Sizeof@U_Nil@std@@U12@U12@U12@U12@U12@U12@U12@@std@@2IB
CONST	SEGMENT
?value@?$_Sizeof@U_Nil@std@@U12@U12@U12@U12@U12@U12@U12@@std@@2IB DD 00H ; std::_Sizeof<std::_Nil,std::_Nil,std::_Nil,std::_Nil,std::_Nil,std::_Nil,std::_Nil,std::_Nil>::value
CONST	ENDS
;	COMDAT ??_7error_category@std@@6B@
CONST	SEGMENT
??_7error_category@std@@6B@ DD FLAT:??_R4error_category@std@@6B@ ; std::error_category::`vftable'
	DD	FLAT:??_Eerror_category@std@@UAEPAXI@Z
	DD	FLAT:__purecall
	DD	FLAT:__purecall
	DD	FLAT:?default_error_condition@error_category@std@@UBE?AVerror_condition@2@H@Z
	DD	FLAT:?equivalent@error_category@std@@UBE_NABVerror_code@2@H@Z
	DD	FLAT:?equivalent@error_category@std@@UBE_NHABVerror_condition@2@@Z
CONST	ENDS
;	COMDAT ??_7_Generic_error_category@std@@6B@
CONST	SEGMENT
??_7_Generic_error_category@std@@6B@ DD FLAT:??_R4_Generic_error_category@std@@6B@ ; std::_Generic_error_category::`vftable'
	DD	FLAT:??_E_Generic_error_category@std@@UAEPAXI@Z
	DD	FLAT:?name@_Generic_error_category@std@@UBEPBDXZ
	DD	FLAT:?message@_Generic_error_category@std@@UBE?AV?$basic_string@DU?$char_traits@D@std@@V?$allocator@D@2@@2@H@Z
	DD	FLAT:?default_error_condition@error_category@std@@UBE?AVerror_condition@2@H@Z
	DD	FLAT:?equivalent@error_category@std@@UBE_NABVerror_code@2@H@Z
	DD	FLAT:?equivalent@error_category@std@@UBE_NHABVerror_condition@2@@Z
CONST	ENDS
;	COMDAT ??_7_Iostream_error_category@std@@6B@
CONST	SEGMENT
??_7_Iostream_error_category@std@@6B@ DD FLAT:??_R4_Iostream_error_category@std@@6B@ ; std::_Iostream_error_category::`vftable'
	DD	FLAT:??_E_Iostream_error_category@std@@UAEPAXI@Z
	DD	FLAT:?name@_Iostream_error_category@std@@UBEPBDXZ
	DD	FLAT:?message@_Iostream_error_category@std@@UBE?AV?$basic_string@DU?$char_traits@D@std@@V?$allocator@D@2@@2@H@Z
	DD	FLAT:?default_error_condition@error_category@std@@UBE?AVerror_condition@2@H@Z
	DD	FLAT:?equivalent@error_category@std@@UBE_NABVerror_code@2@H@Z
	DD	FLAT:?equivalent@error_category@std@@UBE_NHABVerror_condition@2@@Z
CONST	ENDS
;	COMDAT ??_7_System_error_category@std@@6B@
CONST	SEGMENT
??_7_System_error_category@std@@6B@ DD FLAT:??_R4_System_error_category@std@@6B@ ; std::_System_error_category::`vftable'
	DD	FLAT:??_E_System_error_category@std@@UAEPAXI@Z
	DD	FLAT:?name@_System_error_category@std@@UBEPBDXZ
	DD	FLAT:?message@_System_error_category@std@@UBE?AV?$basic_string@DU?$char_traits@D@std@@V?$allocator@D@2@@2@H@Z
	DD	FLAT:?default_error_condition@_System_error_category@std@@UBE?AVerror_condition@2@H@Z
	DD	FLAT:?equivalent@error_category@std@@UBE_NABVerror_code@2@H@Z
	DD	FLAT:?equivalent@error_category@std@@UBE_NHABVerror_condition@2@@Z
?ss@@3PAHA DD	01H					; ss
	DD	0ffffffffH
_DATA	ENDS
;	COMDAT ??_R4error_category@std@@6B@
rdata$r	SEGMENT
??_R4error_category@std@@6B@ DD 00H			; std::error_category::`RTTI Complete Object Locator'
	DD	00H
	DD	00H
	DD	FLAT:??_R0?AVerror_category@std@@@8
	DD	FLAT:??_R3error_category@std@@8
rdata$r	ENDS
;	COMDAT ??_R4_Generic_error_category@std@@6B@
rdata$r	SEGMENT
??_R4_Generic_error_category@std@@6B@ DD 00H		; std::_Generic_error_category::`RTTI Complete Object Locator'
	DD	00H
	DD	00H
	DD	FLAT:??_R0?AV_Generic_error_category@std@@@8
	DD	FLAT:??_R3_Generic_error_category@std@@8
rdata$r	ENDS
;	COMDAT ??_R4_Iostream_error_category@std@@6B@
rdata$r	SEGMENT
??_R4_Iostream_error_category@std@@6B@ DD 00H		; std::_Iostream_error_category::`RTTI Complete Object Locator'
	DD	00H
	DD	00H
	DD	FLAT:??_R0?AV_Iostream_error_category@std@@@8
	DD	FLAT:??_R3_Iostream_error_category@std@@8
rdata$r	ENDS
;	COMDAT ??_R4_System_error_category@std@@6B@
rdata$r	SEGMENT
??_R4_System_error_category@std@@6B@ DD 00H		; std::_System_error_category::`RTTI Complete Object Locator'
	DD	00H
	DD	00H
	DD	FLAT:??_R0?AV_System_error_category@std@@@8
	DD	FLAT:??_R3_System_error_category@std@@8
rdata$r	ENDS
;	COMDAT ??_R0?AVerror_category@std@@@8
_DATA	SEGMENT
??_R0?AVerror_category@std@@@8 DD FLAT:??_7type_info@@6B@ ; std::error_category `RTTI Type Descriptor'
	DD	00H
	DB	'.?AVerror_category@std@@', 00H
_DATA	ENDS
;	COMDAT ??_R3error_category@std@@8
rdata$r	SEGMENT
??_R3error_category@std@@8 DD 00H			; std::error_category::`RTTI Class Hierarchy Descriptor'
	DD	00H
	DD	01H
	DD	FLAT:??_R2error_category@std@@8
rdata$r	ENDS
;	COMDAT ??_R0?AV_Generic_error_category@std@@@8
_DATA	SEGMENT
??_R0?AV_Generic_error_category@std@@@8 DD FLAT:??_7type_info@@6B@ ; std::_Generic_error_category `RTTI Type Descriptor'
	DD	00H
	DB	'.?AV_Generic_error_category@std@@', 00H
_DATA	ENDS
;	COMDAT ??_R3_Generic_error_category@std@@8
rdata$r	SEGMENT
??_R3_Generic_error_category@std@@8 DD 00H		; std::_Generic_error_category::`RTTI Class Hierarchy Descriptor'
	DD	00H
	DD	02H
	DD	FLAT:??_R2_Generic_error_category@std@@8
rdata$r	ENDS
;	COMDAT ??_R0?AV_Iostream_error_category@std@@@8
_DATA	SEGMENT
??_R0?AV_Iostream_error_category@std@@@8 DD FLAT:??_7type_info@@6B@ ; std::_Iostream_error_category `RTTI Type Descriptor'
	DD	00H
	DB	'.?AV_Iostream_error_category@std@@', 00H
_DATA	ENDS
;	COMDAT ??_R3_Iostream_error_category@std@@8
rdata$r	SEGMENT
??_R3_Iostream_error_category@std@@8 DD 00H		; std::_Iostream_error_category::`RTTI Class Hierarchy Descriptor'
	DD	00H
	DD	03H
	DD	FLAT:??_R2_Iostream_error_category@std@@8
rdata$r	ENDS
;	COMDAT ??_R0?AV_System_error_category@std@@@8
_DATA	SEGMENT
??_R0?AV_System_error_category@std@@@8 DD FLAT:??_7type_info@@6B@ ; std::_System_error_category `RTTI Type Descriptor'
	DD	00H
	DB	'.?AV_System_error_category@std@@', 00H
_DATA	ENDS
;	COMDAT ??_R3_System_error_category@std@@8
rdata$r	SEGMENT
??_R3_System_error_category@std@@8 DD 00H		; std::_System_error_category::`RTTI Class Hierarchy Descriptor'
	DD	00H
	DD	03H
	DD	FLAT:??_R2_System_error_category@std@@8
rdata$r	ENDS
;	COMDAT ??_R1A@?0A@EA@error_category@std@@8
rdata$r	SEGMENT
??_R1A@?0A@EA@error_category@std@@8 DD FLAT:??_R0?AVerror_category@std@@@8 ; std::error_category::`RTTI Base Class Descriptor at (0,-1,0,64)'
	DD	00H
	DD	00H
	DD	0ffffffffH
	DD	00H
	DD	040H
	DD	FLAT:??_R3error_category@std@@8
rdata$r	ENDS
;	COMDAT ??_R1A@?0A@EA@_Generic_error_category@std@@8
rdata$r	SEGMENT
??_R1A@?0A@EA@_Generic_error_category@std@@8 DD FLAT:??_R0?AV_Generic_error_category@std@@@8 ; std::_Generic_error_category::`RTTI Base Class Descriptor at (0,-1,0,64)'
	DD	01H
	DD	00H
	DD	0ffffffffH
	DD	00H
	DD	040H
	DD	FLAT:??_R3_Generic_error_category@std@@8
rdata$r	ENDS
;	COMDAT ??_R1A@?0A@EA@_Iostream_error_category@std@@8
rdata$r	SEGMENT
??_R1A@?0A@EA@_Iostream_error_category@std@@8 DD FLAT:??_R0?AV_Iostream_error_category@std@@@8 ; std::_Iostream_error_category::`RTTI Base Class Descriptor at (0,-1,0,64)'
	DD	02H
	DD	00H
	DD	0ffffffffH
	DD	00H
	DD	040H
	DD	FLAT:??_R3_Iostream_error_category@std@@8
rdata$r	ENDS
;	COMDAT ??_R1A@?0A@EA@_System_error_category@std@@8
rdata$r	SEGMENT
??_R1A@?0A@EA@_System_error_category@std@@8 DD FLAT:??_R0?AV_System_error_category@std@@@8 ; std::_System_error_category::`RTTI Base Class Descriptor at (0,-1,0,64)'
	DD	02H
	DD	00H
	DD	0ffffffffH
	DD	00H
	DD	040H
	DD	FLAT:??_R3_System_error_category@std@@8
rdata$r	ENDS
;	COMDAT ??_R2error_category@std@@8
rdata$r	SEGMENT
??_R2error_category@std@@8 DD FLAT:??_R1A@?0A@EA@error_category@std@@8 ; std::error_category::`RTTI Base Class Array'
rdata$r	ENDS
;	COMDAT ??_R2_Generic_error_category@std@@8
rdata$r	SEGMENT
??_R2_Generic_error_category@std@@8 DD FLAT:??_R1A@?0A@EA@_Generic_error_category@std@@8 ; std::_Generic_error_category::`RTTI Base Class Array'
	DD	FLAT:??_R1A@?0A@EA@error_category@std@@8
rdata$r	ENDS
;	COMDAT ??_R2_Iostream_error_category@std@@8
rdata$r	SEGMENT
??_R2_Iostream_error_category@std@@8 DD FLAT:??_R1A@?0A@EA@_Iostream_error_category@std@@8 ; std::_Iostream_error_category::`RTTI Base Class Array'
	DD	FLAT:??_R1A@?0A@EA@_Generic_error_category@std@@8
	DD	FLAT:??_R1A@?0A@EA@error_category@std@@8
rdata$r	ENDS
;	COMDAT ??_R2_System_error_category@std@@8
rdata$r	SEGMENT
??_R2_System_error_category@std@@8 DD FLAT:??_R1A@?0A@EA@_System_error_category@std@@8 ; std::_System_error_category::`RTTI Base Class Array'
	DD	FLAT:??_R1A@?0A@EA@_Generic_error_category@std@@8
	DD	FLAT:??_R1A@?0A@EA@error_category@std@@8
rdata$r	ENDS
;	COMDAT ??_C@_0BA@JFNIOLAK@string?5too?5long?$AA@
CONST	SEGMENT
??_C@_0BA@JFNIOLAK@string?5too?5long?$AA@ DB 'string too long', 00H ; `string'
CONST	ENDS
;	COMDAT ??_C@_0BI@CFPLBAOH@invalid?5string?5position?$AA@
CONST	SEGMENT
??_C@_0BI@CFPLBAOH@invalid?5string?5position?$AA@ DB 'invalid string posi'
	DB	'tion', 00H					; `string'
CONST	ENDS
;	COMDAT ??_C@_05DEADDJGB@ptr?3?5?$AA@
CONST	SEGMENT
??_C@_05DEADDJGB@ptr?3?5?$AA@ DB 'ptr: ', 00H		; `string'
CONST	ENDS
;	COMDAT ??_C@_05JMPHEBDN@res?3?5?$AA@
CONST	SEGMENT
??_C@_05JMPHEBDN@res?3?5?$AA@ DB 'res: ', 00H		; `string'
CONST	ENDS
;	COMDAT ??_C@_06IEGNHKAC@time?3?5?$AA@
CONST	SEGMENT
??_C@_06IEGNHKAC@time?3?5?$AA@ DB 'time: ', 00H		; `string'
CONST	ENDS
;	COMDAT ??_C@_0M@LACCCNMM@hello?5world?$AA@
CONST	SEGMENT
??_C@_0M@LACCCNMM@hello?5world?$AA@ DB 'hello world', 00H ; `string'
CONST	ENDS
;	COMDAT ??_C@_06FHFOAHML@system?$AA@
CONST	SEGMENT
??_C@_06FHFOAHML@system?$AA@ DB 'system', 00H		; `string'
CONST	ENDS
;	COMDAT ??_C@_0BG@PADBLCHM@iostream?5stream?5error?$AA@
CONST	SEGMENT
??_C@_0BG@PADBLCHM@iostream?5stream?5error?$AA@ DB 'iostream stream error'
	DB	00H						; `string'
CONST	ENDS
;	COMDAT ??_C@_08LLGCOLLL@iostream?$AA@
CONST	SEGMENT
??_C@_08LLGCOLLL@iostream?$AA@ DB 'iostream', 00H	; `string'
CONST	ENDS
;	COMDAT ??_C@_0O@BFJCFAAK@unknown?5error?$AA@
CONST	SEGMENT
??_C@_0O@BFJCFAAK@unknown?5error?$AA@ DB 'unknown error', 00H ; `string'
CONST	ENDS
;	COMDAT ??_C@_07DCLBNMLN@generic?$AA@
CONST	SEGMENT
??_C@_07DCLBNMLN@generic?$AA@ DB 'generic', 00H		; `string'
CONST	ENDS
PUBLIC	??$destroy@PAD@?$allocator@D@std@@QAEXPAPAD@Z	; std::allocator<char>::destroy<char *>
PUBLIC	??$construct@PADAAPAD@?$allocator@D@std@@QAEXPAPADAAPAD@Z ; std::allocator<char>::construct<char *,char * &>
PUBLIC	??$destroy@PAD@?$allocator_traits@V?$allocator@D@std@@@std@@SAXAAV?$allocator@D@1@PAPAD@Z ; std::allocator_traits<std::allocator<char> >::destroy<char *>
PUBLIC	??$construct@PADAAPAD@?$allocator_traits@V?$allocator@D@std@@@std@@SAXAAV?$allocator@D@1@PAPADAAPAD@Z ; std::allocator_traits<std::allocator<char> >::construct<char *,char * &>
PUBLIC	??$forward@AAPAD@std@@YAAAPADAAPAD@Z		; std::forward<char * &>
PUBLIC	??$_Allocate@D@std@@YAPADIPAD@Z			; std::_Allocate<char>
PUBLIC	??$addressof@D@std@@YAPADAAD@Z			; std::addressof<char>
PUBLIC	??$destroy@PAD@?$_Wrap_alloc@V?$allocator@D@std@@@std@@QAEXPAPAD@Z ; std::_Wrap_alloc<std::allocator<char> >::destroy<char *>
PUBLIC	??$construct@PADAAPAD@?$_Wrap_alloc@V?$allocator@D@std@@@std@@QAEXPAPADAAPAD@Z ; std::_Wrap_alloc<std::allocator<char> >::construct<char *,char * &>
PUBLIC	??$?6U?$char_traits@D@std@@@std@@YAAAV?$basic_ostream@DU?$char_traits@D@std@@@0@AAV10@PBD@Z ; std::operator<<<std::char_traits<char> >
PUBLIC	?max_size@?$allocator@D@std@@QBEIXZ		; std::allocator<char>::max_size
PUBLIC	?max_size@?$allocator_traits@V?$allocator@D@std@@@std@@SAIABV?$allocator@D@2@@Z ; std::allocator_traits<std::allocator<char> >::max_size
PUBLIC	?allocate@?$allocator@D@std@@QAEPADI@Z		; std::allocator<char>::allocate
PUBLIC	?max_size@?$_Wrap_alloc@V?$allocator@D@std@@@std@@QBEIXZ ; std::_Wrap_alloc<std::allocator<char> >::max_size
PUBLIC	?allocate@?$_Wrap_alloc@V?$allocator@D@std@@@std@@QAEPADI@Z ; std::_Wrap_alloc<std::allocator<char> >::allocate
PUBLIC	?_Copy@?$basic_string@DU?$char_traits@D@std@@V?$allocator@D@2@@std@@QAEXII@Z ; std::basic_string<char,std::char_traits<char>,std::allocator<char> >::_Copy
PUBLIC	?max_size@?$basic_string@DU?$char_traits@D@std@@V?$allocator@D@2@@std@@QBEIXZ ; std::basic_string<char,std::char_traits<char>,std::allocator<char> >::max_size
PUBLIC	?erase@?$basic_string@DU?$char_traits@D@std@@V?$allocator@D@2@@std@@QAEAAV12@II@Z ; std::basic_string<char,std::char_traits<char>,std::allocator<char> >::erase
PUBLIC	?erase@?$basic_string@DU?$char_traits@D@std@@V?$allocator@D@2@@std@@QAEAAV12@I@Z ; std::basic_string<char,std::char_traits<char>,std::allocator<char> >::erase
PUBLIC	?_Myptr@?$_String_val@U?$_Simple_types@D@std@@@std@@QAEPADXZ ; std::_String_val<std::_Simple_types<char> >::_Myptr
PUBLIC	?deallocate@?$allocator@D@std@@QAEXPADI@Z	; std::allocator<char>::deallocate
PUBLIC	?_Xlen@?$basic_string@DU?$char_traits@D@std@@V?$allocator@D@2@@std@@QBEXXZ ; std::basic_string<char,std::char_traits<char>,std::allocator<char> >::_Xlen
PUBLIC	?_Inside@?$basic_string@DU?$char_traits@D@std@@V?$allocator@D@2@@std@@QAE_NPBD@Z ; std::basic_string<char,std::char_traits<char>,std::allocator<char> >::_Inside
PUBLIC	?_Grow@?$basic_string@DU?$char_traits@D@std@@V?$allocator@D@2@@std@@QAE_NI_N@Z ; std::basic_string<char,std::char_traits<char>,std::allocator<char> >::_Grow
PUBLIC	?assign@?$basic_string@DU?$char_traits@D@std@@V?$allocator@D@2@@std@@QAEAAV12@ABV12@II@Z ; std::basic_string<char,std::char_traits<char>,std::allocator<char> >::assign
PUBLIC	??1_Sentry_base@?$basic_ostream@DU?$char_traits@D@std@@@std@@QAE@XZ ; std::basic_ostream<char,std::char_traits<char> >::_Sentry_base::~_Sentry_base
PUBLIC	??0_Sentry_base@?$basic_ostream@DU?$char_traits@D@std@@@std@@QAE@AAV12@@Z ; std::basic_ostream<char,std::char_traits<char> >::_Sentry_base::_Sentry_base
PUBLIC	??0?$_String_val@U?$_Simple_types@D@std@@@std@@QAE@XZ ; std::_String_val<std::_Simple_types<char> >::_String_val<std::_Simple_types<char> >
PUBLIC	?deallocate@?$_Wrap_alloc@V?$allocator@D@std@@@std@@QAEXPADI@Z ; std::_Wrap_alloc<std::allocator<char> >::deallocate
PUBLIC	??0?$_Wrap_alloc@V?$allocator@D@std@@@std@@QAE@XZ ; std::_Wrap_alloc<std::allocator<char> >::_Wrap_alloc<std::allocator<char> >
PUBLIC	?_Xran@?$basic_string@DU?$char_traits@D@std@@V?$allocator@D@2@@std@@QBEXXZ ; std::basic_string<char,std::char_traits<char>,std::allocator<char> >::_Xran
PUBLIC	?_Eos@?$basic_string@DU?$char_traits@D@std@@V?$allocator@D@2@@std@@QAEXI@Z ; std::basic_string<char,std::char_traits<char>,std::allocator<char> >::_Eos
PUBLIC	?assign@?$basic_string@DU?$char_traits@D@std@@V?$allocator@D@2@@std@@QAEAAV12@PBDI@Z ; std::basic_string<char,std::char_traits<char>,std::allocator<char> >::assign
PUBLIC	??Bsentry@?$basic_ostream@DU?$char_traits@D@std@@@std@@QBEPQ?$_Bool_struct@V?$basic_ostream@DU?$char_traits@D@std@@@std@@@2@HXZ ; std::basic_ostream<char,std::char_traits<char> >::sentry::operator int std::_Bool_struct<std::basic_ostream<char,std::char_traits<char> > >::*
PUBLIC	??1sentry@?$basic_ostream@DU?$char_traits@D@std@@@std@@QAE@XZ ; std::basic_ostream<char,std::char_traits<char> >::sentry::~sentry
PUBLIC	??0sentry@?$basic_ostream@DU?$char_traits@D@std@@@std@@QAE@AAV12@@Z ; std::basic_ostream<char,std::char_traits<char> >::sentry::sentry
PUBLIC	?_Myptr@?$_String_val@U?$_Simple_types@D@std@@@std@@QBEPBDXZ ; std::_String_val<std::_Simple_types<char> >::_Myptr
PUBLIC	?_Getal@?$_String_alloc@$0A@U?$_String_base_types@DV?$allocator@D@std@@@std@@@std@@QBE?AU?$_Wrap_alloc@V?$allocator@D@std@@@2@XZ ; std::_String_alloc<0,std::_String_base_types<char,std::allocator<char> > >::_Getal
PUBLIC	??0?$_String_alloc@$0A@U?$_String_base_types@DV?$allocator@D@std@@@std@@@std@@QAE@ABV?$allocator@D@1@@Z ; std::_String_alloc<0,std::_String_base_types<char,std::allocator<char> > >::_String_alloc<0,std::_String_base_types<char,std::allocator<char> > >
PUBLIC	??0?$allocator@D@std@@QAE@XZ			; std::allocator<char>::allocator<char>
PUBLIC	?_Tidy@?$basic_string@DU?$char_traits@D@std@@V?$allocator@D@2@@std@@QAEX_NI@Z ; std::basic_string<char,std::char_traits<char>,std::allocator<char> >::_Tidy
PUBLIC	?size@?$basic_string@DU?$char_traits@D@std@@V?$allocator@D@2@@std@@QBEIXZ ; std::basic_string<char,std::char_traits<char>,std::allocator<char> >::size
PUBLIC	?assign@?$basic_string@DU?$char_traits@D@std@@V?$allocator@D@2@@std@@QAEAAV12@PBD@Z ; std::basic_string<char,std::char_traits<char>,std::allocator<char> >::assign
PUBLIC	??1?$basic_string@DU?$char_traits@D@std@@V?$allocator@D@2@@std@@QAE@XZ ; std::basic_string<char,std::char_traits<char>,std::allocator<char> >::~basic_string<char,std::char_traits<char>,std::allocator<char> >
PUBLIC	??0?$basic_string@DU?$char_traits@D@std@@V?$allocator@D@2@@std@@QAE@PBD@Z ; std::basic_string<char,std::char_traits<char>,std::allocator<char> >::basic_string<char,std::char_traits<char>,std::allocator<char> >
PUBLIC	_wmain
PUBLIC	?getb@@YANNN@Z					; getb
PUBLIC	?geta@@YANNN@Z					; geta
PUBLIC	?system_category@std@@YAABVerror_category@1@XZ	; std::system_category
PUBLIC	?generic_category@std@@YAABVerror_category@1@XZ	; std::generic_category
PUBLIC	??1_System_error_category@std@@UAE@XZ		; std::_System_error_category::~_System_error_category
PUBLIC	??_G_System_error_category@std@@UAEPAXI@Z	; std::_System_error_category::`scalar deleting destructor'
PUBLIC	?default_error_condition@_System_error_category@std@@UBE?AVerror_condition@2@H@Z ; std::_System_error_category::default_error_condition
PUBLIC	?message@_System_error_category@std@@UBE?AV?$basic_string@DU?$char_traits@D@std@@V?$allocator@D@2@@2@H@Z ; std::_System_error_category::message
PUBLIC	?name@_System_error_category@std@@UBEPBDXZ	; std::_System_error_category::name
PUBLIC	??0_System_error_category@std@@QAE@XZ		; std::_System_error_category::_System_error_category
PUBLIC	??1_Iostream_error_category@std@@UAE@XZ		; std::_Iostream_error_category::~_Iostream_error_category
PUBLIC	??_G_Iostream_error_category@std@@UAEPAXI@Z	; std::_Iostream_error_category::`scalar deleting destructor'
PUBLIC	?message@_Iostream_error_category@std@@UBE?AV?$basic_string@DU?$char_traits@D@std@@V?$allocator@D@2@@2@H@Z ; std::_Iostream_error_category::message
PUBLIC	?name@_Iostream_error_category@std@@UBEPBDXZ	; std::_Iostream_error_category::name
PUBLIC	??0_Iostream_error_category@std@@QAE@XZ		; std::_Iostream_error_category::_Iostream_error_category
PUBLIC	??1_Generic_error_category@std@@UAE@XZ		; std::_Generic_error_category::~_Generic_error_category
PUBLIC	??_G_Generic_error_category@std@@UAEPAXI@Z	; std::_Generic_error_category::`scalar deleting destructor'
PUBLIC	?message@_Generic_error_category@std@@UBE?AV?$basic_string@DU?$char_traits@D@std@@V?$allocator@D@2@@2@H@Z ; std::_Generic_error_category::message
PUBLIC	?name@_Generic_error_category@std@@UBEPBDXZ	; std::_Generic_error_category::name
PUBLIC	??0_Generic_error_category@std@@QAE@XZ		; std::_Generic_error_category::_Generic_error_category
PUBLIC	?equivalent@error_category@std@@UBE_NABVerror_code@2@H@Z ; std::error_category::equivalent
PUBLIC	?equivalent@error_category@std@@UBE_NHABVerror_condition@2@@Z ; std::error_category::equivalent
PUBLIC	?default_error_condition@error_category@std@@UBE?AVerror_condition@2@H@Z ; std::error_category::default_error_condition
PUBLIC	??8error_condition@std@@QBE_NABV01@@Z		; std::error_condition::operator==
PUBLIC	?category@error_condition@std@@QBEABVerror_category@2@XZ ; std::error_condition::category
PUBLIC	?value@error_condition@std@@QBEHXZ		; std::error_condition::value
PUBLIC	??0error_condition@std@@QAE@HABVerror_category@1@@Z ; std::error_condition::error_condition
PUBLIC	?category@error_code@std@@QBEABVerror_category@2@XZ ; std::error_code::category
PUBLIC	?value@error_code@std@@QBEHXZ			; std::error_code::value
PUBLIC	??_Gerror_category@std@@UAEPAXI@Z		; std::error_category::`scalar deleting destructor'
PUBLIC	??8error_category@std@@QBE_NABV01@@Z		; std::error_category::operator==
PUBLIC	??1error_category@std@@UAE@XZ			; std::error_category::~error_category
PUBLIC	??0error_category@std@@QAE@XZ			; std::error_category::error_category
PUBLIC	?eof@?$char_traits@D@std@@SAHXZ			; std::char_traits<char>::eof
PUBLIC	?eq_int_type@?$char_traits@D@std@@SA_NABH0@Z	; std::char_traits<char>::eq_int_type
PUBLIC	?assign@?$char_traits@D@std@@SAXAADABD@Z	; std::char_traits<char>::assign
PUBLIC	?move@?$char_traits@D@std@@SAPADPADPBDI@Z	; std::char_traits<char>::move
PUBLIC	?copy@?$char_traits@D@std@@SAPADPADPBDI@Z	; std::char_traits<char>::copy
PUBLIC	?length@?$char_traits@D@std@@SAIPBD@Z		; std::char_traits<char>::length
PUBLIC	??3@YAXPAX0@Z					; operator delete
PUBLIC	??2@YAPAXIPAX@Z					; operator new
PUBLIC	?_Generic_object@?$_Error_objects@H@std@@2V_Generic_error_category@2@A ; std::_Error_objects<int>::_Generic_object
PUBLIC	?_Iostream_object@?$_Error_objects@H@std@@2V_Iostream_error_category@2@A ; std::_Error_objects<int>::_Iostream_object
PUBLIC	?_System_object@?$_Error_objects@H@std@@2V_System_error_category@2@A ; std::_Error_objects<int>::_System_object
EXTRN	??_Eerror_category@std@@UAEPAXI@Z:PROC		; std::error_category::`vector deleting destructor'
EXTRN	??_E_Generic_error_category@std@@UAEPAXI@Z:PROC	; std::_Generic_error_category::`vector deleting destructor'
EXTRN	??_E_Iostream_error_category@std@@UAEPAXI@Z:PROC ; std::_Iostream_error_category::`vector deleting destructor'
EXTRN	??_E_System_error_category@std@@UAEPAXI@Z:PROC	; std::_System_error_category::`vector deleting destructor'
_piecewise_construct DB 01H DUP (?)
	ALIGN	4

_allocator_arg DB 01H DUP (?)
_BSS	ENDS
;	COMDAT CRT$XCU
CRT$XCU	SEGMENT
?_Generic_object$initializer$@?$_Error_objects@H@std@@2P6AXXZA DD FLAT:??__E?_Generic_object@?$_Error_objects@H@std@@2V_Generic_error_category@2@A@@YAXXZ ; std::_Error_objects<int>::_Generic_object$initializer$
CRT$XCU	ENDS
;	COMDAT ?_System_object@?$_Error_objects@H@std@@2V_System_error_category@2@A
_DATA	SEGMENT
?_System_object@?$_Error_objects@H@std@@2V_System_error_category@2@A DD FLAT:??_7_System_error_category@std@@6B@ ; std::_Error_objects<int>::_System_object
_DATA	ENDS
;	COMDAT ?_Iostream_object@?$_Error_objects@H@std@@2V_Iostream_error_category@2@A
_DATA	SEGMENT
?_Iostream_object@?$_Error_objects@H@std@@2V_Iostream_error_category@2@A DD FLAT:??_7_Iostream_error_category@std@@6B@ ; std::_Error_objects<int>::_Iostream_object
_DATA	ENDS
;	COMDAT ?_Generic_object@?$_Error_objects@H@std@@2V_Generic_error_category@2@A
_DATA	SEGMENT
?_Generic_object@?$_Error_objects@H@std@@2V_Generic_error_category@2@A DD FLAT:??_7_Generic_error_category@std@@6B@ ; std::_Error_objects<int>::_Generic_object
_DATA	ENDS
;	COMDAT xdata$x
xdata$x	SEGMENT
__ehfuncinfo$??0sentry@?$basic_ostream@DU?$char_traits@D@std@@@std@@QAE@AAV12@@Z DD 019930522H
	DD	01H
	DD	FLAT:__unwindtable$??0sentry@?$basic_ostream@DU?$char_traits@D@std@@@std@@QAE@AAV12@@Z
	DD	2 DUP(00H)
	DD	2 DUP(00H)
	DD	00H
	DD	01H
__unwindtable$??0sentry@?$basic_ostream@DU?$char_traits@D@std@@@std@@QAE@AAV12@@Z DD 0ffffffffH
	DD	FLAT:__unwindfunclet$??0sentry@?$basic_ostream@DU?$char_traits@D@std@@@std@@QAE@AAV12@@Z$0
xdata$x	ENDS
;	COMDAT xdata$x
xdata$x	SEGMENT
__ehfuncinfo$?_Copy@?$basic_string@DU?$char_traits@D@std@@V?$allocator@D@2@@std@@QAEXII@Z DD 019930522H
	DD	04H
	DD	FLAT:__unwindtable$?_Copy@?$basic_string@DU?$char_traits@D@std@@V?$allocator@D@2@@std@@QAEXII@Z
	DD	02H
	DD	FLAT:__tryblocktable$?_Copy@?$basic_string@DU?$char_traits@D@std@@V?$allocator@D@2@@std@@QAEXII@Z
	DD	2 DUP(00H)
	DD	00H
	DD	01H
__unwindtable$?_Copy@?$basic_string@DU?$char_traits@D@std@@V?$allocator@D@2@@std@@QAEXII@Z DD 0ffffffffH
	DD	00H
	DD	0ffffffffH
	DD	00H
	DD	01H
	DD	00H
	DD	01H
	DD	00H
__tryblocktable$?_Copy@?$basic_string@DU?$char_traits@D@std@@V?$allocator@D@2@@std@@QAEXII@Z DD 02H
	DD	02H
	DD	03H
	DD	01H
	DD	FLAT:__catchsym$?_Copy@?$basic_string@DU?$char_traits@D@std@@V?$allocator@D@2@@std@@QAEXII@Z$4
	DD	00H
	DD	00H
	DD	03H
	DD	01H
	DD	FLAT:__catchsym$?_Copy@?$basic_string@DU?$char_traits@D@std@@V?$allocator@D@2@@std@@QAEXII@Z$5
__catchsym$?_Copy@?$basic_string@DU?$char_traits@D@std@@V?$allocator@D@2@@std@@QAEXII@Z$4 DD 040H
	DD	00H
	DD	00H
	DD	FLAT:__catch$?_Copy@?$basic_string@DU?$char_traits@D@std@@V?$allocator@D@2@@std@@QAEXII@Z$1
__catchsym$?_Copy@?$basic_string@DU?$char_traits@D@std@@V?$allocator@D@2@@std@@QAEXII@Z$5 DD 040H
	DD	00H
	DD	00H
	DD	FLAT:__catch$?_Copy@?$basic_string@DU?$char_traits@D@std@@V?$allocator@D@2@@std@@QAEXII@Z$0
xdata$x	ENDS
;	COMDAT xdata$x
xdata$x	SEGMENT
__ehfuncinfo$??$?6U?$char_traits@D@std@@@std@@YAAAV?$basic_ostream@DU?$char_traits@D@std@@@0@AAV10@PBD@Z DD 019930522H
	DD	04H
	DD	FLAT:__unwindtable$??$?6U?$char_traits@D@std@@@std@@YAAAV?$basic_ostream@DU?$char_traits@D@std@@@0@AAV10@PBD@Z
	DD	2 DUP(00H)
	DD	2 DUP(00H)
	DD	00H
	DD	01H
__unwindtable$??$?6U?$char_traits@D@std@@@std@@YAAAV?$basic_ostream@DU?$char_traits@D@std@@@0@AAV10@PBD@Z DD 0ffffffffH
	DD	FLAT:__unwindfunclet$??$?6U?$char_traits@D@std@@@std@@YAAAV?$basic_ostream@DU?$char_traits@D@std@@@0@AAV10@PBD@Z$3
	DD	0ffffffffH
	DD	FLAT:__unwindfunclet$??$?6U?$char_traits@D@std@@@std@@YAAAV?$basic_ostream@DU?$char_traits@D@std@@@0@AAV10@PBD@Z$2
	DD	01H
	DD	00H
	DD	01H
	DD	00H
;	COMDAT CRT$XCU
CRT$XCU	SEGMENT
?_Iostream_object$initializer$@?$_Error_objects@H@std@@2P6AXXZA DD FLAT:??__E?_Iostream_object@?$_Error_objects@H@std@@2V_Iostream_error_category@2@A@@YAXXZ ; std::_Error_objects<int>::_Iostream_object$initializer$
CRT$XCU	ENDS
;	COMDAT CRT$XCU
CRT$XCU	SEGMENT
?_System_object$initializer$@?$_Error_objects@H@std@@2P6AXXZA DD FLAT:??__E?_System_object@?$_Error_objects@H@std@@2V_System_error_category@2@A@@YAXXZ ; std::_Error_objects<int>::_System_object$initializer$
CRT$XCU	ENDS
; Function compile flags: /Ogtp
; File c:\program files (x86)\microsoft visual studio 11.0\vc\include\new
;	COMDAT ??2@YAPAXIPAX@Z
_TEXT	SEGMENT
??2@YAPAXIPAX@Z PROC					; operator new, COMDAT
; ___formal$dead$ = ecx
; __Where$ = edx

; 60   : 	return (_Where);

  00000	8b c2		 mov	 eax, edx

; 61   : 	}

  00002	c3		 ret	 0
??2@YAPAXIPAX@Z ENDP					; operator new
_TEXT	ENDS
; Function compile flags: /Ogtp
; File c:\program files (x86)\microsoft visual studio 11.0\vc\include\new
;	COMDAT ??3@YAXPAX0@Z
_TEXT	SEGMENT
??3@YAXPAX0@Z PROC					; operator delete, COMDAT
; ___formal$dead$ = ecx
; ___formal$dead$ = edx

; 65   : 	}

  00000	c3		 ret	 0
??3@YAXPAX0@Z ENDP					; operator delete
_TEXT	ENDS
; Function compile flags: /Ogtp
; File c:\program files (x86)\microsoft visual studio 11.0\vc\include\iosfwd
;	COMDAT ?length@?$char_traits@D@std@@SAIPBD@Z
_TEXT	SEGMENT
?length@?$char_traits@D@std@@SAIPBD@Z PROC		; std::char_traits<char>::length, COMDAT
; __First$ = ecx

; 522  : 		return (*_First == 0 ? 0
; 523  : 			: _CSTD strlen(_First));

  00000	80 39 00	 cmp	 BYTE PTR [ecx], 0
  00003	75 03		 jne	 SHORT $LN3@length
  00005	33 c0		 xor	 eax, eax

; 524  : 		}

  00007	c3		 ret	 0
$LN3@length:

; 522  : 		return (*_First == 0 ? 0
; 523  : 			: _CSTD strlen(_First));

  00008	8d 51 01	 lea	 edx, DWORD PTR [ecx+1]
  0000b	eb 03 8d 49 00	 npad	 5
$LL5@length:
  00010	8a 01		 mov	 al, BYTE PTR [ecx]
  00012	41		 inc	 ecx
  00013	84 c0		 test	 al, al
  00015	75 f9		 jne	 SHORT $LL5@length
  00017	2b ca		 sub	 ecx, edx
  00019	8b c1		 mov	 eax, ecx

; 524  : 		}

  0001b	c3		 ret	 0
?length@?$char_traits@D@std@@SAIPBD@Z ENDP		; std::char_traits<char>::length
_TEXT	ENDS
; Function compile flags: /Ogtp
; File c:\program files (x86)\microsoft visual studio 11.0\vc\include\iosfwd
;	COMDAT ?copy@?$char_traits@D@std@@SAPADPADPBDI@Z
_TEXT	SEGMENT
__Count$ = 8						; size = 4
?copy@?$char_traits@D@std@@SAPADPADPBDI@Z PROC		; std::char_traits<char>::copy, COMDAT
; __First1$ = ecx
; __First2$ = edx

; 528  : 		{	// copy [_First2, _First2 + _Count) to [_First1, ...)

  00000	55		 push	 ebp
  00001	8b ec		 mov	 ebp, esp

; 529  : 		return (_Count == 0 ? _First1
; 530  : 			: (_Elem *)_CSTD memcpy(_First1, _First2, _Count));

  00003	8b 45 08	 mov	 eax, DWORD PTR __Count$[ebp]
  00006	85 c0		 test	 eax, eax
  00008	75 04		 jne	 SHORT $LN3@copy
  0000a	8b c1		 mov	 eax, ecx

; 531  : 		}

  0000c	5d		 pop	 ebp
  0000d	c3		 ret	 0
$LN3@copy:

; 529  : 		return (_Count == 0 ? _First1
; 530  : 			: (_Elem *)_CSTD memcpy(_First1, _First2, _Count));

  0000e	50		 push	 eax
  0000f	52		 push	 edx
  00010	51		 push	 ecx
  00011	e8 00 00 00 00	 call	 _memcpy
  00016	83 c4 0c	 add	 esp, 12			; 0000000cH

; 531  : 		}

  00019	5d		 pop	 ebp
  0001a	c3		 ret	 0
?copy@?$char_traits@D@std@@SAPADPADPBDI@Z ENDP		; std::char_traits<char>::copy
_TEXT	ENDS
; Function compile flags: /Ogtp
; File c:\program files (x86)\microsoft visual studio 11.0\vc\include\iosfwd
;	COMDAT ?move@?$char_traits@D@std@@SAPADPADPBDI@Z
_TEXT	SEGMENT
__Count$ = 8						; size = 4
?move@?$char_traits@D@std@@SAPADPADPBDI@Z PROC		; std::char_traits<char>::move, COMDAT
; __First1$ = ecx
; __First2$ = edx

; 551  : 		{	// copy [_First2, _First2 + _Count) to [_First1, ...)

  00000	55		 push	 ebp
  00001	8b ec		 mov	 ebp, esp

; 552  : 		return (_Count == 0 ? _First1
; 553  : 			: (_Elem *)_CSTD memmove(_First1, _First2, _Count));

  00003	8b 45 08	 mov	 eax, DWORD PTR __Count$[ebp]
  00006	85 c0		 test	 eax, eax
  00008	75 04		 jne	 SHORT $LN3@move
  0000a	8b c1		 mov	 eax, ecx

; 554  : 		}

  0000c	5d		 pop	 ebp
  0000d	c3		 ret	 0
$LN3@move:

; 552  : 		return (_Count == 0 ? _First1
; 553  : 			: (_Elem *)_CSTD memmove(_First1, _First2, _Count));

  0000e	50		 push	 eax
  0000f	52		 push	 edx
  00010	51		 push	 ecx
  00011	ff 15 00 00 00
	00		 call	 DWORD PTR __imp__memmove
  00017	83 c4 0c	 add	 esp, 12			; 0000000cH

; 554  : 		}

  0001a	5d		 pop	 ebp
  0001b	c3		 ret	 0
?move@?$char_traits@D@std@@SAPADPADPBDI@Z ENDP		; std::char_traits<char>::move
_TEXT	ENDS
; Function compile flags: /Ogtp
; File c:\program files (x86)\microsoft visual studio 11.0\vc\include\iosfwd
;	COMDAT ?assign@?$char_traits@D@std@@SAXAADABD@Z
_TEXT	SEGMENT
?assign@?$char_traits@D@std@@SAXAADABD@Z PROC		; std::char_traits<char>::assign, COMDAT
; __Left$ = ecx
; __Right$ = edx

; 564  : 		_Left = _Right;

  00000	8a 02		 mov	 al, BYTE PTR [edx]
  00002	88 01		 mov	 BYTE PTR [ecx], al

; 565  : 		}

  00004	c3		 ret	 0
?assign@?$char_traits@D@std@@SAXAADABD@Z ENDP		; std::char_traits<char>::assign
_TEXT	ENDS
; Function compile flags: /Ogtp
; File c:\program files (x86)\microsoft visual studio 11.0\vc\include\iosfwd
;	COMDAT ?eq_int_type@?$char_traits@D@std@@SA_NABH0@Z
_TEXT	SEGMENT
?eq_int_type@?$char_traits@D@std@@SA_NABH0@Z PROC	; std::char_traits<char>::eq_int_type, COMDAT
; __Left$ = ecx
; __Right$ = edx

; 594  : 		return (_Left == _Right);

  00000	8b 09		 mov	 ecx, DWORD PTR [ecx]
  00002	33 c0		 xor	 eax, eax
  00004	3b 0a		 cmp	 ecx, DWORD PTR [edx]
  00006	0f 94 c0	 sete	 al

; 595  : 		}

  00009	c3		 ret	 0
?eq_int_type@?$char_traits@D@std@@SA_NABH0@Z ENDP	; std::char_traits<char>::eq_int_type
_TEXT	ENDS
; Function compile flags: /Ogtp
; File c:\program files (x86)\microsoft visual studio 11.0\vc\include\iosfwd
;	COMDAT ?eof@?$char_traits@D@std@@SAHXZ
_TEXT	SEGMENT
?eof@?$char_traits@D@std@@SAHXZ PROC			; std::char_traits<char>::eof, COMDAT

; 605  : 		return (EOF);

  00000	83 c8 ff	 or	 eax, -1

; 606  : 		}

  00003	c3		 ret	 0
?eof@?$char_traits@D@std@@SAHXZ ENDP			; std::char_traits<char>::eof
_TEXT	ENDS
; Function compile flags: /Ogtp
; File c:\program files (x86)\microsoft visual studio 11.0\vc\include\system_error
;	COMDAT ??0error_category@std@@QAE@XZ
_TEXT	SEGMENT
??0error_category@std@@QAE@XZ PROC			; std::error_category::error_category, COMDAT
; _this$ = ecx

; 162  : 	error_category()

  00000	c7 01 00 00 00
	00		 mov	 DWORD PTR [ecx], OFFSET ??_7error_category@std@@6B@

; 163  : 		{	// default constructor
; 164  : 		}

  00006	8b c1		 mov	 eax, ecx
  00008	c3		 ret	 0
??0error_category@std@@QAE@XZ ENDP			; std::error_category::error_category
_TEXT	ENDS
; Function compile flags: /Ogtp
; File c:\program files (x86)\microsoft visual studio 11.0\vc\include\system_error
;	COMDAT ??1error_category@std@@UAE@XZ
_TEXT	SEGMENT
??1error_category@std@@UAE@XZ PROC			; std::error_category::~error_category, COMDAT
; _this$ = ecx

; 167  : 		{	// destroy the object

  00000	c7 01 00 00 00
	00		 mov	 DWORD PTR [ecx], OFFSET ??_7error_category@std@@6B@

; 168  : 		}

  00006	c3		 ret	 0
??1error_category@std@@UAE@XZ ENDP			; std::error_category::~error_category
_TEXT	ENDS
; Function compile flags: /Ogtp
; File c:\program files (x86)\microsoft visual studio 11.0\vc\include\system_error
;	COMDAT ??8error_category@std@@QBE_NABV01@@Z
_TEXT	SEGMENT
__Right$ = 8						; size = 4
??8error_category@std@@QBE_NABV01@@Z PROC		; std::error_category::operator==, COMDAT
; _this$ = ecx

; 184  : 		{	// compare categories for equality

  00000	55		 push	 ebp
  00001	8b ec		 mov	 ebp, esp

; 185  : 		return (this == &_Right);

  00003	33 c0		 xor	 eax, eax
  00005	3b 4d 08	 cmp	 ecx, DWORD PTR __Right$[ebp]
  00008	0f 94 c0	 sete	 al

; 186  : 		}

  0000b	5d		 pop	 ebp
  0000c	c2 04 00	 ret	 4
??8error_category@std@@QBE_NABV01@@Z ENDP		; std::error_category::operator==
_TEXT	ENDS
; Function compile flags: /Ogtp
; File c:\program files (x86)\microsoft visual studio 11.0\vc\include\system_error
;	COMDAT ??_Gerror_category@std@@UAEPAXI@Z
_TEXT	SEGMENT
___flags$ = 8						; size = 4
??_Gerror_category@std@@UAEPAXI@Z PROC			; std::error_category::`scalar deleting destructor', COMDAT
; _this$ = ecx
  00000	55		 push	 ebp
  00001	8b ec		 mov	 ebp, esp
  00003	f6 45 08 01	 test	 BYTE PTR ___flags$[ebp], 1
  00007	56		 push	 esi
  00008	8b f1		 mov	 esi, ecx

; 167  : 		{	// destroy the object

  0000a	c7 06 00 00 00
	00		 mov	 DWORD PTR [esi], OFFSET ??_7error_category@std@@6B@
  00010	74 0a		 je	 SHORT $LN6@scalar
  00012	56		 push	 esi
  00013	ff 15 00 00 00
	00		 call	 DWORD PTR __imp_??3@YAXPAX@Z
  00019	83 c4 04	 add	 esp, 4
$LN6@scalar:
  0001c	8b c6		 mov	 eax, esi
  0001e	5e		 pop	 esi
  0001f	5d		 pop	 ebp
  00020	c2 04 00	 ret	 4
??_Gerror_category@std@@UAEPAXI@Z ENDP			; std::error_category::`scalar deleting destructor'
_TEXT	ENDS
; Function compile flags: /Ogtp
; File c:\program files (x86)\microsoft visual studio 11.0\vc\include\system_error
;	COMDAT ?value@error_code@std@@QBEHXZ
_TEXT	SEGMENT
?value@error_code@std@@QBEHXZ PROC			; std::error_code::value, COMDAT
; _this$ = ecx

; 252  : 		return (_Myval);

  00000	8b 01		 mov	 eax, DWORD PTR [ecx]

; 253  : 		}

  00002	c3		 ret	 0
?value@error_code@std@@QBEHXZ ENDP			; std::error_code::value
_TEXT	ENDS
; Function compile flags: /Ogtp
; File c:\program files (x86)\microsoft visual studio 11.0\vc\include\system_error
;	COMDAT ?category@error_code@std@@QBEABVerror_category@2@XZ
_TEXT	SEGMENT
?category@error_code@std@@QBEABVerror_category@2@XZ PROC ; std::error_code::category, COMDAT
; _this$ = ecx

; 257  : 		return (*_Mycat);

  00000	8b 41 04	 mov	 eax, DWORD PTR [ecx+4]

; 258  : 		}

  00003	c3		 ret	 0
?category@error_code@std@@QBEABVerror_category@2@XZ ENDP ; std::error_code::category
_TEXT	ENDS
; Function compile flags: /Ogtp
; File c:\program files (x86)\microsoft visual studio 11.0\vc\include\system_error
;	COMDAT ??0error_condition@std@@QAE@HABVerror_category@1@@Z
_TEXT	SEGMENT
__Val$ = 8						; size = 4
__Cat$ = 12						; size = 4
??0error_condition@std@@QAE@HABVerror_category@1@@Z PROC ; std::error_condition::error_condition, COMDAT
; _this$ = ecx

; 316  : 		{	// construct from error code and category

  00000	55		 push	 ebp
  00001	8b ec		 mov	 ebp, esp
  00003	8b 45 08	 mov	 eax, DWORD PTR __Val$[ebp]
  00006	89 01		 mov	 DWORD PTR [ecx], eax
  00008	8b 45 0c	 mov	 eax, DWORD PTR __Cat$[ebp]
  0000b	89 41 04	 mov	 DWORD PTR [ecx+4], eax

; 317  : 		}

  0000e	8b c1		 mov	 eax, ecx
  00010	5d		 pop	 ebp
  00011	c2 08 00	 ret	 8
??0error_condition@std@@QAE@HABVerror_category@1@@Z ENDP ; std::error_condition::error_condition
_TEXT	ENDS
; Function compile flags: /Ogtp
; File c:\program files (x86)\microsoft visual studio 11.0\vc\include\system_error
;	COMDAT ?value@error_condition@std@@QBEHXZ
_TEXT	SEGMENT
?value@error_condition@std@@QBEHXZ PROC			; std::error_condition::value, COMDAT
; _this$ = ecx

; 350  : 		return (_Myval);

  00000	8b 01		 mov	 eax, DWORD PTR [ecx]

; 351  : 		}

  00002	c3		 ret	 0
?value@error_condition@std@@QBEHXZ ENDP			; std::error_condition::value
_TEXT	ENDS
; Function compile flags: /Ogtp
; File c:\program files (x86)\microsoft visual studio 11.0\vc\include\system_error
;	COMDAT ?category@error_condition@std@@QBEABVerror_category@2@XZ
_TEXT	SEGMENT
?category@error_condition@std@@QBEABVerror_category@2@XZ PROC ; std::error_condition::category, COMDAT
; _this$ = ecx

; 355  : 		return (*_Mycat);

  00000	8b 41 04	 mov	 eax, DWORD PTR [ecx+4]

; 356  : 		}

  00003	c3		 ret	 0
?category@error_condition@std@@QBEABVerror_category@2@XZ ENDP ; std::error_condition::category
_TEXT	ENDS
; Function compile flags: /Ogtp
; File c:\program files (x86)\microsoft visual studio 11.0\vc\include\system_error
;	COMDAT ??8error_condition@std@@QBE_NABV01@@Z
_TEXT	SEGMENT
__Right$ = 8						; size = 4
??8error_condition@std@@QBE_NABV01@@Z PROC		; std::error_condition::operator==, COMDAT
; _this$ = ecx

; 376  : 		{	// test if *this == _Right

  00000	55		 push	 ebp
  00001	8b ec		 mov	 ebp, esp

; 185  : 		return (this == &_Right);

  00003	8b 55 08	 mov	 edx, DWORD PTR __Right$[ebp]
  00006	8b 41 04	 mov	 eax, DWORD PTR [ecx+4]
  00009	3b 42 04	 cmp	 eax, DWORD PTR [edx+4]

; 377  : 		return (category() == _Right.category()
; 378  : 			&& value() == _Right.value());

  0000c	75 0c		 jne	 SHORT $LN3@operator
  0000e	8b 01		 mov	 eax, DWORD PTR [ecx]
  00010	3b 02		 cmp	 eax, DWORD PTR [edx]
  00012	75 06		 jne	 SHORT $LN3@operator
  00014	b0 01		 mov	 al, 1

; 379  : 		}

  00016	5d		 pop	 ebp
  00017	c2 04 00	 ret	 4
$LN3@operator:

; 377  : 		return (category() == _Right.category()
; 378  : 			&& value() == _Right.value());

  0001a	32 c0		 xor	 al, al

; 379  : 		}

  0001c	5d		 pop	 ebp
  0001d	c2 04 00	 ret	 4
??8error_condition@std@@QBE_NABV01@@Z ENDP		; std::error_condition::operator==
_TEXT	ENDS
; Function compile flags: /Ogtp
; File c:\program files (x86)\microsoft visual studio 11.0\vc\include\system_error
;	COMDAT ?default_error_condition@error_category@std@@UBE?AVerror_condition@2@H@Z
_TEXT	SEGMENT
___$ReturnUdt$ = 8					; size = 4
__Errval$ = 12						; size = 4
?default_error_condition@error_category@std@@UBE?AVerror_condition@2@H@Z PROC ; std::error_category::default_error_condition, COMDAT
; _this$ = ecx

; 401  : 	{	// make error_condition for error code

  00000	55		 push	 ebp
  00001	8b ec		 mov	 ebp, esp

; 316  : 		{	// construct from error code and category

  00003	8b 45 08	 mov	 eax, DWORD PTR ___$ReturnUdt$[ebp]
  00006	8b 55 0c	 mov	 edx, DWORD PTR __Errval$[ebp]
  00009	89 10		 mov	 DWORD PTR [eax], edx
  0000b	89 48 04	 mov	 DWORD PTR [eax+4], ecx

; 402  : 	return (error_condition(_Errval, *this));
; 403  : 	}

  0000e	5d		 pop	 ebp
  0000f	c2 08 00	 ret	 8
?default_error_condition@error_category@std@@UBE?AVerror_condition@2@H@Z ENDP ; std::error_category::default_error_condition
_TEXT	ENDS
; Function compile flags: /Ogtp
; File c:\program files (x86)\microsoft visual studio 11.0\vc\include\system_error
;	COMDAT ?equivalent@error_category@std@@UBE_NHABVerror_condition@2@@Z
_TEXT	SEGMENT
$T1 = -8						; size = 8
__Errval$ = 8						; size = 4
__Cond$ = 12						; size = 4
?equivalent@error_category@std@@UBE_NHABVerror_condition@2@@Z PROC ; std::error_category::equivalent, COMDAT
; _this$ = ecx

; 408  : 	{	// test if error code same condition

  00000	55		 push	 ebp
  00001	8b ec		 mov	 ebp, esp

; 409  : 	return (default_error_condition(_Errval) == _Cond);

  00003	8b 01		 mov	 eax, DWORD PTR [ecx]
  00005	83 ec 08	 sub	 esp, 8
  00008	8d 55 f8	 lea	 edx, DWORD PTR $T1[ebp]
  0000b	ff 75 08	 push	 DWORD PTR __Errval$[ebp]
  0000e	52		 push	 edx
  0000f	ff 50 0c	 call	 DWORD PTR [eax+12]

; 185  : 		return (this == &_Right);

  00012	8b 55 0c	 mov	 edx, DWORD PTR __Cond$[ebp]
  00015	8b 48 04	 mov	 ecx, DWORD PTR [eax+4]
  00018	3b 4a 04	 cmp	 ecx, DWORD PTR [edx+4]

; 186  : 		}
; 187  : 
; 188  : 	bool operator!=(const error_category& _Right) const _NOEXCEPT
; 189  : 		{	// compare categories for inequality
; 190  : 		return (!(*this == _Right));
; 191  : 		}
; 192  : 
; 193  : 	bool operator<(const error_category& _Right) const _NOEXCEPT
; 194  : 		{	// compare categories for order
; 195  : 		return (this < &_Right);
; 196  : 		}
; 197  : 
; 198  : private:
; 199  : 	error_category(const error_category&);	// not defined
; 200  : 
; 201  : 	error_category& operator=(const error_category&);	// not defined
; 202  : 	};
; 203  : 
; 204  : 		// CLASS error_code
; 205  : class error_code
; 206  : 	{	// store an implementation-specific error code and category
; 207  : public:
; 208  : 	typedef error_code _Myt;
; 209  : 
; 210  : 	error_code()
; 211  : 		: _Myval(0),
; 212  : 			_Mycat(&system_category())
; 213  : 		{	// construct non-error
; 214  : 		}
; 215  : 
; 216  : 	error_code(int _Val, const error_category& _Cat)
; 217  : 		: _Myval(_Val), _Mycat(&_Cat)
; 218  : 		{	// construct from error code and category
; 219  : 		}
; 220  : 
; 221  : 	template<class _Enum>
; 222  : 		error_code(_Enum _Errcode,
; 223  : 			typename enable_if<is_error_code_enum<_Enum>::value,
; 224  : 				void>::type ** = 0)
; 225  : 		: _Myval(0), _Mycat(0)
; 226  : 		{	// construct from enumerated error code
; 227  : 		*this = make_error_code(_Errcode);	// using ADL
; 228  : 		}
; 229  : 
; 230  : 	void assign(int _Val, const error_category& _Cat)
; 231  : 		{	// assign error code and category
; 232  : 		_Myval = _Val;
; 233  : 		_Mycat = &_Cat;
; 234  : 		}
; 235  : 
; 236  : 	template<class _Enum>
; 237  : 		typename enable_if<is_error_code_enum<_Enum>::value,
; 238  : 			error_code>::type& operator=(_Enum _Errcode)
; 239  : 		{	// assign enumerated error code
; 240  : 		*this = make_error_code(_Errcode);	// using ADL
; 241  : 		return (*this);
; 242  : 		}
; 243  : 
; 244  : 	void clear() _NOEXCEPT
; 245  : 		{	// assign non-error
; 246  : 		_Myval = 0;
; 247  : 		_Mycat = &system_category();
; 248  : 		}
; 249  : 
; 250  : 	int value() const
; 251  : 		{	// get error code
; 252  : 		return (_Myval);
; 253  : 		}
; 254  : 
; 255  : 	const error_category& category() const
; 256  : 		{	// get category
; 257  : 		return (*_Mycat);
; 258  : 		}
; 259  : 
; 260  : 	error_condition default_error_condition() const;
; 261  : 
; 262  : 	string message() const
; 263  : 		{	// get name of error code
; 264  : 		return (category().message(value()));
; 265  : 		}
; 266  : 
; 267  : 	_TYPEDEF_BOOL_TYPE;
; 268  : 
; 269  : 	_OPERATOR_BOOL() const _NOEXCEPT
; 270  : 		{	// test for actual error
; 271  : 		return (value() != 0 ? _CONVERTIBLE_TO_TRUE : 0);
; 272  : 		}
; 273  : 
; 274  : 	bool operator!() const _NOEXCEPT
; 275  : 		{	// test for actual error
; 276  : 		return (value() == 0);
; 277  : 		}
; 278  : 
; 279  : 	bool operator==(const error_code& _Right) const _NOEXCEPT
; 280  : 		{	// test if *this == _Right
; 281  : 		return (category() == _Right.category()
; 282  : 			&& value() == _Right.value());
; 283  : 		}
; 284  : 
; 285  : 	bool operator!=(const error_code& _Right) const _NOEXCEPT
; 286  : 		{	// test if *this != _Right
; 287  : 		return (!(*this == _Right));
; 288  : 		}
; 289  : 
; 290  : 	bool operator<(const error_code& _Right) const _NOEXCEPT
; 291  : 		{	// test if *this == _Right
; 292  : 		return (category() < _Right.category()
; 293  : 			|| category() == _Right.category()
; 294  : 				&& value() < _Right.value());
; 295  : 		}
; 296  : 
; 297  : private:
; 298  : 	int _Myval;	// the stored error number
; 299  : 	const error_category *_Mycat;	// pointer to error category
; 300  : 	};
; 301  : 
; 302  : 		// CLASS error_condition
; 303  : class error_condition
; 304  : 	{	// store an abstract error code and category
; 305  : public:
; 306  : 	typedef error_condition _Myt;
; 307  : 
; 308  : 	error_condition() _NOEXCEPT
; 309  : 		: _Myval(0),
; 310  : 			_Mycat(&generic_category())
; 311  : 		{	// construct non-error
; 312  : 		}
; 313  : 
; 314  : 	error_condition(int _Val, const error_category& _Cat) _NOEXCEPT
; 315  : 		: _Myval(_Val), _Mycat(&_Cat)
; 316  : 		{	// construct from error code and category
; 317  : 		}
; 318  : 
; 319  : 	template<class _Enum>
; 320  : 		error_condition(_Enum _Errcode,
; 321  : 			typename enable_if<is_error_condition_enum<_Enum>::value,
; 322  : 				void>::type ** = 0) _NOEXCEPT
; 323  : 		: _Myval(0), _Mycat(0)
; 324  : 		{	// construct from enumerated error code
; 325  : 		*this = make_error_condition(_Errcode);	// using ADL
; 326  : 		}
; 327  : 
; 328  : 	void assign(int _Val, const error_category& _Cat) _NOEXCEPT
; 329  : 		{	// assign error code and category
; 330  : 		_Myval = _Val;
; 331  : 		_Mycat = &_Cat;
; 332  : 		}
; 333  : 
; 334  : 	template<class _Enum>
; 335  : 		typename enable_if<is_error_condition_enum<_Enum>::value,
; 336  : 			error_condition>::type& operator=(_Enum _Errcode) _NOEXCEPT
; 337  : 		{	// assign enumerated error code
; 338  : 		*this = make_error_condition(_Errcode);	// using ADL
; 339  : 		return (*this);
; 340  : 		}
; 341  : 
; 342  : 	void clear() _NOEXCEPT
; 343  : 		{	// assign non-error
; 344  : 		_Myval = 0;
; 345  : 		_Mycat = &generic_category();
; 346  : 		}
; 347  : 
; 348  : 	int value() const _NOEXCEPT
; 349  : 		{	// get error code
; 350  : 		return (_Myval);
; 351  : 		}
; 352  : 
; 353  : 	const error_category& category() const _NOEXCEPT
; 354  : 		{	// get category
; 355  : 		return (*_Mycat);
; 356  : 		}
; 357  : 
; 358  : 	string message() const
; 359  : 		{	// get name of error code
; 360  : 		return (category().message(value()));
; 361  : 		}
; 362  : 
; 363  : 	_TYPEDEF_BOOL_TYPE;
; 364  : 
; 365  : 	_OPERATOR_BOOL() const _NOEXCEPT
; 366  : 		{	// test for actual error
; 367  : 		return (value() != 0 ? _CONVERTIBLE_TO_TRUE : 0);
; 368  : 		}
; 369  : 
; 370  : 	bool operator!() const _NOEXCEPT
; 371  : 		{	// test for actual error
; 372  : 		return (value() == 0);
; 373  : 		}
; 374  : 
; 375  : 	bool operator==(const error_condition& _Right) const _NOEXCEPT
; 376  : 		{	// test if *this == _Right
; 377  : 		return (category() == _Right.category()
; 378  : 			&& value() == _Right.value());

  0001b	75 0e		 jne	 SHORT $LN5@equivalent
  0001d	8b 00		 mov	 eax, DWORD PTR [eax]
  0001f	3b 02		 cmp	 eax, DWORD PTR [edx]
  00021	75 08		 jne	 SHORT $LN5@equivalent

; 409  : 	return (default_error_condition(_Errval) == _Cond);

  00023	b0 01		 mov	 al, 1

; 410  : 	}

  00025	8b e5		 mov	 esp, ebp
  00027	5d		 pop	 ebp
  00028	c2 08 00	 ret	 8
$LN5@equivalent:

; 409  : 	return (default_error_condition(_Errval) == _Cond);

  0002b	32 c0		 xor	 al, al

; 410  : 	}

  0002d	8b e5		 mov	 esp, ebp
  0002f	5d		 pop	 ebp
  00030	c2 08 00	 ret	 8
?equivalent@error_category@std@@UBE_NHABVerror_condition@2@@Z ENDP ; std::error_category::equivalent
_TEXT	ENDS
; Function compile flags: /Ogtp
; File c:\program files (x86)\microsoft visual studio 11.0\vc\include\system_error
;	COMDAT ?equivalent@error_category@std@@UBE_NABVerror_code@2@H@Z
_TEXT	SEGMENT
__Code$ = 8						; size = 4
__Errval$ = 12						; size = 4
?equivalent@error_category@std@@UBE_NABVerror_code@2@H@Z PROC ; std::error_category::equivalent, COMDAT
; _this$ = ecx

; 415  : 	{	// test if conditions same for this category

  00000	55		 push	 ebp
  00001	8b ec		 mov	 ebp, esp

; 185  : 		return (this == &_Right);

  00003	8b 45 08	 mov	 eax, DWORD PTR __Code$[ebp]
  00006	3b 48 04	 cmp	 ecx, DWORD PTR [eax+4]

; 416  : 	return (*this == _Code.category() && _Code.value() == _Errval);

  00009	75 0d		 jne	 SHORT $LN3@equivalent
  0000b	8b 00		 mov	 eax, DWORD PTR [eax]
  0000d	3b 45 0c	 cmp	 eax, DWORD PTR __Errval$[ebp]
  00010	75 06		 jne	 SHORT $LN3@equivalent
  00012	b0 01		 mov	 al, 1

; 417  : 	}

  00014	5d		 pop	 ebp
  00015	c2 08 00	 ret	 8
$LN3@equivalent:

; 416  : 	return (*this == _Code.category() && _Code.value() == _Errval);

  00018	32 c0		 xor	 al, al

; 417  : 	}

  0001a	5d		 pop	 ebp
  0001b	c2 08 00	 ret	 8
?equivalent@error_category@std@@UBE_NABVerror_code@2@H@Z ENDP ; std::error_category::equivalent
_TEXT	ENDS
; Function compile flags: /Ogtp
; File c:\program files (x86)\microsoft visual studio 11.0\vc\include\system_error
;	COMDAT ??0_Generic_error_category@std@@QAE@XZ
_TEXT	SEGMENT
??0_Generic_error_category@std@@QAE@XZ PROC		; std::_Generic_error_category::_Generic_error_category, COMDAT
; _this$ = ecx

; 580  : 	_Generic_error_category()

  00000	c7 01 00 00 00
	00		 mov	 DWORD PTR [ecx], OFFSET ??_7_Generic_error_category@std@@6B@

; 581  : 		{	// default constructor
; 582  : 		}

  00006	8b c1		 mov	 eax, ecx
  00008	c3		 ret	 0
??0_Generic_error_category@std@@QAE@XZ ENDP		; std::_Generic_error_category::_Generic_error_category
_TEXT	ENDS
; Function compile flags: /Ogtp
; File c:\program files (x86)\microsoft visual studio 11.0\vc\include\system_error
;	COMDAT ?name@_Generic_error_category@std@@UBEPBDXZ
_TEXT	SEGMENT
?name@_Generic_error_category@std@@UBEPBDXZ PROC	; std::_Generic_error_category::name, COMDAT
; _this$ = ecx

; 586  : 		return ("generic");

  00000	b8 00 00 00 00	 mov	 eax, OFFSET ??_C@_07DCLBNMLN@generic?$AA@

; 587  : 		}

  00005	c3		 ret	 0
?name@_Generic_error_category@std@@UBEPBDXZ ENDP	; std::_Generic_error_category::name
_TEXT	ENDS
; Function compile flags: /Ogtp
; File c:\program files (x86)\microsoft visual studio 11.0\vc\include\system_error
; File c:\program files (x86)\microsoft visual studio 11.0\vc\include\xstring
; File c:\program files (x86)\microsoft visual studio 11.0\vc\include\system_error
; File c:\program files (x86)\microsoft visual studio 11.0\vc\include\xstring
; File c:\program files (x86)\microsoft visual studio 11.0\vc\include\iosfwd
; File c:\program files (x86)\microsoft visual studio 11.0\vc\include\xstring
; File c:\program files (x86)\microsoft visual studio 11.0\vc\include\system_error
; File c:\program files (x86)\microsoft visual studio 11.0\vc\include\iosfwd
; File c:\program files (x86)\microsoft visual studio 11.0\vc\include\xstring
; File c:\program files (x86)\microsoft visual studio 11.0\vc\include\system_error
;	COMDAT ?message@_Generic_error_category@std@@UBE?AV?$basic_string@DU?$char_traits@D@std@@V?$allocator@D@2@@2@H@Z
_TEXT	SEGMENT
$T1 = -4						; size = 4
___$ReturnUdt$ = 8					; size = 4
__Errcode$ = 12						; size = 4
?message@_Generic_error_category@std@@UBE?AV?$basic_string@DU?$char_traits@D@std@@V?$allocator@D@2@@2@H@Z PROC ; std::_Generic_error_category::message, COMDAT
; _this$ = ecx

; 590  : 		{	// convert to name of error

  00000	55		 push	 ebp
  00001	8b ec		 mov	 ebp, esp
  00003	51		 push	 ecx
  00004	56		 push	 esi

; 591  : 		const char *_Name = _Syserror_map(_Errcode);

  00005	ff 75 0c	 push	 DWORD PTR __Errcode$[ebp]
  00008	c7 45 fc 00 00
	00 00		 mov	 DWORD PTR $T1[ebp], 0
  0000f	ff 15 00 00 00
	00		 call	 DWORD PTR __imp_?_Syserror_map@std@@YAPBDH@Z
; File c:\program files (x86)\microsoft visual studio 11.0\vc\include\xstring

; 2265 : 		this->_Myres = this->_BUF_SIZE - 1;

  00015	8b 75 08	 mov	 esi, DWORD PTR ___$ReturnUdt$[ebp]
; File c:\program files (x86)\microsoft visual studio 11.0\vc\include\system_error

; 591  : 		const char *_Name = _Syserror_map(_Errcode);

  00018	83 c4 04	 add	 esp, 4

; 592  : 		return (string(_Name != 0 ? _Name : "unknown error"));

  0001b	85 c0		 test	 eax, eax
  0001d	ba 00 00 00 00	 mov	 edx, OFFSET ??_C@_0O@BFJCFAAK@unknown?5error?$AA@
  00022	0f 45 d0	 cmovne	 edx, eax
; File c:\program files (x86)\microsoft visual studio 11.0\vc\include\xstring

; 2265 : 		this->_Myres = this->_BUF_SIZE - 1;

  00025	c7 46 14 0f 00
	00 00		 mov	 DWORD PTR [esi+20], 15	; 0000000fH

; 1145 : 		}
; 1146 : 
; 1147 : 	_Myt& assign(size_type _Count, _Elem _Ch)
; 1148 : 		{	// assign _Count * _Ch
; 1149 : 		if (_Count == npos)
; 1150 : 			_Xlen();	// result too long
; 1151 : 
; 1152 : 		if (_Grow(_Count))
; 1153 : 			{	// make room and assign new stuff
; 1154 : 			_Chassign(0, _Count, _Ch);
; 1155 : 			_Eos(_Count);
; 1156 : 			}
; 1157 : 		return (*this);
; 1158 : 		}
; 1159 : 
; 1160 : 	template<class _Iter>
; 1161 : 		typename enable_if<_Is_iterator<_Iter>::value,
; 1162 : 			_Myt&>::type
; 1163 : 		assign(_Iter _First, _Iter _Last)
; 1164 : 		{	// assign [First, _Last), input iterators
; 1165 : 		return (replace(begin(), end(), _First, _Last));
; 1166 : 		}
; 1167 : 
; 1168 : 	_Myt& assign(const_pointer _First, const_pointer _Last)
; 1169 : 		{	// assign [First, _Last), const pointers
; 1170 : 		return (replace(begin(), end(), _First, _Last));
; 1171 : 		}
; 1172 : 
; 1173 : 	_Myt& assign(const_iterator _First, const_iterator _Last)
; 1174 : 		{	// assign [First, _Last), const_iterators
; 1175 : 		return (replace(begin(), end(), _First, _Last));
; 1176 : 		}
; 1177 : 
; 1178 : 	_Myt& insert(size_type _Off, const _Myt& _Right)
; 1179 : 		{	// insert _Right at _Off
; 1180 : 		return (insert(_Off, _Right, 0, npos));
; 1181 : 		}
; 1182 : 
; 1183 : 	_Myt& insert(size_type _Off,
; 1184 : 		const _Myt& _Right, size_type _Roff, size_type _Count)
; 1185 : 		{	// insert _Right [_Roff, _Roff + _Count) at _Off
; 1186 : 		if (this->_Mysize < _Off || _Right.size() < _Roff)
; 1187 : 			_Xran();	// _Off or _Roff off end
; 1188 : 		size_type _Num = _Right.size() - _Roff;
; 1189 : 		if (_Num < _Count)
; 1190 : 			_Count = _Num;	// trim _Count to size
; 1191 : 		if (npos - this->_Mysize <= _Count)
; 1192 : 			_Xlen();	// result too long
; 1193 : 
; 1194 : 		if (0 < _Count && _Grow(_Num = this->_Mysize + _Count))
; 1195 : 			{	// make room and insert new stuff
; 1196 : 			_Traits::move(this->_Myptr() + _Off + _Count,
; 1197 : 				this->_Myptr() + _Off,
; 1198 : 				this->_Mysize - _Off);	// empty out hole
; 1199 : 			if (this == &_Right)
; 1200 : 				_Traits::move(this->_Myptr() + _Off,
; 1201 : 					this->_Myptr() + (_Off < _Roff ? _Roff + _Count : _Roff),
; 1202 : 						_Count);	// substring
; 1203 : 			else
; 1204 : 				_Traits::copy(this->_Myptr() + _Off,
; 1205 : 					_Right._Myptr() + _Roff, _Count);	// fill hole
; 1206 : 			_Eos(_Num);
; 1207 : 			}
; 1208 : 		return (*this);
; 1209 : 		}
; 1210 : 
; 1211 : 	_Myt& insert(size_type _Off,
; 1212 : 		const _Elem *_Ptr, size_type _Count)
; 1213 : 		{	// insert [_Ptr, _Ptr + _Count) at _Off
; 1214 :  #if _ITERATOR_DEBUG_LEVEL == 2
; 1215 : 		if (_Count != 0)
; 1216 : 			_DEBUG_POINTER(_Ptr);
; 1217 :  #endif /* _ITERATOR_DEBUG_LEVEL == 2 */
; 1218 : 
; 1219 : 		if (_Inside(_Ptr))
; 1220 : 			return (insert(_Off, *this,
; 1221 : 				_Ptr - this->_Myptr(), _Count));	// substring
; 1222 : 		if (this->_Mysize < _Off)
; 1223 : 			_Xran();	// _Off off end
; 1224 : 		if (npos - this->_Mysize <= _Count)
; 1225 : 			_Xlen();	// result too long
; 1226 : 		size_type _Num;
; 1227 : 		if (0 < _Count && _Grow(_Num = this->_Mysize + _Count))
; 1228 : 			{	// make room and insert new stuff
; 1229 : 			_Traits::move(this->_Myptr() + _Off + _Count,
; 1230 : 				this->_Myptr() + _Off,
; 1231 : 				this->_Mysize - _Off);	// empty out hole
; 1232 : 			_Traits::copy(this->_Myptr() + _Off, _Ptr, _Count);	// fill hole
; 1233 : 			_Eos(_Num);
; 1234 : 			}
; 1235 : 		return (*this);
; 1236 : 		}
; 1237 : 
; 1238 : 	_Myt& insert(size_type _Off, const _Elem *_Ptr)
; 1239 : 		{	// insert [_Ptr, <null>) at _Off
; 1240 : 		_DEBUG_POINTER(_Ptr);
; 1241 : 		return (insert(_Off, _Ptr, _Traits::length(_Ptr)));
; 1242 : 		}
; 1243 : 
; 1244 : 	_Myt& insert(size_type _Off,
; 1245 : 		size_type _Count, _Elem _Ch)
; 1246 : 		{	// insert _Count * _Ch at _Off
; 1247 : 		if (this->_Mysize < _Off)
; 1248 : 			_Xran();	// _Off off end
; 1249 : 		if (npos - this->_Mysize <= _Count)
; 1250 : 			_Xlen();	// result too long
; 1251 : 		size_type _Num;
; 1252 : 		if (0 < _Count && _Grow(_Num = this->_Mysize + _Count))
; 1253 : 			{	// make room and insert new stuff
; 1254 : 			_Traits::move(this->_Myptr() + _Off + _Count,
; 1255 : 				this->_Myptr() + _Off,
; 1256 : 				this->_Mysize - _Off);	// empty out hole
; 1257 : 			_Chassign(_Off, _Count, _Ch);	// fill hole
; 1258 : 			_Eos(_Num);
; 1259 : 			}
; 1260 : 		return (*this);
; 1261 : 		}
; 1262 : 
; 1263 : 	iterator insert(const_iterator _Where)
; 1264 : 		{	// insert <null> at _Where
; 1265 : 		return (insert(_Where, _Elem()));
; 1266 : 		}
; 1267 : 
; 1268 : 	iterator insert(const_iterator _Where, _Elem _Ch)
; 1269 : 		{	// insert _Ch at _Where
; 1270 : 		size_type _Off = _Pdif(_Where, begin());
; 1271 : 		insert(_Off, 1, _Ch);
; 1272 : 		return (begin() + _Off);
; 1273 : 		}
; 1274 : 
; 1275 : 	iterator insert(const_iterator _Where, size_type _Count, _Elem _Ch)
; 1276 : 		{	// insert _Count * _Elem at _Where
; 1277 : 		size_type _Off = _Pdif(_Where, begin());
; 1278 : 		insert(_Off, _Count, _Ch);
; 1279 : 		return (begin() + _Off);
; 1280 : 		}
; 1281 : 
; 1282 : 	template<class _Iter>
; 1283 : 		typename enable_if<_Is_iterator<_Iter>::value,
; 1284 : 			iterator>::type
; 1285 : 		insert(const_iterator _Where, _Iter _First, _Iter _Last)
; 1286 : 		{	// insert [_First, _Last) at _Where, input iterators
; 1287 : 		size_type _Off = _Pdif(_Where, begin());
; 1288 : 		replace(_Where, _Where, _First, _Last);
; 1289 : 		return (begin() + _Off);
; 1290 : 		}
; 1291 : 
; 1292 : 	iterator insert(const_iterator _Where,
; 1293 : 		const_pointer _First, const_pointer _Last)
; 1294 : 		{	// insert [_First, _Last) at _Where, const pointers
; 1295 : 		size_type _Off = _Pdif(_Where, begin());
; 1296 : 		replace(_Where, _Where, _First, _Last);
; 1297 : 		return (begin() + _Off);
; 1298 : 		}
; 1299 : 
; 1300 : 	iterator insert(const_iterator _Where,
; 1301 : 		const_iterator _First, const_iterator _Last)
; 1302 : 		{	// insert [_First, _Last) at _Where, const_iterators
; 1303 : 		size_type _Off = _Pdif(_Where, begin());
; 1304 : 		replace(_Where, _Where, _First, _Last);
; 1305 : 		return (begin() + _Off);
; 1306 : 		}
; 1307 : 
; 1308 : 	_Myt& erase(size_type _Off = 0)
; 1309 : 		{	// erase elements [_Off, ...)
; 1310 : 		if (this->_Mysize < _Off)
; 1311 : 			_Xran();	// _Off off end
; 1312 : 		_Eos(_Off);
; 1313 : 		return (*this);
; 1314 : 		}
; 1315 : 
; 1316 : 	_Myt& erase(size_type _Off, size_type _Count)
; 1317 : 		{	// erase elements [_Off, _Off + _Count)
; 1318 : 		if (this->_Mysize < _Off)
; 1319 : 			_Xran();	// _Off off end
; 1320 : 		if (this->_Mysize - _Off <= _Count)
; 1321 : 			_Eos(_Off);	// erase elements [_Off, ...)
; 1322 : 		else if (0 < _Count)
; 1323 : 			{	// move elements down
; 1324 : 			value_type *_Ptr = this->_Myptr() + _Off;
; 1325 : 			size_type _Newsize = this->_Mysize - _Count;
; 1326 : 			_Traits::move(_Ptr, _Ptr + _Count, _Newsize - _Off);
; 1327 : 			_Eos(_Newsize);
; 1328 : 			}
; 1329 : 		return (*this);
; 1330 : 		}
; 1331 : 
; 1332 : 	iterator erase(const_iterator _Where)
; 1333 : 		{	// erase element at _Where
; 1334 : 		size_type _Count = _Pdif(_Where, begin());
; 1335 : 		erase(_Count, 1);
; 1336 : 		return (_STRING_ITERATOR(this->_Myptr() + _Count));
; 1337 : 		}
; 1338 : 
; 1339 : 	iterator erase(const_iterator _First, const_iterator _Last)
; 1340 : 		{	// erase substring [_First, _Last)
; 1341 : 		_DEBUG_RANGE(_First, _Last);
; 1342 : 		size_type _Count = _Pdif(_First, begin());
; 1343 : 		erase(_Count, _Pdif(_Last, _First));
; 1344 : 		return (_STRING_ITERATOR(this->_Myptr() + _Count));
; 1345 : 		}
; 1346 : 
; 1347 : 	void clear() _NOEXCEPT
; 1348 : 		{	// erase all
; 1349 : 		_Eos(0);
; 1350 : 		}
; 1351 : 
; 1352 : 	_Myt& replace(size_type _Off, size_type _N0, const _Myt& _Right)
; 1353 : 		{	// replace [_Off, _Off + _N0) with _Right
; 1354 : 		return (replace(_Off, _N0, _Right, 0, npos));
; 1355 : 		}
; 1356 : 
; 1357 : 	_Myt& replace(size_type _Off,
; 1358 : 		size_type _N0, const _Myt& _Right, size_type _Roff, size_type _Count)
; 1359 : 		{	// replace [_Off, _Off + _N0) with _Right [_Roff, _Roff + _Count)
; 1360 : 		if (this->_Mysize < _Off || _Right.size() < _Roff)
; 1361 : 			_Xran();	// _Off or _Roff off end
; 1362 : 		if (this->_Mysize - _Off < _N0)
; 1363 : 			_N0 = this->_Mysize - _Off;	// trim _N0 to size
; 1364 : 		size_type _Num = _Right.size() - _Roff;
; 1365 : 		if (_Num < _Count)
; 1366 : 			_Count = _Num;	// trim _Count to size
; 1367 : 		if (npos - _Count <= this->_Mysize - _N0)
; 1368 : 			_Xlen();	// result too long
; 1369 : 
; 1370 : 		size_type _Nm = this->_Mysize - _N0 - _Off;	// length of kept tail
; 1371 : 		size_type _Newsize = this->_Mysize + _Count - _N0;
; 1372 : 		if (this->_Mysize < _Newsize)
; 1373 : 			_Grow(_Newsize);
; 1374 : 
; 1375 : 		if (this != &_Right)
; 1376 : 			{	// no overlap, just move down and copy in new stuff
; 1377 : 			_Traits::move(this->_Myptr() + _Off + _Count,
; 1378 : 				this->_Myptr() + _Off + _N0, _Nm);	// empty hole
; 1379 : 			_Traits::copy(this->_Myptr() + _Off,
; 1380 : 				_Right._Myptr() + _Roff, _Count);	// fill hole
; 1381 : 			}
; 1382 : 		else if (_Count <= _N0)
; 1383 : 			{	// hole doesn't get larger, just copy in substring
; 1384 : 			_Traits::move(this->_Myptr() + _Off,
; 1385 : 				this->_Myptr() + _Roff, _Count);	// fill hole
; 1386 : 			_Traits::move(this->_Myptr() + _Off + _Count,
; 1387 : 				this->_Myptr() + _Off + _N0, _Nm);	// move tail down
; 1388 : 			}
; 1389 : 		else if (_Roff <= _Off)
; 1390 : 			{	// hole gets larger, substring begins before hole
; 1391 : 			_Traits::move(this->_Myptr() + _Off + _Count,
; 1392 : 				this->_Myptr() + _Off + _N0, _Nm);	// move tail down
; 1393 : 			_Traits::move(this->_Myptr() + _Off,
; 1394 : 				this->_Myptr() + _Roff, _Count);	// fill hole
; 1395 : 			}
; 1396 : 		else if (_Off + _N0 <= _Roff)
; 1397 : 			{	// hole gets larger, substring begins after hole
; 1398 : 			_Traits::move(this->_Myptr() + _Off + _Count,
; 1399 : 				this->_Myptr() + _Off + _N0, _Nm);	// move tail down
; 1400 : 			_Traits::move(this->_Myptr() + _Off,
; 1401 : 				this->_Myptr() + (_Roff + _Count - _N0),
; 1402 : 				_Count);	// fill hole
; 1403 : 			}
; 1404 : 		else
; 1405 : 			{	// hole gets larger, substring begins in hole
; 1406 : 			_Traits::move(this->_Myptr() + _Off,
; 1407 : 				this->_Myptr() + _Roff, _N0);	// fill old hole
; 1408 : 			_Traits::move(this->_Myptr() + _Off + _Count,
; 1409 : 				this->_Myptr() + _Off + _N0, _Nm);	// move tail down
; 1410 : 			_Traits::move(this->_Myptr() + _Off + _N0,
; 1411 : 				this->_Myptr() + _Roff + _Count,
; 1412 : 				_Count - _N0);	// fill rest of new hole
; 1413 : 			}
; 1414 : 
; 1415 : 		_Eos(_Newsize);
; 1416 : 		return (*this);
; 1417 : 		}
; 1418 : 
; 1419 : 	_Myt& replace(size_type _Off,
; 1420 : 		size_type _N0, const _Elem *_Ptr, size_type _Count)
; 1421 : 		{	// replace [_Off, _Off + _N0) with [_Ptr, _Ptr + _Count)
; 1422 :  #if _ITERATOR_DEBUG_LEVEL == 2
; 1423 : 		if (_Count != 0)
; 1424 : 			_DEBUG_POINTER(_Ptr);
; 1425 :  #endif /* _ITERATOR_DEBUG_LEVEL == 2 */
; 1426 : 
; 1427 : 		if (_Inside(_Ptr))
; 1428 : 			return (replace(_Off, _N0, *this,
; 1429 : 				_Ptr - this->_Myptr(),
; 1430 : 				_Count));	// substring, replace carefully
; 1431 : 		if (this->_Mysize < _Off)
; 1432 : 			_Xran();	// _Off off end
; 1433 : 		if (this->_Mysize - _Off < _N0)
; 1434 : 			_N0 = this->_Mysize - _Off;	// trim _N0 to size
; 1435 : 		if (npos - _Count <= this->_Mysize - _N0)
; 1436 : 			_Xlen();	// result too long
; 1437 : 		size_type _Nm = this->_Mysize - _N0 - _Off;
; 1438 : 
; 1439 : 		if (_Count < _N0)
; 1440 : 			_Traits::move(this->_Myptr() + _Off + _Count,
; 1441 : 				this->_Myptr() + _Off + _N0,
; 1442 : 				_Nm);	// smaller hole, move tail up
; 1443 : 		size_type _Num;
; 1444 : 		if ((0 < _Count || 0 < _N0)
; 1445 : 			&& _Grow(_Num = this->_Mysize + _Count - _N0))
; 1446 : 			{	// make room and rearrange
; 1447 : 			if (_N0 < _Count)
; 1448 : 				_Traits::move(this->_Myptr() + _Off + _Count,
; 1449 : 					this->_Myptr() + _Off + _N0, _Nm);	// move tail down
; 1450 : 			_Traits::copy(this->_Myptr() + _Off, _Ptr, _Count);	// fill hole
; 1451 : 			_Eos(_Num);
; 1452 : 			}
; 1453 : 		return (*this);
; 1454 : 		}
; 1455 : 
; 1456 : 	_Myt& replace(size_type _Off, size_type _N0, const _Elem *_Ptr)
; 1457 : 		{	// replace [_Off, _Off + _N0) with [_Ptr, <null>)
; 1458 : 		_DEBUG_POINTER(_Ptr);
; 1459 : 		return (replace(_Off, _N0, _Ptr, _Traits::length(_Ptr)));
; 1460 : 		}
; 1461 : 
; 1462 : 	_Myt& replace(size_type _Off,
; 1463 : 		size_type _N0, size_type _Count, _Elem _Ch)
; 1464 : 		{	// replace [_Off, _Off + _N0) with _Count * _Ch
; 1465 : 		if (this->_Mysize < _Off)
; 1466 : 			_Xran();	// _Off off end
; 1467 : 		if (this->_Mysize - _Off < _N0)
; 1468 : 			_N0 = this->_Mysize - _Off;	// trim _N0 to size
; 1469 : 		if (npos - _Count <= this->_Mysize - _N0)
; 1470 : 			_Xlen();	// result too long
; 1471 : 		size_type _Nm = this->_Mysize - _N0 - _Off;
; 1472 : 
; 1473 : 		if (_Count < _N0)
; 1474 : 			_Traits::move(this->_Myptr() + _Off + _Count,
; 1475 : 				this->_Myptr() + _Off + _N0,
; 1476 : 				_Nm);	// smaller hole, move tail up
; 1477 : 		size_type _Num;
; 1478 : 		if ((0 < _Count || 0 < _N0)
; 1479 : 			&& _Grow(_Num = this->_Mysize + _Count - _N0))
; 1480 : 			{	// make room and rearrange
; 1481 : 			if (_N0 < _Count)
; 1482 : 				_Traits::move(this->_Myptr() + _Off + _Count,
; 1483 : 					this->_Myptr() + _Off + _N0, _Nm);	// move tail down
; 1484 : 			_Chassign(_Off, _Count, _Ch);	// fill hole
; 1485 : 			_Eos(_Num);
; 1486 : 			}
; 1487 : 		return (*this);
; 1488 : 		}
; 1489 : 
; 1490 : 	_Myt& replace(const_iterator _First, const_iterator _Last,
; 1491 : 		const _Myt& _Right)
; 1492 : 		{	// replace [_First, _Last) with _Right
; 1493 : 		return (replace(
; 1494 : 			_Pdif(_First, begin()), _Pdif(_Last, _First), _Right));
; 1495 : 		}
; 1496 : 
; 1497 : 	_Myt& replace(const_iterator _First, const_iterator _Last,
; 1498 : 		const _Elem *_Ptr, size_type _Count)
; 1499 : 		{	// replace [_First, _Last) with [_Ptr, _Ptr + _Count)
; 1500 : 		return (replace(
; 1501 : 			_Pdif(_First, begin()), _Pdif(_Last, _First), _Ptr, _Count));
; 1502 : 		}
; 1503 : 
; 1504 : 	_Myt& replace(const_iterator _First, const_iterator _Last,
; 1505 : 		const _Elem *_Ptr)
; 1506 : 		{	// replace [_First, _Last) with [_Ptr, <null>)
; 1507 : 		return (replace(
; 1508 : 			_Pdif(_First, begin()), _Pdif(_Last, _First), _Ptr));
; 1509 : 		}
; 1510 : 
; 1511 : 	_Myt& replace(const_iterator _First, const_iterator _Last,
; 1512 : 		size_type _Count, _Elem _Ch)
; 1513 : 		{	// replace [_First, _Last) with _Count * _Ch
; 1514 : 		return (replace(
; 1515 : 			_Pdif(_First, begin()), _Pdif(_Last, _First), _Count, _Ch));
; 1516 : 		}
; 1517 : 
; 1518 : 	template<class _Iter>
; 1519 : 		typename enable_if<_Is_iterator<_Iter>::value,
; 1520 : 			_Myt&>::type
; 1521 : 		replace(const_iterator _First, const_iterator _Last,
; 1522 : 			_Iter _First2, _Iter _Last2)
; 1523 : 		{	// replace [_First, _Last) with [_First2, _Last2), input iterators
; 1524 : 		_Myt _Right(_First2, _Last2);
; 1525 : 		replace(_First, _Last, _Right);
; 1526 : 		return (*this);
; 1527 : 		}
; 1528 : 
; 1529 : 	_Myt& replace(const_iterator _First, const_iterator _Last,
; 1530 : 		const_pointer _First2, const_pointer _Last2)
; 1531 : 		{	// replace [_First, _Last) with [_First2, _Last2), const pointers
; 1532 : 		if (_First2 == _Last2)
; 1533 : 			erase(_Pdif(_First, begin()), _Pdif(_Last, _First));
; 1534 : 		else
; 1535 : 			replace(_Pdif(_First, begin()), _Pdif(_Last, _First),
; 1536 : 				&*_First2, _Last2 - _First2);
; 1537 : 		return (*this);
; 1538 : 		}
; 1539 : 
; 1540 : 	_Myt& replace(const_iterator _First, const_iterator _Last,
; 1541 : 		pointer _First2, pointer _Last2)
; 1542 : 		{	// replace [_First, _Last) with [_First2, _Last2), const pointers
; 1543 : 		if (_First2 == _Last2)
; 1544 : 			erase(_Pdif(_First, begin()), _Pdif(_Last, _First));
; 1545 : 		else
; 1546 : 			replace(_Pdif(_First, begin()), _Pdif(_Last, _First),
; 1547 : 				&*_First2, _Last2 - _First2);
; 1548 : 		return (*this);
; 1549 : 		}
; 1550 : 
; 1551 : 	_Myt& replace(const_iterator _First, const_iterator _Last,
; 1552 : 		const_iterator _First2, const_iterator _Last2)
; 1553 : 		{	// replace [_First, _Last) with [_First2, _Last2), const_iterators
; 1554 : 		if (_First2 == _Last2)
; 1555 : 			erase(_Pdif(_First, begin()), _Pdif(_Last, _First));
; 1556 : 		else
; 1557 : 			replace(_Pdif(_First, begin()), _Pdif(_Last, _First),
; 1558 : 				&*_First2, _Last2 - _First2);
; 1559 : 		return (*this);
; 1560 : 		}
; 1561 : 
; 1562 : 	_Myt& replace(const_iterator _First, const_iterator _Last,
; 1563 : 		iterator _First2, iterator _Last2)
; 1564 : 		{	// replace [_First, _Last) with [_First2, _Last2), const_iterators
; 1565 : 		if (_First2 == _Last2)
; 1566 : 			erase(_Pdif(_First, begin()), _Pdif(_Last, _First));
; 1567 : 		else
; 1568 : 			replace(_Pdif(_First, begin()), _Pdif(_Last, _First),
; 1569 : 				&*_First2, _Last2 - _First2);
; 1570 : 		return (*this);
; 1571 : 		}
; 1572 : 
; 1573 : 	iterator begin() _NOEXCEPT
; 1574 : 		{	// return iterator for beginning of mutable sequence
; 1575 : 		return (_STRING_ITERATOR(this->_Myptr()));
; 1576 : 		}
; 1577 : 
; 1578 : 	const_iterator begin() const _NOEXCEPT
; 1579 : 		{	// return iterator for beginning of nonmutable sequence
; 1580 : 		return (_STRING_CONST_ITERATOR(this->_Myptr()));
; 1581 : 		}
; 1582 : 
; 1583 : 	iterator end() _NOEXCEPT
; 1584 : 		{	// return iterator for end of mutable sequence
; 1585 : 		return (_STRING_ITERATOR(this->_Myptr() + this->_Mysize));
; 1586 : 		}
; 1587 : 
; 1588 : 	const_iterator end() const _NOEXCEPT
; 1589 : 		{	// return iterator for end of nonmutable sequence
; 1590 : 		return (_STRING_CONST_ITERATOR(this->_Myptr() + this->_Mysize));
; 1591 : 		}
; 1592 : 
; 1593 : 	reverse_iterator rbegin() _NOEXCEPT
; 1594 : 		{	// return iterator for beginning of reversed mutable sequence
; 1595 : 		return (reverse_iterator(end()));
; 1596 : 		}
; 1597 : 
; 1598 : 	const_reverse_iterator rbegin() const _NOEXCEPT
; 1599 : 		{	// return iterator for beginning of reversed nonmutable sequence
; 1600 : 		return (const_reverse_iterator(end()));
; 1601 : 		}
; 1602 : 
; 1603 : 	reverse_iterator rend() _NOEXCEPT
; 1604 : 		{	// return iterator for end of reversed mutable sequence
; 1605 : 		return (reverse_iterator(begin()));
; 1606 : 		}
; 1607 : 
; 1608 : 	const_reverse_iterator rend() const _NOEXCEPT
; 1609 : 		{	// return iterator for end of reversed nonmutable sequence
; 1610 : 		return (const_reverse_iterator(begin()));
; 1611 : 		}
; 1612 : 
; 1613 :  #if _HAS_CPP0X
; 1614 : 	const_iterator cbegin() const _NOEXCEPT
; 1615 : 		{	// return iterator for beginning of nonmutable sequence
; 1616 : 		return (((const _Myt *)this)->begin());
; 1617 : 		}
; 1618 : 
; 1619 : 	const_iterator cend() const _NOEXCEPT
; 1620 : 		{	// return iterator for end of nonmutable sequence
; 1621 : 		return (((const _Myt *)this)->end());
; 1622 : 		}
; 1623 : 
; 1624 : 	const_reverse_iterator crbegin() const _NOEXCEPT
; 1625 : 		{	// return iterator for beginning of reversed nonmutable sequence
; 1626 : 		return (((const _Myt *)this)->rbegin());
; 1627 : 		}
; 1628 : 
; 1629 : 	const_reverse_iterator crend() const _NOEXCEPT
; 1630 : 		{	// return iterator for end of reversed nonmutable sequence
; 1631 : 		return (((const _Myt *)this)->rend());
; 1632 : 		}
; 1633 : 
; 1634 : 	void shrink_to_fit()
; 1635 : 		{	// reduce capacity
; 1636 : 		if ((size() | this->_ALLOC_MASK) < capacity())
; 1637 : 			{	// worth shrinking, do it
; 1638 : 			_Myt _Tmp(*this);
; 1639 : 			swap(_Tmp);
; 1640 : 			}
; 1641 : 		}
; 1642 :  #endif /* _HAS_CPP0X */
; 1643 : 
; 1644 : 	reference at(size_type _Off)
; 1645 : 		{	// subscript mutable sequence with checking
; 1646 : 		if (this->_Mysize <= _Off)
; 1647 : 			_Xran();	// _Off off end
; 1648 : 		return (this->_Myptr()[_Off]);
; 1649 : 		}
; 1650 : 
; 1651 : 	const_reference at(size_type _Off) const
; 1652 : 		{	// subscript nonmutable sequence with checking
; 1653 : 		if (this->_Mysize <= _Off)
; 1654 : 			_Xran();	// _Off off end
; 1655 : 		return (this->_Myptr()[_Off]);
; 1656 : 		}
; 1657 : 
; 1658 : 	reference operator[](size_type _Off)
; 1659 : 		{	// subscript mutable sequence
; 1660 :  #if _ITERATOR_DEBUG_LEVEL == 2
; 1661 : 		if (this->_Mysize < _Off)	// sic
; 1662 : 			_DEBUG_ERROR("string subscript out of range");
; 1663 : 
; 1664 :  #elif _ITERATOR_DEBUG_LEVEL == 1
; 1665 : 		_SCL_SECURE_VALIDATE_RANGE(_Off <= this->_Mysize);	// sic
; 1666 :  #endif /* _ITERATOR_DEBUG_LEVEL == 2 */
; 1667 : 
; 1668 : 		return (this->_Myptr()[_Off]);
; 1669 : 		}
; 1670 : 
; 1671 : 	const_reference operator[](size_type _Off) const
; 1672 : 		{	// subscript nonmutable sequence
; 1673 :  #if _ITERATOR_DEBUG_LEVEL == 2
; 1674 : 		if (this->_Mysize < _Off)	// sic
; 1675 : 			_DEBUG_ERROR("string subscript out of range");
; 1676 : 
; 1677 :  #elif _ITERATOR_DEBUG_LEVEL == 1
; 1678 : 		_SCL_SECURE_VALIDATE_RANGE(_Off <= this->_Mysize);	// sic
; 1679 :  #endif /* _ITERATOR_DEBUG_LEVEL == 2 */
; 1680 : 
; 1681 : 		return (this->_Myptr()[_Off]);
; 1682 : 		}
; 1683 : 
; 1684 : 	void push_back(_Elem _Ch)
; 1685 : 		{	// insert element at end
; 1686 : 		insert(end(), _Ch);
; 1687 : 		}
; 1688 : 
; 1689 :  #if _HAS_CPP0X
; 1690 : 	void pop_back()
; 1691 : 		{	// erase element at end
; 1692 : 		erase(this->_Mysize - 1);	// throws if _Mysize == 0
; 1693 : 		}
; 1694 : 
; 1695 : 	reference front()
; 1696 : 		{	// return first element of mutable sequence
; 1697 : 		return (*begin());
; 1698 : 		}
; 1699 : 
; 1700 : 	const_reference front() const
; 1701 : 		{	// return first element of nonmutable sequence
; 1702 : 		return (*begin());
; 1703 : 		}
; 1704 : 
; 1705 : 	reference back()
; 1706 : 		{	// return last element of mutable sequence
; 1707 : 		return (*(end() - 1));
; 1708 : 		}
; 1709 : 
; 1710 : 	const_reference back() const
; 1711 : 		{	// return last element of nonmutable sequence
; 1712 : 		return (*(end() - 1));
; 1713 : 		}
; 1714 :  #endif /* _HAS_CPP0X */
; 1715 : 
; 1716 : 	const _Elem *c_str() const _NOEXCEPT
; 1717 : 		{	// return pointer to null-terminated nonmutable array
; 1718 : 		return (this->_Myptr());
; 1719 : 		}
; 1720 : 
; 1721 : 	const _Elem *data() const _NOEXCEPT
; 1722 : 		{	// return pointer to nonmutable array
; 1723 : 		return (c_str());
; 1724 : 		}
; 1725 : 
; 1726 : 	size_type length() const _NOEXCEPT
; 1727 : 		{	// return length of sequence
; 1728 : 		return (this->_Mysize);
; 1729 : 		}
; 1730 : 
; 1731 : 	size_type size() const _NOEXCEPT
; 1732 : 		{	// return length of sequence
; 1733 : 		return (this->_Mysize);
; 1734 : 		}
; 1735 : 
; 1736 : 	size_type max_size() const _NOEXCEPT
; 1737 : 		{	// return maximum possible length of sequence
; 1738 : 		size_type _Num = this->_Getal().max_size();
; 1739 : 		return (_Num <= 1 ? 1 : _Num - 1);
; 1740 : 		}
; 1741 : 
; 1742 : 	void resize(size_type _Newsize)
; 1743 : 		{	// determine new length, padding with null elements as needed
; 1744 : 		resize(_Newsize, _Elem());
; 1745 : 		}
; 1746 : 
; 1747 : 	void resize(size_type _Newsize, _Elem _Ch)
; 1748 : 		{	// determine new length, padding with _Ch elements as needed
; 1749 : 		if (_Newsize <= this->_Mysize)
; 1750 : 			_Eos(_Newsize);
; 1751 : 		else
; 1752 : 			append(_Newsize - this->_Mysize, _Ch);
; 1753 : 		}
; 1754 : 
; 1755 : 	size_type capacity() const _NOEXCEPT
; 1756 : 		{	// return current length of allocated storage
; 1757 : 		return (this->_Myres);
; 1758 : 		}
; 1759 : 
; 1760 : 	void reserve(size_type _Newcap = 0)
; 1761 : 		{	// determine new minimum length of allocated storage
; 1762 : 		if (this->_Mysize <= _Newcap && this->_Myres != _Newcap)
; 1763 : 			{	// change reservation
; 1764 : 			size_type _Size = this->_Mysize;
; 1765 : 			if (_Grow(_Newcap, true))
; 1766 : 				_Eos(_Size);
; 1767 : 			}
; 1768 : 		}
; 1769 : 
; 1770 : 	bool empty() const _NOEXCEPT
; 1771 : 		{	// test if sequence is empty
; 1772 : 		return (this->_Mysize == 0);
; 1773 : 		}
; 1774 : 
; 1775 : 	_SCL_INSECURE_DEPRECATE
; 1776 : 
; 1777 : 	size_type copy(_Elem *_Ptr,
; 1778 : 		size_type _Count, size_type _Off = 0) const
; 1779 : 		{	// copy [_Off, _Off + _Count) to [_Ptr, _Ptr + _Count)
; 1780 :  #if _ITERATOR_DEBUG_LEVEL == 2
; 1781 : 		if (_Count != 0)
; 1782 : 			_DEBUG_POINTER(_Ptr);
; 1783 :  #endif /* _ITERATOR_DEBUG_LEVEL == 2 */
; 1784 : 
; 1785 : 		if (this->_Mysize < _Off)
; 1786 : 			_Xran();	// _Off off end
; 1787 : 		if (this->_Mysize - _Off < _Count)
; 1788 : 			_Count = this->_Mysize - _Off;
; 1789 : 		_Traits::copy(_Ptr, this->_Myptr() + _Off, _Count);
; 1790 : 		return (_Count);
; 1791 : 		}
; 1792 : 
; 1793 : 	size_type _Copy_s(_Elem *_Dest, size_type _Dest_size,
; 1794 : 		size_type _Count, size_type _Off = 0) const
; 1795 : 		{	// copy [_Off, _Off + _Count) to [_Dest, _Dest + _Count)
; 1796 :  #if _ITERATOR_DEBUG_LEVEL == 2
; 1797 : 		if (_Count != 0)
; 1798 : 			_DEBUG_POINTER(_Dest);
; 1799 :  #endif /* _ITERATOR_DEBUG_LEVEL == 2 */
; 1800 : 
; 1801 : 		if (this->_Mysize < _Off)
; 1802 : 			_Xran();	// _Off off end
; 1803 : 		if (this->_Mysize - _Off < _Count)
; 1804 : 			_Count = this->_Mysize - _Off;
; 1805 : 		_Traits::_Copy_s(_Dest, _Dest_size, this->_Myptr() + _Off, _Count);
; 1806 : 		return (_Count);
; 1807 : 		}
; 1808 : 
; 1809 : 	void _Swap_bx(_Myt& _Right)
; 1810 : 		{	// exchange _Bx with _Right._Bx
; 1811 : 		if (this->_BUF_SIZE <= this->_Myres)
; 1812 : 			if (this->_BUF_SIZE <= _Right._Myres)
; 1813 : 				_Swap_adl(this->_Bx._Ptr, _Right._Bx._Ptr);
; 1814 : 			else
; 1815 : 				{	// swap large with small
; 1816 : 				pointer _Ptr = this->_Bx._Ptr;
; 1817 : 				this->_Getal().destroy(&this->_Bx._Ptr);
; 1818 : 				_Traits::copy(this->_Bx._Buf,
; 1819 : 					_Right._Bx._Buf, _Right._Mysize + 1);
; 1820 : 				this->_Getal().construct(&_Right._Bx._Ptr, _Ptr);
; 1821 : 				}
; 1822 : 		else
; 1823 : 			if (_Right._Myres < this->_BUF_SIZE)
; 1824 : 				_STD swap(this->_Bx._Buf, _Right._Bx._Buf);
; 1825 : 			else
; 1826 : 				{	// swap small with large
; 1827 : 				pointer _Ptr = _Right._Bx._Ptr;
; 1828 : 				this->_Getal().destroy(&_Right._Bx._Ptr);
; 1829 : 				_Traits::copy(_Right._Bx._Buf,
; 1830 : 					this->_Bx._Buf, this->_Mysize + 1);
; 1831 : 				this->_Getal().construct(&this->_Bx._Ptr, _Ptr);
; 1832 : 				}
; 1833 : 		}
; 1834 : 
; 1835 : 	void swap(_Myt& _Right)
; 1836 : 		{	// exchange contents with _Right
; 1837 : 		if (this == &_Right)
; 1838 : 			;	// same object, do nothing
; 1839 : 		else if (this->_Getal() == _Right._Getal())
; 1840 : 			{	// same allocator, swap control information
; 1841 : 			this->_Swap_all(_Right);
; 1842 : 			_Swap_bx(_Right);
; 1843 : 			_STD swap(this->_Mysize, _Right._Mysize);
; 1844 : 			_STD swap(this->_Myres, _Right._Myres);
; 1845 : 			}
; 1846 : 
; 1847 :  #if _HAS_CPP0X
; 1848 : 		else if (_Alty::propagate_on_container_swap::value)
; 1849 : 			{	// swap allocators and control information
; 1850 : 			this->_Swap_alloc(_Right);
; 1851 : 			_Swap_bx(_Right);
; 1852 : 			_STD swap(this->_Bx, _Right._Bx);	// pointer bitwise copyable?
; 1853 : 			_STD swap(this->_Mysize, _Right._Mysize);
; 1854 : 			_STD swap(this->_Myres, _Right._Myres);
; 1855 : 			}
; 1856 :  #endif /* _HAS_CPP0X */
; 1857 : 
; 1858 : 		else
; 1859 : 			{	// different allocator, do multiple assigns
; 1860 : 			_Myt _Tmp = *this;
; 1861 : 
; 1862 : 			*this = _Right;
; 1863 : 			_Right = _Tmp;
; 1864 : 			}
; 1865 : 		}
; 1866 : 
; 1867 : 	size_type find(const _Myt& _Right, size_type _Off = 0) const _NOEXCEPT
; 1868 : 		{	// look for _Right beginning at or after _Off
; 1869 : 		return (find(_Right._Myptr(), _Off, _Right.size()));
; 1870 : 		}
; 1871 : 
; 1872 : 	size_type find(const _Elem *_Ptr,
; 1873 : 		size_type _Off, size_type _Count) const
; 1874 : 		{	// look for [_Ptr, _Ptr + _Count) beginning at or after _Off
; 1875 :  #if _ITERATOR_DEBUG_LEVEL == 2
; 1876 : 		if (_Count != 0)
; 1877 : 			_DEBUG_POINTER(_Ptr);
; 1878 :  #endif /* _ITERATOR_DEBUG_LEVEL == 2 */
; 1879 : 
; 1880 : 		if (_Count == 0 && _Off <= this->_Mysize)
; 1881 : 			return (_Off);	// null string always matches (if inside string)
; 1882 : 
; 1883 : 		size_type _Nm;
; 1884 : 		if (_Off < this->_Mysize && _Count <= (_Nm = this->_Mysize - _Off))
; 1885 : 			{	// room for match, look for it
; 1886 : 			const _Elem *_Uptr, *_Vptr;
; 1887 : 			for (_Nm -= _Count - 1, _Vptr = this->_Myptr() + _Off;
; 1888 : 				(_Uptr = _Traits::find(_Vptr, _Nm, *_Ptr)) != 0;
; 1889 : 				_Nm -= _Uptr - _Vptr + 1, _Vptr = _Uptr + 1)
; 1890 : 				if (_Traits::compare(_Uptr, _Ptr, _Count) == 0)
; 1891 : 					return (_Uptr - this->_Myptr());	// found a match
; 1892 : 			}
; 1893 : 
; 1894 : 		return (npos);	// no match
; 1895 : 		}
; 1896 : 
; 1897 : 	size_type find(const _Elem *_Ptr, size_type _Off = 0) const
; 1898 : 		{	// look for [_Ptr, <null>) beginning at or after _Off
; 1899 : 		_DEBUG_POINTER(_Ptr);
; 1900 : 		return (find(_Ptr, _Off, _Traits::length(_Ptr)));
; 1901 : 		}
; 1902 : 
; 1903 : 	size_type find(_Elem _Ch, size_type _Off = 0) const
; 1904 : 		{	// look for _Ch at or after _Off
; 1905 : 		return (find((const _Elem *)&_Ch, _Off, 1));
; 1906 : 		}
; 1907 : 
; 1908 : 	size_type rfind(const _Myt& _Right, size_type _Off = npos) const _NOEXCEPT
; 1909 : 		{	// look for _Right beginning before _Off
; 1910 : 		return (rfind(_Right._Myptr(), _Off, _Right.size()));
; 1911 : 		}
; 1912 : 
; 1913 : 	size_type rfind(const _Elem *_Ptr,
; 1914 : 		size_type _Off, size_type _Count) const
; 1915 : 		{	// look for [_Ptr, _Ptr + _Count) beginning before _Off
; 1916 :  #if _ITERATOR_DEBUG_LEVEL == 2
; 1917 : 		if (_Count != 0)
; 1918 : 			_DEBUG_POINTER(_Ptr);
; 1919 :  #endif /* _ITERATOR_DEBUG_LEVEL == 2 */
; 1920 : 
; 1921 : 		if (_Count == 0)
; 1922 : 			return (_Off < this->_Mysize ? _Off
; 1923 : 				: this->_Mysize);	// null always matches
; 1924 : 		if (_Count <= this->_Mysize)
; 1925 : 			{	// room for match, look for it
; 1926 : 			const _Elem *_Uptr = this->_Myptr() +
; 1927 : 				(_Off < this->_Mysize - _Count ? _Off
; 1928 : 					: this->_Mysize - _Count);
; 1929 : 			for (; ; --_Uptr)
; 1930 : 				if (_Traits::eq(*_Uptr, *_Ptr)
; 1931 : 					&& _Traits::compare(_Uptr, _Ptr, _Count) == 0)
; 1932 : 					return (_Uptr - this->_Myptr());	// found a match
; 1933 : 				else if (_Uptr == this->_Myptr())
; 1934 : 					break;	// at beginning, no more chance for match
; 1935 : 			}
; 1936 : 
; 1937 : 		return (npos);	// no match
; 1938 : 		}
; 1939 : 
; 1940 : 	size_type rfind(const _Elem *_Ptr, size_type _Off = npos) const
; 1941 : 		{	// look for [_Ptr, <null>) beginning before _Off
; 1942 : 		_DEBUG_POINTER(_Ptr);
; 1943 : 		return (rfind(_Ptr, _Off, _Traits::length(_Ptr)));
; 1944 : 		}
; 1945 : 
; 1946 : 	size_type rfind(_Elem _Ch, size_type _Off = npos) const
; 1947 : 		{	// look for _Ch before _Off
; 1948 : 		return (rfind((const _Elem *)&_Ch, _Off, 1));
; 1949 : 		}
; 1950 : 
; 1951 : 	size_type find_first_of(const _Myt& _Right,
; 1952 : 		size_type _Off = 0) const _NOEXCEPT
; 1953 : 		{	// look for one of _Right at or after _Off
; 1954 : 		return (find_first_of(_Right._Myptr(), _Off, _Right.size()));
; 1955 : 		}
; 1956 : 
; 1957 : 	size_type find_first_of(const _Elem *_Ptr,
; 1958 : 		size_type _Off, size_type _Count) const
; 1959 : 		{	// look for one of [_Ptr, _Ptr + _Count) at or after _Off
; 1960 :  #if _ITERATOR_DEBUG_LEVEL == 2
; 1961 : 		if (_Count != 0)
; 1962 : 			_DEBUG_POINTER(_Ptr);
; 1963 :  #endif /* _ITERATOR_DEBUG_LEVEL == 2 */
; 1964 : 
; 1965 : 		if (0 < _Count && _Off < this->_Mysize)
; 1966 : 			{	// room for match, look for it
; 1967 : 			const _Elem *const _Vptr = this->_Myptr() + this->_Mysize;
; 1968 : 			for (const _Elem *_Uptr = this->_Myptr() + _Off;
; 1969 : 				_Uptr < _Vptr; ++_Uptr)
; 1970 : 				if (_Traits::find(_Ptr, _Count, *_Uptr) != 0)
; 1971 : 					return (_Uptr - this->_Myptr());	// found a match
; 1972 : 			}
; 1973 : 
; 1974 : 		return (npos);	// no match
; 1975 : 		}
; 1976 : 
; 1977 : 	size_type find_first_of(const _Elem *_Ptr,
; 1978 : 		size_type _Off = 0) const
; 1979 : 		{	// look for one of [_Ptr, <null>) at or after _Off
; 1980 : 		_DEBUG_POINTER(_Ptr);
; 1981 : 		return (find_first_of(_Ptr, _Off, _Traits::length(_Ptr)));
; 1982 : 		}
; 1983 : 
; 1984 : 	size_type find_first_of(_Elem _Ch,
; 1985 : 		size_type _Off = 0) const
; 1986 : 		{	// look for _Ch at or after _Off
; 1987 : 		return (find((const _Elem *)&_Ch, _Off, 1));
; 1988 : 		}
; 1989 : 
; 1990 : 	size_type find_last_of(const _Myt& _Right,
; 1991 : 		size_type _Off = npos) const _NOEXCEPT
; 1992 : 		{	// look for one of _Right before _Off
; 1993 : 		return (find_last_of(_Right._Myptr(), _Off, _Right.size()));
; 1994 : 		}
; 1995 : 
; 1996 : 	size_type find_last_of(const _Elem *_Ptr,
; 1997 : 		size_type _Off, size_type _Count) const
; 1998 : 		{	// look for one of [_Ptr, _Ptr + _Count) before _Off
; 1999 :  #if _ITERATOR_DEBUG_LEVEL == 2
; 2000 : 		if (_Count != 0)
; 2001 : 			_DEBUG_POINTER(_Ptr);
; 2002 :  #endif /* _ITERATOR_DEBUG_LEVEL == 2 */
; 2003 : 
; 2004 : 		if (0 < _Count && 0 < this->_Mysize)
; 2005 : 			{	// worth searching, do it
; 2006 : 			const _Elem *_Uptr = this->_Myptr()
; 2007 : 				+ (_Off < this->_Mysize ? _Off : this->_Mysize - 1);
; 2008 : 			for (; ; --_Uptr)
; 2009 : 				if (_Traits::find(_Ptr, _Count, *_Uptr) != 0)
; 2010 : 					return (_Uptr - this->_Myptr());	// found a match
; 2011 : 				else if (_Uptr == this->_Myptr())
; 2012 : 					break;	// at beginning, no more chance for match
; 2013 : 			}
; 2014 : 
; 2015 : 		return (npos);	// no match
; 2016 : 		}
; 2017 : 
; 2018 : 	size_type find_last_of(const _Elem *_Ptr,
; 2019 : 		size_type _Off = npos) const
; 2020 : 		{	// look for one of [_Ptr, <null>) before _Off
; 2021 : 		_DEBUG_POINTER(_Ptr);
; 2022 : 		return (find_last_of(_Ptr, _Off, _Traits::length(_Ptr)));
; 2023 : 		}
; 2024 : 
; 2025 : 	size_type find_last_of(_Elem _Ch,
; 2026 : 		size_type _Off = npos) const
; 2027 : 		{	// look for _Ch before _Off
; 2028 : 		return (rfind((const _Elem *)&_Ch, _Off, 1));
; 2029 : 		}
; 2030 : 
; 2031 : 	size_type find_first_not_of(const _Myt& _Right,
; 2032 : 		size_type _Off = 0) const _NOEXCEPT
; 2033 : 		{	// look for none of _Right at or after _Off
; 2034 : 		return (find_first_not_of(_Right._Myptr(), _Off,
; 2035 : 			_Right.size()));
; 2036 : 		}
; 2037 : 
; 2038 : 	size_type find_first_not_of(const _Elem *_Ptr,
; 2039 : 		size_type _Off, size_type _Count) const
; 2040 : 		{	// look for none of [_Ptr, _Ptr + _Count) at or after _Off
; 2041 :  #if _ITERATOR_DEBUG_LEVEL == 2
; 2042 : 		if (_Count != 0)
; 2043 : 			_DEBUG_POINTER(_Ptr);
; 2044 :  #endif /* _ITERATOR_DEBUG_LEVEL == 2 */
; 2045 : 
; 2046 : 		if (_Off < this->_Mysize)
; 2047 : 			{	// room for match, look for it
; 2048 : 			const _Elem *const _Vptr = this->_Myptr() + this->_Mysize;
; 2049 : 			for (const _Elem *_Uptr = this->_Myptr() + _Off;
; 2050 : 				_Uptr < _Vptr; ++_Uptr)
; 2051 : 				if (_Traits::find(_Ptr, _Count, *_Uptr) == 0)
; 2052 : 					return (_Uptr - this->_Myptr());
; 2053 : 			}
; 2054 : 		return (npos);
; 2055 : 		}
; 2056 : 
; 2057 : 	size_type find_first_not_of(const _Elem *_Ptr,
; 2058 : 		size_type _Off = 0) const
; 2059 : 		{	// look for one of [_Ptr, <null>) at or after _Off
; 2060 : 		_DEBUG_POINTER(_Ptr);
; 2061 : 		return (find_first_not_of(_Ptr, _Off, _Traits::length(_Ptr)));
; 2062 : 		}
; 2063 : 
; 2064 : 	size_type find_first_not_of(_Elem _Ch,
; 2065 : 		size_type _Off = 0) const
; 2066 : 		{	// look for non _Ch at or after _Off
; 2067 : 		return (find_first_not_of((const _Elem *)&_Ch, _Off, 1));
; 2068 : 		}
; 2069 : 
; 2070 : 	size_type find_last_not_of(const _Myt& _Right,
; 2071 : 		size_type _Off = npos) const _NOEXCEPT
; 2072 : 		{	// look for none of _Right before _Off
; 2073 : 		return (find_last_not_of(_Right._Myptr(), _Off, _Right.size()));
; 2074 : 		}
; 2075 : 
; 2076 : 	size_type find_last_not_of(const _Elem *_Ptr,
; 2077 : 		size_type _Off, size_type _Count) const
; 2078 : 		{	// look for none of [_Ptr, _Ptr + _Count) before _Off
; 2079 :  #if _ITERATOR_DEBUG_LEVEL == 2
; 2080 : 		if (_Count != 0)
; 2081 : 			_DEBUG_POINTER(_Ptr);
; 2082 :  #endif /* _ITERATOR_DEBUG_LEVEL == 2 */
; 2083 : 
; 2084 : 		if (0 < this->_Mysize)
; 2085 : 			{	// worth searching, do it
; 2086 : 			const _Elem *_Uptr = this->_Myptr()
; 2087 : 				+ (_Off < this->_Mysize ? _Off : this->_Mysize - 1);
; 2088 : 			for (; ; --_Uptr)
; 2089 : 				if (_Traits::find(_Ptr, _Count, *_Uptr) == 0)
; 2090 : 					return (_Uptr - this->_Myptr());
; 2091 : 				else if (_Uptr == this->_Myptr())
; 2092 : 					break;
; 2093 : 			}
; 2094 : 		return (npos);
; 2095 : 		}
; 2096 : 
; 2097 : 	size_type find_last_not_of(const _Elem *_Ptr,
; 2098 : 		size_type _Off = npos) const
; 2099 : 		{	// look for none of [_Ptr, <null>) before _Off
; 2100 : 		_DEBUG_POINTER(_Ptr);
; 2101 : 		return (find_last_not_of(_Ptr, _Off, _Traits::length(_Ptr)));
; 2102 : 		}
; 2103 : 
; 2104 : 	size_type find_last_not_of(_Elem _Ch,
; 2105 : 		size_type _Off = npos) const
; 2106 : 		{	// look for non _Ch before _Off
; 2107 : 		return (find_last_not_of((const _Elem *)&_Ch, _Off, 1));
; 2108 : 		}
; 2109 : 
; 2110 : 	_Myt substr(size_type _Off = 0, size_type _Count = npos) const
; 2111 : 		{	// return [_Off, _Off + _Count) as new string
; 2112 : 		return (_Myt(*this, _Off, _Count, get_allocator()));
; 2113 : 		}
; 2114 : 
; 2115 : 	int compare(const _Myt& _Right) const _NOEXCEPT
; 2116 : 		{	// compare [0, _Mysize) with _Right
; 2117 : 		return (compare(0, this->_Mysize, _Right._Myptr(), _Right.size()));
; 2118 : 		}
; 2119 : 
; 2120 : 	int compare(size_type _Off, size_type _N0,
; 2121 : 		const _Myt& _Right) const
; 2122 : 		{	// compare [_Off, _Off + _N0) with _Right
; 2123 : 		return (compare(_Off, _N0, _Right, 0, npos));
; 2124 : 		}
; 2125 : 
; 2126 : 	int compare(size_type _Off,
; 2127 : 		size_type _N0, const _Myt& _Right,
; 2128 : 		size_type _Roff, size_type _Count) const
; 2129 : 		{	// compare [_Off, _Off + _N0) with _Right [_Roff, _Roff + _Count)
; 2130 : 		if (_Right.size() < _Roff)
; 2131 : 			_Xran();	// _Off off end
; 2132 : 		if (_Right._Mysize - _Roff < _Count)
; 2133 : 			_Count = _Right._Mysize - _Roff;	// trim _Count to size
; 2134 : 		return (compare(_Off, _N0, _Right._Myptr() + _Roff, _Count));
; 2135 : 		}
; 2136 : 
; 2137 : 	int compare(const _Elem *_Ptr) const
; 2138 : 		{	// compare [0, _Mysize) with [_Ptr, <null>)
; 2139 : 		_DEBUG_POINTER(_Ptr);
; 2140 : 		return (compare(0, this->_Mysize, _Ptr, _Traits::length(_Ptr)));
; 2141 : 		}
; 2142 : 
; 2143 : 	int compare(size_type _Off, size_type _N0, const _Elem *_Ptr) const
; 2144 : 		{	// compare [_Off, _Off + _N0) with [_Ptr, <null>)
; 2145 : 		_DEBUG_POINTER(_Ptr);
; 2146 : 		return (compare(_Off, _N0, _Ptr, _Traits::length(_Ptr)));
; 2147 : 		}
; 2148 : 
; 2149 : 	int compare(size_type _Off,
; 2150 : 		size_type _N0, const _Elem *_Ptr, size_type _Count) const
; 2151 : 		{	// compare [_Off, _Off + _N0) with [_Ptr, _Ptr + _Count)
; 2152 :  #if _ITERATOR_DEBUG_LEVEL == 2
; 2153 : 		if (_Count != 0)
; 2154 : 			_DEBUG_POINTER(_Ptr);
; 2155 :  #endif /* _ITERATOR_DEBUG_LEVEL == 2 */
; 2156 : 
; 2157 : 		if (this->_Mysize < _Off)
; 2158 : 			_Xran();	// _Off off end
; 2159 : 		if (this->_Mysize - _Off < _N0)
; 2160 : 			_N0 = this->_Mysize - _Off;	// trim _N0 to size
; 2161 : 
; 2162 : 		size_type _Ans = _Traits::compare(this->_Myptr() + _Off, _Ptr,
; 2163 : 			_N0 < _Count ? _N0 : _Count);
; 2164 : 		return (_Ans != 0 ? (int)_Ans : _N0 < _Count ? -1
; 2165 : 			: _N0 == _Count ? 0 : +1);
; 2166 : 		}
; 2167 : 
; 2168 : 	allocator_type get_allocator() const _NOEXCEPT
; 2169 : 		{	// return allocator object for values
; 2170 : 		return (this->_Getal());
; 2171 : 		}
; 2172 : 
; 2173 : 	void _Chassign(size_type _Off, size_type _Count, _Elem _Ch)
; 2174 : 		{	// assign _Count copies of _Ch beginning at _Off
; 2175 : 		if (_Count == 1)
; 2176 : 			_Traits::assign(*(this->_Myptr() + _Off), _Ch);
; 2177 : 		else
; 2178 : 			_Traits::assign(this->_Myptr() + _Off, _Count, _Ch);
; 2179 : 		}
; 2180 : 
; 2181 : 	void _Copy(size_type _Newsize, size_type _Oldlen)
; 2182 : 		{	// copy _Oldlen elements to newly allocated buffer
; 2183 : 		size_type _Newres = _Newsize | this->_ALLOC_MASK;
; 2184 : 		if (max_size() < _Newres)
; 2185 : 			_Newres = _Newsize;	// undo roundup if too big
; 2186 : 		else if (this->_Myres / 2 <= _Newres / 3)
; 2187 : 			;
; 2188 : 		else if (this->_Myres <= max_size() - this->_Myres / 2)
; 2189 : 			_Newres = this->_Myres
; 2190 : 				+ this->_Myres / 2;	// grow exponentially if possible
; 2191 : 		else
; 2192 : 			_Newres = max_size();	// settle for max_size()
; 2193 : 
; 2194 : 		_Elem *_Ptr;
; 2195 : 		_TRY_BEGIN
; 2196 : 			_Ptr = this->_Getal().allocate(_Newres + 1);
; 2197 : 		_CATCH_ALL
; 2198 : 			_Newres = _Newsize;	// allocation failed, undo roundup and retry
; 2199 : 			_TRY_BEGIN
; 2200 : 				_Ptr = this->_Getal().allocate(_Newres + 1);
; 2201 : 			_CATCH_ALL
; 2202 : 			_Tidy(true);	// failed again, discard storage and reraise
; 2203 : 			_RERAISE;
; 2204 : 			_CATCH_END
; 2205 : 		_CATCH_END
; 2206 : 
; 2207 : 		if (0 < _Oldlen)
; 2208 : 			_Traits::copy(_Ptr, this->_Myptr(),
; 2209 : 				_Oldlen);	// copy existing elements
; 2210 : 		_Tidy(true);
; 2211 : 		this->_Getal().construct(&this->_Bx._Ptr, _Ptr);
; 2212 : 		this->_Myres = _Newres;
; 2213 : 		_Eos(_Oldlen);
; 2214 : 		}
; 2215 : 
; 2216 : 	void _Eos(size_type _Newsize)
; 2217 : 		{	// set new length and null terminator
; 2218 : 		_Traits::assign(this->_Myptr()[this->_Mysize = _Newsize], _Elem());

  0002c	c7 46 10 00 00
	00 00		 mov	 DWORD PTR [esi+16], 0
; File c:\program files (x86)\microsoft visual studio 11.0\vc\include\iosfwd

; 564  : 		_Left = _Right;

  00033	c6 06 00	 mov	 BYTE PTR [esi], 0

; 523  : 			: _CSTD strlen(_First));

  00036	80 3a 00	 cmp	 BYTE PTR [edx], 0
  00039	75 14		 jne	 SHORT $LN47@message
  0003b	33 c9		 xor	 ecx, ecx
; File c:\program files (x86)\microsoft visual studio 11.0\vc\include\xstring

; 1144 : 		return (assign(_Ptr, _Traits::length(_Ptr)));

  0003d	51		 push	 ecx
  0003e	52		 push	 edx
  0003f	8b ce		 mov	 ecx, esi
  00041	e8 00 00 00 00	 call	 ?assign@?$basic_string@DU?$char_traits@D@std@@V?$allocator@D@2@@std@@QAEAAV12@PBDI@Z ; std::basic_string<char,std::char_traits<char>,std::allocator<char> >::assign
; File c:\program files (x86)\microsoft visual studio 11.0\vc\include\system_error

; 592  : 		return (string(_Name != 0 ? _Name : "unknown error"));

  00046	8b c6		 mov	 eax, esi
  00048	5e		 pop	 esi

; 593  : 		}

  00049	8b e5		 mov	 esp, ebp
  0004b	5d		 pop	 ebp
  0004c	c2 08 00	 ret	 8
$LN47@message:
; File c:\program files (x86)\microsoft visual studio 11.0\vc\include\iosfwd

; 523  : 			: _CSTD strlen(_First));

  0004f	8b ca		 mov	 ecx, edx
  00051	57		 push	 edi
  00052	8d 79 01	 lea	 edi, DWORD PTR [ecx+1]
$LL49@message:
  00055	8a 01		 mov	 al, BYTE PTR [ecx]
  00057	41		 inc	 ecx
  00058	84 c0		 test	 al, al
  0005a	75 f9		 jne	 SHORT $LL49@message
  0005c	2b cf		 sub	 ecx, edi
  0005e	5f		 pop	 edi
; File c:\program files (x86)\microsoft visual studio 11.0\vc\include\xstring

; 1144 : 		return (assign(_Ptr, _Traits::length(_Ptr)));

  0005f	51		 push	 ecx
  00060	52		 push	 edx
  00061	8b ce		 mov	 ecx, esi
  00063	e8 00 00 00 00	 call	 ?assign@?$basic_string@DU?$char_traits@D@std@@V?$allocator@D@2@@std@@QAEAAV12@PBDI@Z ; std::basic_string<char,std::char_traits<char>,std::allocator<char> >::assign
; File c:\program files (x86)\microsoft visual studio 11.0\vc\include\system_error

; 592  : 		return (string(_Name != 0 ? _Name : "unknown error"));

  00068	8b c6		 mov	 eax, esi
  0006a	5e		 pop	 esi

; 593  : 		}

  0006b	8b e5		 mov	 esp, ebp
  0006d	5d		 pop	 ebp
  0006e	c2 08 00	 ret	 8
?message@_Generic_error_category@std@@UBE?AV?$basic_string@DU?$char_traits@D@std@@V?$allocator@D@2@@2@H@Z ENDP ; std::_Generic_error_category::message
_TEXT	ENDS
; Function compile flags: /Ogtp
; File c:\program files (x86)\microsoft visual studio 11.0\vc\include\system_error
;	COMDAT ??_G_Generic_error_category@std@@UAEPAXI@Z
_TEXT	SEGMENT
___flags$ = 8						; size = 4
??_G_Generic_error_category@std@@UAEPAXI@Z PROC		; std::_Generic_error_category::`scalar deleting destructor', COMDAT
; _this$ = ecx
  00000	55		 push	 ebp
  00001	8b ec		 mov	 ebp, esp
  00003	f6 45 08 01	 test	 BYTE PTR ___flags$[ebp], 1
  00007	56		 push	 esi
  00008	8b f1		 mov	 esi, ecx

; 167  : 		{	// destroy the object

  0000a	c7 06 00 00 00
	00		 mov	 DWORD PTR [esi], OFFSET ??_7error_category@std@@6B@
  00010	74 0a		 je	 SHORT $LN8@scalar
  00012	56		 push	 esi
  00013	ff 15 00 00 00
	00		 call	 DWORD PTR __imp_??3@YAXPAX@Z
  00019	83 c4 04	 add	 esp, 4
$LN8@scalar:
  0001c	8b c6		 mov	 eax, esi
  0001e	5e		 pop	 esi
  0001f	5d		 pop	 ebp
  00020	c2 04 00	 ret	 4
??_G_Generic_error_category@std@@UAEPAXI@Z ENDP		; std::_Generic_error_category::`scalar deleting destructor'
_TEXT	ENDS
; Function compile flags: /Ogtp
; File c:\program files (x86)\microsoft visual studio 11.0\vc\include\system_error
;	COMDAT ??1_Generic_error_category@std@@UAE@XZ
_TEXT	SEGMENT
??1_Generic_error_category@std@@UAE@XZ PROC		; std::_Generic_error_category::~_Generic_error_category, COMDAT
; _this$ = ecx

; 167  : 		{	// destroy the object

  00000	c7 01 00 00 00
	00		 mov	 DWORD PTR [ecx], OFFSET ??_7error_category@std@@6B@
  00006	c3		 ret	 0
??1_Generic_error_category@std@@UAE@XZ ENDP		; std::_Generic_error_category::~_Generic_error_category
_TEXT	ENDS
; Function compile flags: /Ogtp
; File c:\program files (x86)\microsoft visual studio 11.0\vc\include\system_error
;	COMDAT ??0_Iostream_error_category@std@@QAE@XZ
_TEXT	SEGMENT
??0_Iostream_error_category@std@@QAE@XZ PROC		; std::_Iostream_error_category::_Iostream_error_category, COMDAT
; _this$dead$ = ecx

; 601  : 	_Iostream_error_category()

  00000	c7 05 00 00 00
	00 00 00 00 00	 mov	 DWORD PTR ?_Iostream_object@?$_Error_objects@H@std@@2V_Iostream_error_category@2@A, OFFSET ??_7_Iostream_error_category@std@@6B@ ; std::_Error_objects<int>::_Iostream_object

; 602  : 		{	// default constructor
; 603  : 		}

  0000a	b8 00 00 00 00	 mov	 eax, OFFSET ?_Iostream_object@?$_Error_objects@H@std@@2V_Iostream_error_category@2@A ; std::_Error_objects<int>::_Iostream_object
  0000f	c3		 ret	 0
??0_Iostream_error_category@std@@QAE@XZ ENDP		; std::_Iostream_error_category::_Iostream_error_category
_TEXT	ENDS
; Function compile flags: /Ogtp
; File c:\program files (x86)\microsoft visual studio 11.0\vc\include\system_error
;	COMDAT ?name@_Iostream_error_category@std@@UBEPBDXZ
_TEXT	SEGMENT
?name@_Iostream_error_category@std@@UBEPBDXZ PROC	; std::_Iostream_error_category::name, COMDAT
; _this$ = ecx

; 607  : 		return ("iostream");

  00000	b8 00 00 00 00	 mov	 eax, OFFSET ??_C@_08LLGCOLLL@iostream?$AA@

; 608  : 		}

  00005	c3		 ret	 0
?name@_Iostream_error_category@std@@UBEPBDXZ ENDP	; std::_Iostream_error_category::name
_TEXT	ENDS
; Function compile flags: /Ogtp
; File c:\program files (x86)\microsoft visual studio 11.0\vc\include\system_error
; File c:\program files (x86)\microsoft visual studio 11.0\vc\include\xstring
; File c:\program files (x86)\microsoft visual studio 11.0\vc\include\system_error
; File c:\program files (x86)\microsoft visual studio 11.0\vc\include\xstring
; File c:\program files (x86)\microsoft visual studio 11.0\vc\include\iosfwd
; File c:\program files (x86)\microsoft visual studio 11.0\vc\include\xstring
; File c:\program files (x86)\microsoft visual studio 11.0\vc\include\system_error
;	COMDAT ?message@_Iostream_error_category@std@@UBE?AV?$basic_string@DU?$char_traits@D@std@@V?$allocator@D@2@@2@H@Z
_TEXT	SEGMENT
$T1 = -4						; size = 4
___$ReturnUdt$ = 8					; size = 4
__Errcode$ = 12						; size = 4
?message@_Iostream_error_category@std@@UBE?AV?$basic_string@DU?$char_traits@D@std@@V?$allocator@D@2@@2@H@Z PROC ; std::_Iostream_error_category::message, COMDAT
; _this$ = ecx

; 611  : 		{	// convert to name of error

  00000	55		 push	 ebp
  00001	8b ec		 mov	 ebp, esp
  00003	51		 push	 ecx

; 612  : 		if (_Errcode == (int)io_errc::stream)

  00004	8b 45 0c	 mov	 eax, DWORD PTR __Errcode$[ebp]
  00007	56		 push	 esi
; File c:\program files (x86)\microsoft visual studio 11.0\vc\include\xstring

; 2265 : 		this->_Myres = this->_BUF_SIZE - 1;

  00008	8b 75 08	 mov	 esi, DWORD PTR ___$ReturnUdt$[ebp]
  0000b	c7 45 fc 00 00
	00 00		 mov	 DWORD PTR $T1[ebp], 0
; File c:\program files (x86)\microsoft visual studio 11.0\vc\include\system_error

; 612  : 		if (_Errcode == (int)io_errc::stream)

  00012	83 f8 01	 cmp	 eax, 1
  00015	75 28		 jne	 SHORT $LN2@message
; File c:\program files (x86)\microsoft visual studio 11.0\vc\include\xstring

; 1144 : 		return (assign(_Ptr, _Traits::length(_Ptr)));

  00017	6a 15		 push	 21			; 00000015H

; 2265 : 		this->_Myres = this->_BUF_SIZE - 1;

  00019	c7 46 14 0f 00
	00 00		 mov	 DWORD PTR [esi+20], 15	; 0000000fH

; 1145 : 		}
; 1146 : 
; 1147 : 	_Myt& assign(size_type _Count, _Elem _Ch)
; 1148 : 		{	// assign _Count * _Ch
; 1149 : 		if (_Count == npos)
; 1150 : 			_Xlen();	// result too long
; 1151 : 
; 1152 : 		if (_Grow(_Count))
; 1153 : 			{	// make room and assign new stuff
; 1154 : 			_Chassign(0, _Count, _Ch);
; 1155 : 			_Eos(_Count);
; 1156 : 			}
; 1157 : 		return (*this);
; 1158 : 		}
; 1159 : 
; 1160 : 	template<class _Iter>
; 1161 : 		typename enable_if<_Is_iterator<_Iter>::value,
; 1162 : 			_Myt&>::type
; 1163 : 		assign(_Iter _First, _Iter _Last)
; 1164 : 		{	// assign [First, _Last), input iterators
; 1165 : 		return (replace(begin(), end(), _First, _Last));
; 1166 : 		}
; 1167 : 
; 1168 : 	_Myt& assign(const_pointer _First, const_pointer _Last)
; 1169 : 		{	// assign [First, _Last), const pointers
; 1170 : 		return (replace(begin(), end(), _First, _Last));
; 1171 : 		}
; 1172 : 
; 1173 : 	_Myt& assign(const_iterator _First, const_iterator _Last)
; 1174 : 		{	// assign [First, _Last), const_iterators
; 1175 : 		return (replace(begin(), end(), _First, _Last));
; 1176 : 		}
; 1177 : 
; 1178 : 	_Myt& insert(size_type _Off, const _Myt& _Right)
; 1179 : 		{	// insert _Right at _Off
; 1180 : 		return (insert(_Off, _Right, 0, npos));
; 1181 : 		}
; 1182 : 
; 1183 : 	_Myt& insert(size_type _Off,
; 1184 : 		const _Myt& _Right, size_type _Roff, size_type _Count)
; 1185 : 		{	// insert _Right [_Roff, _Roff + _Count) at _Off
; 1186 : 		if (this->_Mysize < _Off || _Right.size() < _Roff)
; 1187 : 			_Xran();	// _Off or _Roff off end
; 1188 : 		size_type _Num = _Right.size() - _Roff;
; 1189 : 		if (_Num < _Count)
; 1190 : 			_Count = _Num;	// trim _Count to size
; 1191 : 		if (npos - this->_Mysize <= _Count)
; 1192 : 			_Xlen();	// result too long
; 1193 : 
; 1194 : 		if (0 < _Count && _Grow(_Num = this->_Mysize + _Count))
; 1195 : 			{	// make room and insert new stuff
; 1196 : 			_Traits::move(this->_Myptr() + _Off + _Count,
; 1197 : 				this->_Myptr() + _Off,
; 1198 : 				this->_Mysize - _Off);	// empty out hole
; 1199 : 			if (this == &_Right)
; 1200 : 				_Traits::move(this->_Myptr() + _Off,
; 1201 : 					this->_Myptr() + (_Off < _Roff ? _Roff + _Count : _Roff),
; 1202 : 						_Count);	// substring
; 1203 : 			else
; 1204 : 				_Traits::copy(this->_Myptr() + _Off,
; 1205 : 					_Right._Myptr() + _Roff, _Count);	// fill hole
; 1206 : 			_Eos(_Num);
; 1207 : 			}
; 1208 : 		return (*this);
; 1209 : 		}
; 1210 : 
; 1211 : 	_Myt& insert(size_type _Off,
; 1212 : 		const _Elem *_Ptr, size_type _Count)
; 1213 : 		{	// insert [_Ptr, _Ptr + _Count) at _Off
; 1214 :  #if _ITERATOR_DEBUG_LEVEL == 2
; 1215 : 		if (_Count != 0)
; 1216 : 			_DEBUG_POINTER(_Ptr);
; 1217 :  #endif /* _ITERATOR_DEBUG_LEVEL == 2 */
; 1218 : 
; 1219 : 		if (_Inside(_Ptr))
; 1220 : 			return (insert(_Off, *this,
; 1221 : 				_Ptr - this->_Myptr(), _Count));	// substring
; 1222 : 		if (this->_Mysize < _Off)
; 1223 : 			_Xran();	// _Off off end
; 1224 : 		if (npos - this->_Mysize <= _Count)
; 1225 : 			_Xlen();	// result too long
; 1226 : 		size_type _Num;
; 1227 : 		if (0 < _Count && _Grow(_Num = this->_Mysize + _Count))
; 1228 : 			{	// make room and insert new stuff
; 1229 : 			_Traits::move(this->_Myptr() + _Off + _Count,
; 1230 : 				this->_Myptr() + _Off,
; 1231 : 				this->_Mysize - _Off);	// empty out hole
; 1232 : 			_Traits::copy(this->_Myptr() + _Off, _Ptr, _Count);	// fill hole
; 1233 : 			_Eos(_Num);
; 1234 : 			}
; 1235 : 		return (*this);
; 1236 : 		}
; 1237 : 
; 1238 : 	_Myt& insert(size_type _Off, const _Elem *_Ptr)
; 1239 : 		{	// insert [_Ptr, <null>) at _Off
; 1240 : 		_DEBUG_POINTER(_Ptr);
; 1241 : 		return (insert(_Off, _Ptr, _Traits::length(_Ptr)));
; 1242 : 		}
; 1243 : 
; 1244 : 	_Myt& insert(size_type _Off,
; 1245 : 		size_type _Count, _Elem _Ch)
; 1246 : 		{	// insert _Count * _Ch at _Off
; 1247 : 		if (this->_Mysize < _Off)
; 1248 : 			_Xran();	// _Off off end
; 1249 : 		if (npos - this->_Mysize <= _Count)
; 1250 : 			_Xlen();	// result too long
; 1251 : 		size_type _Num;
; 1252 : 		if (0 < _Count && _Grow(_Num = this->_Mysize + _Count))
; 1253 : 			{	// make room and insert new stuff
; 1254 : 			_Traits::move(this->_Myptr() + _Off + _Count,
; 1255 : 				this->_Myptr() + _Off,
; 1256 : 				this->_Mysize - _Off);	// empty out hole
; 1257 : 			_Chassign(_Off, _Count, _Ch);	// fill hole
; 1258 : 			_Eos(_Num);
; 1259 : 			}
; 1260 : 		return (*this);
; 1261 : 		}
; 1262 : 
; 1263 : 	iterator insert(const_iterator _Where)
; 1264 : 		{	// insert <null> at _Where
; 1265 : 		return (insert(_Where, _Elem()));
; 1266 : 		}
; 1267 : 
; 1268 : 	iterator insert(const_iterator _Where, _Elem _Ch)
; 1269 : 		{	// insert _Ch at _Where
; 1270 : 		size_type _Off = _Pdif(_Where, begin());
; 1271 : 		insert(_Off, 1, _Ch);
; 1272 : 		return (begin() + _Off);
; 1273 : 		}
; 1274 : 
; 1275 : 	iterator insert(const_iterator _Where, size_type _Count, _Elem _Ch)
; 1276 : 		{	// insert _Count * _Elem at _Where
; 1277 : 		size_type _Off = _Pdif(_Where, begin());
; 1278 : 		insert(_Off, _Count, _Ch);
; 1279 : 		return (begin() + _Off);
; 1280 : 		}
; 1281 : 
; 1282 : 	template<class _Iter>
; 1283 : 		typename enable_if<_Is_iterator<_Iter>::value,
; 1284 : 			iterator>::type
; 1285 : 		insert(const_iterator _Where, _Iter _First, _Iter _Last)
; 1286 : 		{	// insert [_First, _Last) at _Where, input iterators
; 1287 : 		size_type _Off = _Pdif(_Where, begin());
; 1288 : 		replace(_Where, _Where, _First, _Last);
; 1289 : 		return (begin() + _Off);
; 1290 : 		}
; 1291 : 
; 1292 : 	iterator insert(const_iterator _Where,
; 1293 : 		const_pointer _First, const_pointer _Last)
; 1294 : 		{	// insert [_First, _Last) at _Where, const pointers
; 1295 : 		size_type _Off = _Pdif(_Where, begin());
; 1296 : 		replace(_Where, _Where, _First, _Last);
; 1297 : 		return (begin() + _Off);
; 1298 : 		}
; 1299 : 
; 1300 : 	iterator insert(const_iterator _Where,
; 1301 : 		const_iterator _First, const_iterator _Last)
; 1302 : 		{	// insert [_First, _Last) at _Where, const_iterators
; 1303 : 		size_type _Off = _Pdif(_Where, begin());
; 1304 : 		replace(_Where, _Where, _First, _Last);
; 1305 : 		return (begin() + _Off);
; 1306 : 		}
; 1307 : 
; 1308 : 	_Myt& erase(size_type _Off = 0)
; 1309 : 		{	// erase elements [_Off, ...)
; 1310 : 		if (this->_Mysize < _Off)
; 1311 : 			_Xran();	// _Off off end
; 1312 : 		_Eos(_Off);
; 1313 : 		return (*this);
; 1314 : 		}
; 1315 : 
; 1316 : 	_Myt& erase(size_type _Off, size_type _Count)
; 1317 : 		{	// erase elements [_Off, _Off + _Count)
; 1318 : 		if (this->_Mysize < _Off)
; 1319 : 			_Xran();	// _Off off end
; 1320 : 		if (this->_Mysize - _Off <= _Count)
; 1321 : 			_Eos(_Off);	// erase elements [_Off, ...)
; 1322 : 		else if (0 < _Count)
; 1323 : 			{	// move elements down
; 1324 : 			value_type *_Ptr = this->_Myptr() + _Off;
; 1325 : 			size_type _Newsize = this->_Mysize - _Count;
; 1326 : 			_Traits::move(_Ptr, _Ptr + _Count, _Newsize - _Off);
; 1327 : 			_Eos(_Newsize);
; 1328 : 			}
; 1329 : 		return (*this);
; 1330 : 		}
; 1331 : 
; 1332 : 	iterator erase(const_iterator _Where)
; 1333 : 		{	// erase element at _Where
; 1334 : 		size_type _Count = _Pdif(_Where, begin());
; 1335 : 		erase(_Count, 1);
; 1336 : 		return (_STRING_ITERATOR(this->_Myptr() + _Count));
; 1337 : 		}
; 1338 : 
; 1339 : 	iterator erase(const_iterator _First, const_iterator _Last)
; 1340 : 		{	// erase substring [_First, _Last)
; 1341 : 		_DEBUG_RANGE(_First, _Last);
; 1342 : 		size_type _Count = _Pdif(_First, begin());
; 1343 : 		erase(_Count, _Pdif(_Last, _First));
; 1344 : 		return (_STRING_ITERATOR(this->_Myptr() + _Count));
; 1345 : 		}
; 1346 : 
; 1347 : 	void clear() _NOEXCEPT
; 1348 : 		{	// erase all
; 1349 : 		_Eos(0);
; 1350 : 		}
; 1351 : 
; 1352 : 	_Myt& replace(size_type _Off, size_type _N0, const _Myt& _Right)
; 1353 : 		{	// replace [_Off, _Off + _N0) with _Right
; 1354 : 		return (replace(_Off, _N0, _Right, 0, npos));
; 1355 : 		}
; 1356 : 
; 1357 : 	_Myt& replace(size_type _Off,
; 1358 : 		size_type _N0, const _Myt& _Right, size_type _Roff, size_type _Count)
; 1359 : 		{	// replace [_Off, _Off + _N0) with _Right [_Roff, _Roff + _Count)
; 1360 : 		if (this->_Mysize < _Off || _Right.size() < _Roff)
; 1361 : 			_Xran();	// _Off or _Roff off end
; 1362 : 		if (this->_Mysize - _Off < _N0)
; 1363 : 			_N0 = this->_Mysize - _Off;	// trim _N0 to size
; 1364 : 		size_type _Num = _Right.size() - _Roff;
; 1365 : 		if (_Num < _Count)
; 1366 : 			_Count = _Num;	// trim _Count to size
; 1367 : 		if (npos - _Count <= this->_Mysize - _N0)
; 1368 : 			_Xlen();	// result too long
; 1369 : 
; 1370 : 		size_type _Nm = this->_Mysize - _N0 - _Off;	// length of kept tail
; 1371 : 		size_type _Newsize = this->_Mysize + _Count - _N0;
; 1372 : 		if (this->_Mysize < _Newsize)
; 1373 : 			_Grow(_Newsize);
; 1374 : 
; 1375 : 		if (this != &_Right)
; 1376 : 			{	// no overlap, just move down and copy in new stuff
; 1377 : 			_Traits::move(this->_Myptr() + _Off + _Count,
; 1378 : 				this->_Myptr() + _Off + _N0, _Nm);	// empty hole
; 1379 : 			_Traits::copy(this->_Myptr() + _Off,
; 1380 : 				_Right._Myptr() + _Roff, _Count);	// fill hole
; 1381 : 			}
; 1382 : 		else if (_Count <= _N0)
; 1383 : 			{	// hole doesn't get larger, just copy in substring
; 1384 : 			_Traits::move(this->_Myptr() + _Off,
; 1385 : 				this->_Myptr() + _Roff, _Count);	// fill hole
; 1386 : 			_Traits::move(this->_Myptr() + _Off + _Count,
; 1387 : 				this->_Myptr() + _Off + _N0, _Nm);	// move tail down
; 1388 : 			}
; 1389 : 		else if (_Roff <= _Off)
; 1390 : 			{	// hole gets larger, substring begins before hole
; 1391 : 			_Traits::move(this->_Myptr() + _Off + _Count,
; 1392 : 				this->_Myptr() + _Off + _N0, _Nm);	// move tail down
; 1393 : 			_Traits::move(this->_Myptr() + _Off,
; 1394 : 				this->_Myptr() + _Roff, _Count);	// fill hole
; 1395 : 			}
; 1396 : 		else if (_Off + _N0 <= _Roff)
; 1397 : 			{	// hole gets larger, substring begins after hole
; 1398 : 			_Traits::move(this->_Myptr() + _Off + _Count,
; 1399 : 				this->_Myptr() + _Off + _N0, _Nm);	// move tail down
; 1400 : 			_Traits::move(this->_Myptr() + _Off,
; 1401 : 				this->_Myptr() + (_Roff + _Count - _N0),
; 1402 : 				_Count);	// fill hole
; 1403 : 			}
; 1404 : 		else
; 1405 : 			{	// hole gets larger, substring begins in hole
; 1406 : 			_Traits::move(this->_Myptr() + _Off,
; 1407 : 				this->_Myptr() + _Roff, _N0);	// fill old hole
; 1408 : 			_Traits::move(this->_Myptr() + _Off + _Count,
; 1409 : 				this->_Myptr() + _Off + _N0, _Nm);	// move tail down
; 1410 : 			_Traits::move(this->_Myptr() + _Off + _N0,
; 1411 : 				this->_Myptr() + _Roff + _Count,
; 1412 : 				_Count - _N0);	// fill rest of new hole
; 1413 : 			}
; 1414 : 
; 1415 : 		_Eos(_Newsize);
; 1416 : 		return (*this);
; 1417 : 		}
; 1418 : 
; 1419 : 	_Myt& replace(size_type _Off,
; 1420 : 		size_type _N0, const _Elem *_Ptr, size_type _Count)
; 1421 : 		{	// replace [_Off, _Off + _N0) with [_Ptr, _Ptr + _Count)
; 1422 :  #if _ITERATOR_DEBUG_LEVEL == 2
; 1423 : 		if (_Count != 0)
; 1424 : 			_DEBUG_POINTER(_Ptr);
; 1425 :  #endif /* _ITERATOR_DEBUG_LEVEL == 2 */
; 1426 : 
; 1427 : 		if (_Inside(_Ptr))
; 1428 : 			return (replace(_Off, _N0, *this,
; 1429 : 				_Ptr - this->_Myptr(),
; 1430 : 				_Count));	// substring, replace carefully
; 1431 : 		if (this->_Mysize < _Off)
; 1432 : 			_Xran();	// _Off off end
; 1433 : 		if (this->_Mysize - _Off < _N0)
; 1434 : 			_N0 = this->_Mysize - _Off;	// trim _N0 to size
; 1435 : 		if (npos - _Count <= this->_Mysize - _N0)
; 1436 : 			_Xlen();	// result too long
; 1437 : 		size_type _Nm = this->_Mysize - _N0 - _Off;
; 1438 : 
; 1439 : 		if (_Count < _N0)
; 1440 : 			_Traits::move(this->_Myptr() + _Off + _Count,
; 1441 : 				this->_Myptr() + _Off + _N0,
; 1442 : 				_Nm);	// smaller hole, move tail up
; 1443 : 		size_type _Num;
; 1444 : 		if ((0 < _Count || 0 < _N0)
; 1445 : 			&& _Grow(_Num = this->_Mysize + _Count - _N0))
; 1446 : 			{	// make room and rearrange
; 1447 : 			if (_N0 < _Count)
; 1448 : 				_Traits::move(this->_Myptr() + _Off + _Count,
; 1449 : 					this->_Myptr() + _Off + _N0, _Nm);	// move tail down
; 1450 : 			_Traits::copy(this->_Myptr() + _Off, _Ptr, _Count);	// fill hole
; 1451 : 			_Eos(_Num);
; 1452 : 			}
; 1453 : 		return (*this);
; 1454 : 		}
; 1455 : 
; 1456 : 	_Myt& replace(size_type _Off, size_type _N0, const _Elem *_Ptr)
; 1457 : 		{	// replace [_Off, _Off + _N0) with [_Ptr, <null>)
; 1458 : 		_DEBUG_POINTER(_Ptr);
; 1459 : 		return (replace(_Off, _N0, _Ptr, _Traits::length(_Ptr)));
; 1460 : 		}
; 1461 : 
; 1462 : 	_Myt& replace(size_type _Off,
; 1463 : 		size_type _N0, size_type _Count, _Elem _Ch)
; 1464 : 		{	// replace [_Off, _Off + _N0) with _Count * _Ch
; 1465 : 		if (this->_Mysize < _Off)
; 1466 : 			_Xran();	// _Off off end
; 1467 : 		if (this->_Mysize - _Off < _N0)
; 1468 : 			_N0 = this->_Mysize - _Off;	// trim _N0 to size
; 1469 : 		if (npos - _Count <= this->_Mysize - _N0)
; 1470 : 			_Xlen();	// result too long
; 1471 : 		size_type _Nm = this->_Mysize - _N0 - _Off;
; 1472 : 
; 1473 : 		if (_Count < _N0)
; 1474 : 			_Traits::move(this->_Myptr() + _Off + _Count,
; 1475 : 				this->_Myptr() + _Off + _N0,
; 1476 : 				_Nm);	// smaller hole, move tail up
; 1477 : 		size_type _Num;
; 1478 : 		if ((0 < _Count || 0 < _N0)
; 1479 : 			&& _Grow(_Num = this->_Mysize + _Count - _N0))
; 1480 : 			{	// make room and rearrange
; 1481 : 			if (_N0 < _Count)
; 1482 : 				_Traits::move(this->_Myptr() + _Off + _Count,
; 1483 : 					this->_Myptr() + _Off + _N0, _Nm);	// move tail down
; 1484 : 			_Chassign(_Off, _Count, _Ch);	// fill hole
; 1485 : 			_Eos(_Num);
; 1486 : 			}
; 1487 : 		return (*this);
; 1488 : 		}
; 1489 : 
; 1490 : 	_Myt& replace(const_iterator _First, const_iterator _Last,
; 1491 : 		const _Myt& _Right)
; 1492 : 		{	// replace [_First, _Last) with _Right
; 1493 : 		return (replace(
; 1494 : 			_Pdif(_First, begin()), _Pdif(_Last, _First), _Right));
; 1495 : 		}
; 1496 : 
; 1497 : 	_Myt& replace(const_iterator _First, const_iterator _Last,
; 1498 : 		const _Elem *_Ptr, size_type _Count)
; 1499 : 		{	// replace [_First, _Last) with [_Ptr, _Ptr + _Count)
; 1500 : 		return (replace(
; 1501 : 			_Pdif(_First, begin()), _Pdif(_Last, _First), _Ptr, _Count));
; 1502 : 		}
; 1503 : 
; 1504 : 	_Myt& replace(const_iterator _First, const_iterator _Last,
; 1505 : 		const _Elem *_Ptr)
; 1506 : 		{	// replace [_First, _Last) with [_Ptr, <null>)
; 1507 : 		return (replace(
; 1508 : 			_Pdif(_First, begin()), _Pdif(_Last, _First), _Ptr));
; 1509 : 		}
; 1510 : 
; 1511 : 	_Myt& replace(const_iterator _First, const_iterator _Last,
; 1512 : 		size_type _Count, _Elem _Ch)
; 1513 : 		{	// replace [_First, _Last) with _Count * _Ch
; 1514 : 		return (replace(
; 1515 : 			_Pdif(_First, begin()), _Pdif(_Last, _First), _Count, _Ch));
; 1516 : 		}
; 1517 : 
; 1518 : 	template<class _Iter>
; 1519 : 		typename enable_if<_Is_iterator<_Iter>::value,
; 1520 : 			_Myt&>::type
; 1521 : 		replace(const_iterator _First, const_iterator _Last,
; 1522 : 			_Iter _First2, _Iter _Last2)
; 1523 : 		{	// replace [_First, _Last) with [_First2, _Last2), input iterators
; 1524 : 		_Myt _Right(_First2, _Last2);
; 1525 : 		replace(_First, _Last, _Right);
; 1526 : 		return (*this);
; 1527 : 		}
; 1528 : 
; 1529 : 	_Myt& replace(const_iterator _First, const_iterator _Last,
; 1530 : 		const_pointer _First2, const_pointer _Last2)
; 1531 : 		{	// replace [_First, _Last) with [_First2, _Last2), const pointers
; 1532 : 		if (_First2 == _Last2)
; 1533 : 			erase(_Pdif(_First, begin()), _Pdif(_Last, _First));
; 1534 : 		else
; 1535 : 			replace(_Pdif(_First, begin()), _Pdif(_Last, _First),
; 1536 : 				&*_First2, _Last2 - _First2);
; 1537 : 		return (*this);
; 1538 : 		}
; 1539 : 
; 1540 : 	_Myt& replace(const_iterator _First, const_iterator _Last,
; 1541 : 		pointer _First2, pointer _Last2)
; 1542 : 		{	// replace [_First, _Last) with [_First2, _Last2), const pointers
; 1543 : 		if (_First2 == _Last2)
; 1544 : 			erase(_Pdif(_First, begin()), _Pdif(_Last, _First));
; 1545 : 		else
; 1546 : 			replace(_Pdif(_First, begin()), _Pdif(_Last, _First),
; 1547 : 				&*_First2, _Last2 - _First2);
; 1548 : 		return (*this);
; 1549 : 		}
; 1550 : 
; 1551 : 	_Myt& replace(const_iterator _First, const_iterator _Last,
; 1552 : 		const_iterator _First2, const_iterator _Last2)
; 1553 : 		{	// replace [_First, _Last) with [_First2, _Last2), const_iterators
; 1554 : 		if (_First2 == _Last2)
; 1555 : 			erase(_Pdif(_First, begin()), _Pdif(_Last, _First));
; 1556 : 		else
; 1557 : 			replace(_Pdif(_First, begin()), _Pdif(_Last, _First),
; 1558 : 				&*_First2, _Last2 - _First2);
; 1559 : 		return (*this);
; 1560 : 		}
; 1561 : 
; 1562 : 	_Myt& replace(const_iterator _First, const_iterator _Last,
; 1563 : 		iterator _First2, iterator _Last2)
; 1564 : 		{	// replace [_First, _Last) with [_First2, _Last2), const_iterators
; 1565 : 		if (_First2 == _Last2)
; 1566 : 			erase(_Pdif(_First, begin()), _Pdif(_Last, _First));
; 1567 : 		else
; 1568 : 			replace(_Pdif(_First, begin()), _Pdif(_Last, _First),
; 1569 : 				&*_First2, _Last2 - _First2);
; 1570 : 		return (*this);
; 1571 : 		}
; 1572 : 
; 1573 : 	iterator begin() _NOEXCEPT
; 1574 : 		{	// return iterator for beginning of mutable sequence
; 1575 : 		return (_STRING_ITERATOR(this->_Myptr()));
; 1576 : 		}
; 1577 : 
; 1578 : 	const_iterator begin() const _NOEXCEPT
; 1579 : 		{	// return iterator for beginning of nonmutable sequence
; 1580 : 		return (_STRING_CONST_ITERATOR(this->_Myptr()));
; 1581 : 		}
; 1582 : 
; 1583 : 	iterator end() _NOEXCEPT
; 1584 : 		{	// return iterator for end of mutable sequence
; 1585 : 		return (_STRING_ITERATOR(this->_Myptr() + this->_Mysize));
; 1586 : 		}
; 1587 : 
; 1588 : 	const_iterator end() const _NOEXCEPT
; 1589 : 		{	// return iterator for end of nonmutable sequence
; 1590 : 		return (_STRING_CONST_ITERATOR(this->_Myptr() + this->_Mysize));
; 1591 : 		}
; 1592 : 
; 1593 : 	reverse_iterator rbegin() _NOEXCEPT
; 1594 : 		{	// return iterator for beginning of reversed mutable sequence
; 1595 : 		return (reverse_iterator(end()));
; 1596 : 		}
; 1597 : 
; 1598 : 	const_reverse_iterator rbegin() const _NOEXCEPT
; 1599 : 		{	// return iterator for beginning of reversed nonmutable sequence
; 1600 : 		return (const_reverse_iterator(end()));
; 1601 : 		}
; 1602 : 
; 1603 : 	reverse_iterator rend() _NOEXCEPT
; 1604 : 		{	// return iterator for end of reversed mutable sequence
; 1605 : 		return (reverse_iterator(begin()));
; 1606 : 		}
; 1607 : 
; 1608 : 	const_reverse_iterator rend() const _NOEXCEPT
; 1609 : 		{	// return iterator for end of reversed nonmutable sequence
; 1610 : 		return (const_reverse_iterator(begin()));
; 1611 : 		}
; 1612 : 
; 1613 :  #if _HAS_CPP0X
; 1614 : 	const_iterator cbegin() const _NOEXCEPT
; 1615 : 		{	// return iterator for beginning of nonmutable sequence
; 1616 : 		return (((const _Myt *)this)->begin());
; 1617 : 		}
; 1618 : 
; 1619 : 	const_iterator cend() const _NOEXCEPT
; 1620 : 		{	// return iterator for end of nonmutable sequence
; 1621 : 		return (((const _Myt *)this)->end());
; 1622 : 		}
; 1623 : 
; 1624 : 	const_reverse_iterator crbegin() const _NOEXCEPT
; 1625 : 		{	// return iterator for beginning of reversed nonmutable sequence
; 1626 : 		return (((const _Myt *)this)->rbegin());
; 1627 : 		}
; 1628 : 
; 1629 : 	const_reverse_iterator crend() const _NOEXCEPT
; 1630 : 		{	// return iterator for end of reversed nonmutable sequence
; 1631 : 		return (((const _Myt *)this)->rend());
; 1632 : 		}
; 1633 : 
; 1634 : 	void shrink_to_fit()
; 1635 : 		{	// reduce capacity
; 1636 : 		if ((size() | this->_ALLOC_MASK) < capacity())
; 1637 : 			{	// worth shrinking, do it
; 1638 : 			_Myt _Tmp(*this);
; 1639 : 			swap(_Tmp);
; 1640 : 			}
; 1641 : 		}
; 1642 :  #endif /* _HAS_CPP0X */
; 1643 : 
; 1644 : 	reference at(size_type _Off)
; 1645 : 		{	// subscript mutable sequence with checking
; 1646 : 		if (this->_Mysize <= _Off)
; 1647 : 			_Xran();	// _Off off end
; 1648 : 		return (this->_Myptr()[_Off]);
; 1649 : 		}
; 1650 : 
; 1651 : 	const_reference at(size_type _Off) const
; 1652 : 		{	// subscript nonmutable sequence with checking
; 1653 : 		if (this->_Mysize <= _Off)
; 1654 : 			_Xran();	// _Off off end
; 1655 : 		return (this->_Myptr()[_Off]);
; 1656 : 		}
; 1657 : 
; 1658 : 	reference operator[](size_type _Off)
; 1659 : 		{	// subscript mutable sequence
; 1660 :  #if _ITERATOR_DEBUG_LEVEL == 2
; 1661 : 		if (this->_Mysize < _Off)	// sic
; 1662 : 			_DEBUG_ERROR("string subscript out of range");
; 1663 : 
; 1664 :  #elif _ITERATOR_DEBUG_LEVEL == 1
; 1665 : 		_SCL_SECURE_VALIDATE_RANGE(_Off <= this->_Mysize);	// sic
; 1666 :  #endif /* _ITERATOR_DEBUG_LEVEL == 2 */
; 1667 : 
; 1668 : 		return (this->_Myptr()[_Off]);
; 1669 : 		}
; 1670 : 
; 1671 : 	const_reference operator[](size_type _Off) const
; 1672 : 		{	// subscript nonmutable sequence
; 1673 :  #if _ITERATOR_DEBUG_LEVEL == 2
; 1674 : 		if (this->_Mysize < _Off)	// sic
; 1675 : 			_DEBUG_ERROR("string subscript out of range");
; 1676 : 
; 1677 :  #elif _ITERATOR_DEBUG_LEVEL == 1
; 1678 : 		_SCL_SECURE_VALIDATE_RANGE(_Off <= this->_Mysize);	// sic
; 1679 :  #endif /* _ITERATOR_DEBUG_LEVEL == 2 */
; 1680 : 
; 1681 : 		return (this->_Myptr()[_Off]);
; 1682 : 		}
; 1683 : 
; 1684 : 	void push_back(_Elem _Ch)
; 1685 : 		{	// insert element at end
; 1686 : 		insert(end(), _Ch);
; 1687 : 		}
; 1688 : 
; 1689 :  #if _HAS_CPP0X
; 1690 : 	void pop_back()
; 1691 : 		{	// erase element at end
; 1692 : 		erase(this->_Mysize - 1);	// throws if _Mysize == 0
; 1693 : 		}
; 1694 : 
; 1695 : 	reference front()
; 1696 : 		{	// return first element of mutable sequence
; 1697 : 		return (*begin());
; 1698 : 		}
; 1699 : 
; 1700 : 	const_reference front() const
; 1701 : 		{	// return first element of nonmutable sequence
; 1702 : 		return (*begin());
; 1703 : 		}
; 1704 : 
; 1705 : 	reference back()
; 1706 : 		{	// return last element of mutable sequence
; 1707 : 		return (*(end() - 1));
; 1708 : 		}
; 1709 : 
; 1710 : 	const_reference back() const
; 1711 : 		{	// return last element of nonmutable sequence
; 1712 : 		return (*(end() - 1));
; 1713 : 		}
; 1714 :  #endif /* _HAS_CPP0X */
; 1715 : 
; 1716 : 	const _Elem *c_str() const _NOEXCEPT
; 1717 : 		{	// return pointer to null-terminated nonmutable array
; 1718 : 		return (this->_Myptr());
; 1719 : 		}
; 1720 : 
; 1721 : 	const _Elem *data() const _NOEXCEPT
; 1722 : 		{	// return pointer to nonmutable array
; 1723 : 		return (c_str());
; 1724 : 		}
; 1725 : 
; 1726 : 	size_type length() const _NOEXCEPT
; 1727 : 		{	// return length of sequence
; 1728 : 		return (this->_Mysize);
; 1729 : 		}
; 1730 : 
; 1731 : 	size_type size() const _NOEXCEPT
; 1732 : 		{	// return length of sequence
; 1733 : 		return (this->_Mysize);
; 1734 : 		}
; 1735 : 
; 1736 : 	size_type max_size() const _NOEXCEPT
; 1737 : 		{	// return maximum possible length of sequence
; 1738 : 		size_type _Num = this->_Getal().max_size();
; 1739 : 		return (_Num <= 1 ? 1 : _Num - 1);
; 1740 : 		}
; 1741 : 
; 1742 : 	void resize(size_type _Newsize)
; 1743 : 		{	// determine new length, padding with null elements as needed
; 1744 : 		resize(_Newsize, _Elem());
; 1745 : 		}
; 1746 : 
; 1747 : 	void resize(size_type _Newsize, _Elem _Ch)
; 1748 : 		{	// determine new length, padding with _Ch elements as needed
; 1749 : 		if (_Newsize <= this->_Mysize)
; 1750 : 			_Eos(_Newsize);
; 1751 : 		else
; 1752 : 			append(_Newsize - this->_Mysize, _Ch);
; 1753 : 		}
; 1754 : 
; 1755 : 	size_type capacity() const _NOEXCEPT
; 1756 : 		{	// return current length of allocated storage
; 1757 : 		return (this->_Myres);
; 1758 : 		}
; 1759 : 
; 1760 : 	void reserve(size_type _Newcap = 0)
; 1761 : 		{	// determine new minimum length of allocated storage
; 1762 : 		if (this->_Mysize <= _Newcap && this->_Myres != _Newcap)
; 1763 : 			{	// change reservation
; 1764 : 			size_type _Size = this->_Mysize;
; 1765 : 			if (_Grow(_Newcap, true))
; 1766 : 				_Eos(_Size);
; 1767 : 			}
; 1768 : 		}
; 1769 : 
; 1770 : 	bool empty() const _NOEXCEPT
; 1771 : 		{	// test if sequence is empty
; 1772 : 		return (this->_Mysize == 0);
; 1773 : 		}
; 1774 : 
; 1775 : 	_SCL_INSECURE_DEPRECATE
; 1776 : 
; 1777 : 	size_type copy(_Elem *_Ptr,
; 1778 : 		size_type _Count, size_type _Off = 0) const
; 1779 : 		{	// copy [_Off, _Off + _Count) to [_Ptr, _Ptr + _Count)
; 1780 :  #if _ITERATOR_DEBUG_LEVEL == 2
; 1781 : 		if (_Count != 0)
; 1782 : 			_DEBUG_POINTER(_Ptr);
; 1783 :  #endif /* _ITERATOR_DEBUG_LEVEL == 2 */
; 1784 : 
; 1785 : 		if (this->_Mysize < _Off)
; 1786 : 			_Xran();	// _Off off end
; 1787 : 		if (this->_Mysize - _Off < _Count)
; 1788 : 			_Count = this->_Mysize - _Off;
; 1789 : 		_Traits::copy(_Ptr, this->_Myptr() + _Off, _Count);
; 1790 : 		return (_Count);
; 1791 : 		}
; 1792 : 
; 1793 : 	size_type _Copy_s(_Elem *_Dest, size_type _Dest_size,
; 1794 : 		size_type _Count, size_type _Off = 0) const
; 1795 : 		{	// copy [_Off, _Off + _Count) to [_Dest, _Dest + _Count)
; 1796 :  #if _ITERATOR_DEBUG_LEVEL == 2
; 1797 : 		if (_Count != 0)
; 1798 : 			_DEBUG_POINTER(_Dest);
; 1799 :  #endif /* _ITERATOR_DEBUG_LEVEL == 2 */
; 1800 : 
; 1801 : 		if (this->_Mysize < _Off)
; 1802 : 			_Xran();	// _Off off end
; 1803 : 		if (this->_Mysize - _Off < _Count)
; 1804 : 			_Count = this->_Mysize - _Off;
; 1805 : 		_Traits::_Copy_s(_Dest, _Dest_size, this->_Myptr() + _Off, _Count);
; 1806 : 		return (_Count);
; 1807 : 		}
; 1808 : 
; 1809 : 	void _Swap_bx(_Myt& _Right)
; 1810 : 		{	// exchange _Bx with _Right._Bx
; 1811 : 		if (this->_BUF_SIZE <= this->_Myres)
; 1812 : 			if (this->_BUF_SIZE <= _Right._Myres)
; 1813 : 				_Swap_adl(this->_Bx._Ptr, _Right._Bx._Ptr);
; 1814 : 			else
; 1815 : 				{	// swap large with small
; 1816 : 				pointer _Ptr = this->_Bx._Ptr;
; 1817 : 				this->_Getal().destroy(&this->_Bx._Ptr);
; 1818 : 				_Traits::copy(this->_Bx._Buf,
; 1819 : 					_Right._Bx._Buf, _Right._Mysize + 1);
; 1820 : 				this->_Getal().construct(&_Right._Bx._Ptr, _Ptr);
; 1821 : 				}
; 1822 : 		else
; 1823 : 			if (_Right._Myres < this->_BUF_SIZE)
; 1824 : 				_STD swap(this->_Bx._Buf, _Right._Bx._Buf);
; 1825 : 			else
; 1826 : 				{	// swap small with large
; 1827 : 				pointer _Ptr = _Right._Bx._Ptr;
; 1828 : 				this->_Getal().destroy(&_Right._Bx._Ptr);
; 1829 : 				_Traits::copy(_Right._Bx._Buf,
; 1830 : 					this->_Bx._Buf, this->_Mysize + 1);
; 1831 : 				this->_Getal().construct(&this->_Bx._Ptr, _Ptr);
; 1832 : 				}
; 1833 : 		}
; 1834 : 
; 1835 : 	void swap(_Myt& _Right)
; 1836 : 		{	// exchange contents with _Right
; 1837 : 		if (this == &_Right)
; 1838 : 			;	// same object, do nothing
; 1839 : 		else if (this->_Getal() == _Right._Getal())
; 1840 : 			{	// same allocator, swap control information
; 1841 : 			this->_Swap_all(_Right);
; 1842 : 			_Swap_bx(_Right);
; 1843 : 			_STD swap(this->_Mysize, _Right._Mysize);
; 1844 : 			_STD swap(this->_Myres, _Right._Myres);
; 1845 : 			}
; 1846 : 
; 1847 :  #if _HAS_CPP0X
; 1848 : 		else if (_Alty::propagate_on_container_swap::value)
; 1849 : 			{	// swap allocators and control information
; 1850 : 			this->_Swap_alloc(_Right);
; 1851 : 			_Swap_bx(_Right);
; 1852 : 			_STD swap(this->_Bx, _Right._Bx);	// pointer bitwise copyable?
; 1853 : 			_STD swap(this->_Mysize, _Right._Mysize);
; 1854 : 			_STD swap(this->_Myres, _Right._Myres);
; 1855 : 			}
; 1856 :  #endif /* _HAS_CPP0X */
; 1857 : 
; 1858 : 		else
; 1859 : 			{	// different allocator, do multiple assigns
; 1860 : 			_Myt _Tmp = *this;
; 1861 : 
; 1862 : 			*this = _Right;
; 1863 : 			_Right = _Tmp;
; 1864 : 			}
; 1865 : 		}
; 1866 : 
; 1867 : 	size_type find(const _Myt& _Right, size_type _Off = 0) const _NOEXCEPT
; 1868 : 		{	// look for _Right beginning at or after _Off
; 1869 : 		return (find(_Right._Myptr(), _Off, _Right.size()));
; 1870 : 		}
; 1871 : 
; 1872 : 	size_type find(const _Elem *_Ptr,
; 1873 : 		size_type _Off, size_type _Count) const
; 1874 : 		{	// look for [_Ptr, _Ptr + _Count) beginning at or after _Off
; 1875 :  #if _ITERATOR_DEBUG_LEVEL == 2
; 1876 : 		if (_Count != 0)
; 1877 : 			_DEBUG_POINTER(_Ptr);
; 1878 :  #endif /* _ITERATOR_DEBUG_LEVEL == 2 */
; 1879 : 
; 1880 : 		if (_Count == 0 && _Off <= this->_Mysize)
; 1881 : 			return (_Off);	// null string always matches (if inside string)
; 1882 : 
; 1883 : 		size_type _Nm;
; 1884 : 		if (_Off < this->_Mysize && _Count <= (_Nm = this->_Mysize - _Off))
; 1885 : 			{	// room for match, look for it
; 1886 : 			const _Elem *_Uptr, *_Vptr;
; 1887 : 			for (_Nm -= _Count - 1, _Vptr = this->_Myptr() + _Off;
; 1888 : 				(_Uptr = _Traits::find(_Vptr, _Nm, *_Ptr)) != 0;
; 1889 : 				_Nm -= _Uptr - _Vptr + 1, _Vptr = _Uptr + 1)
; 1890 : 				if (_Traits::compare(_Uptr, _Ptr, _Count) == 0)
; 1891 : 					return (_Uptr - this->_Myptr());	// found a match
; 1892 : 			}
; 1893 : 
; 1894 : 		return (npos);	// no match
; 1895 : 		}
; 1896 : 
; 1897 : 	size_type find(const _Elem *_Ptr, size_type _Off = 0) const
; 1898 : 		{	// look for [_Ptr, <null>) beginning at or after _Off
; 1899 : 		_DEBUG_POINTER(_Ptr);
; 1900 : 		return (find(_Ptr, _Off, _Traits::length(_Ptr)));
; 1901 : 		}
; 1902 : 
; 1903 : 	size_type find(_Elem _Ch, size_type _Off = 0) const
; 1904 : 		{	// look for _Ch at or after _Off
; 1905 : 		return (find((const _Elem *)&_Ch, _Off, 1));
; 1906 : 		}
; 1907 : 
; 1908 : 	size_type rfind(const _Myt& _Right, size_type _Off = npos) const _NOEXCEPT
; 1909 : 		{	// look for _Right beginning before _Off
; 1910 : 		return (rfind(_Right._Myptr(), _Off, _Right.size()));
; 1911 : 		}
; 1912 : 
; 1913 : 	size_type rfind(const _Elem *_Ptr,
; 1914 : 		size_type _Off, size_type _Count) const
; 1915 : 		{	// look for [_Ptr, _Ptr + _Count) beginning before _Off
; 1916 :  #if _ITERATOR_DEBUG_LEVEL == 2
; 1917 : 		if (_Count != 0)
; 1918 : 			_DEBUG_POINTER(_Ptr);
; 1919 :  #endif /* _ITERATOR_DEBUG_LEVEL == 2 */
; 1920 : 
; 1921 : 		if (_Count == 0)
; 1922 : 			return (_Off < this->_Mysize ? _Off
; 1923 : 				: this->_Mysize);	// null always matches
; 1924 : 		if (_Count <= this->_Mysize)
; 1925 : 			{	// room for match, look for it
; 1926 : 			const _Elem *_Uptr = this->_Myptr() +
; 1927 : 				(_Off < this->_Mysize - _Count ? _Off
; 1928 : 					: this->_Mysize - _Count);
; 1929 : 			for (; ; --_Uptr)
; 1930 : 				if (_Traits::eq(*_Uptr, *_Ptr)
; 1931 : 					&& _Traits::compare(_Uptr, _Ptr, _Count) == 0)
; 1932 : 					return (_Uptr - this->_Myptr());	// found a match
; 1933 : 				else if (_Uptr == this->_Myptr())
; 1934 : 					break;	// at beginning, no more chance for match
; 1935 : 			}
; 1936 : 
; 1937 : 		return (npos);	// no match
; 1938 : 		}
; 1939 : 
; 1940 : 	size_type rfind(const _Elem *_Ptr, size_type _Off = npos) const
; 1941 : 		{	// look for [_Ptr, <null>) beginning before _Off
; 1942 : 		_DEBUG_POINTER(_Ptr);
; 1943 : 		return (rfind(_Ptr, _Off, _Traits::length(_Ptr)));
; 1944 : 		}
; 1945 : 
; 1946 : 	size_type rfind(_Elem _Ch, size_type _Off = npos) const
; 1947 : 		{	// look for _Ch before _Off
; 1948 : 		return (rfind((const _Elem *)&_Ch, _Off, 1));
; 1949 : 		}
; 1950 : 
; 1951 : 	size_type find_first_of(const _Myt& _Right,
; 1952 : 		size_type _Off = 0) const _NOEXCEPT
; 1953 : 		{	// look for one of _Right at or after _Off
; 1954 : 		return (find_first_of(_Right._Myptr(), _Off, _Right.size()));
; 1955 : 		}
; 1956 : 
; 1957 : 	size_type find_first_of(const _Elem *_Ptr,
; 1958 : 		size_type _Off, size_type _Count) const
; 1959 : 		{	// look for one of [_Ptr, _Ptr + _Count) at or after _Off
; 1960 :  #if _ITERATOR_DEBUG_LEVEL == 2
; 1961 : 		if (_Count != 0)
; 1962 : 			_DEBUG_POINTER(_Ptr);
; 1963 :  #endif /* _ITERATOR_DEBUG_LEVEL == 2 */
; 1964 : 
; 1965 : 		if (0 < _Count && _Off < this->_Mysize)
; 1966 : 			{	// room for match, look for it
; 1967 : 			const _Elem *const _Vptr = this->_Myptr() + this->_Mysize;
; 1968 : 			for (const _Elem *_Uptr = this->_Myptr() + _Off;
; 1969 : 				_Uptr < _Vptr; ++_Uptr)
; 1970 : 				if (_Traits::find(_Ptr, _Count, *_Uptr) != 0)
; 1971 : 					return (_Uptr - this->_Myptr());	// found a match
; 1972 : 			}
; 1973 : 
; 1974 : 		return (npos);	// no match
; 1975 : 		}
; 1976 : 
; 1977 : 	size_type find_first_of(const _Elem *_Ptr,
; 1978 : 		size_type _Off = 0) const
; 1979 : 		{	// look for one of [_Ptr, <null>) at or after _Off
; 1980 : 		_DEBUG_POINTER(_Ptr);
; 1981 : 		return (find_first_of(_Ptr, _Off, _Traits::length(_Ptr)));
; 1982 : 		}
; 1983 : 
; 1984 : 	size_type find_first_of(_Elem _Ch,
; 1985 : 		size_type _Off = 0) const
; 1986 : 		{	// look for _Ch at or after _Off
; 1987 : 		return (find((const _Elem *)&_Ch, _Off, 1));
; 1988 : 		}
; 1989 : 
; 1990 : 	size_type find_last_of(const _Myt& _Right,
; 1991 : 		size_type _Off = npos) const _NOEXCEPT
; 1992 : 		{	// look for one of _Right before _Off
; 1993 : 		return (find_last_of(_Right._Myptr(), _Off, _Right.size()));
; 1994 : 		}
; 1995 : 
; 1996 : 	size_type find_last_of(const _Elem *_Ptr,
; 1997 : 		size_type _Off, size_type _Count) const
; 1998 : 		{	// look for one of [_Ptr, _Ptr + _Count) before _Off
; 1999 :  #if _ITERATOR_DEBUG_LEVEL == 2
; 2000 : 		if (_Count != 0)
; 2001 : 			_DEBUG_POINTER(_Ptr);
; 2002 :  #endif /* _ITERATOR_DEBUG_LEVEL == 2 */
; 2003 : 
; 2004 : 		if (0 < _Count && 0 < this->_Mysize)
; 2005 : 			{	// worth searching, do it
; 2006 : 			const _Elem *_Uptr = this->_Myptr()
; 2007 : 				+ (_Off < this->_Mysize ? _Off : this->_Mysize - 1);
; 2008 : 			for (; ; --_Uptr)
; 2009 : 				if (_Traits::find(_Ptr, _Count, *_Uptr) != 0)
; 2010 : 					return (_Uptr - this->_Myptr());	// found a match
; 2011 : 				else if (_Uptr == this->_Myptr())
; 2012 : 					break;	// at beginning, no more chance for match
; 2013 : 			}
; 2014 : 
; 2015 : 		return (npos);	// no match
; 2016 : 		}
; 2017 : 
; 2018 : 	size_type find_last_of(const _Elem *_Ptr,
; 2019 : 		size_type _Off = npos) const
; 2020 : 		{	// look for one of [_Ptr, <null>) before _Off
; 2021 : 		_DEBUG_POINTER(_Ptr);
; 2022 : 		return (find_last_of(_Ptr, _Off, _Traits::length(_Ptr)));
; 2023 : 		}
; 2024 : 
; 2025 : 	size_type find_last_of(_Elem _Ch,
; 2026 : 		size_type _Off = npos) const
; 2027 : 		{	// look for _Ch before _Off
; 2028 : 		return (rfind((const _Elem *)&_Ch, _Off, 1));
; 2029 : 		}
; 2030 : 
; 2031 : 	size_type find_first_not_of(const _Myt& _Right,
; 2032 : 		size_type _Off = 0) const _NOEXCEPT
; 2033 : 		{	// look for none of _Right at or after _Off
; 2034 : 		return (find_first_not_of(_Right._Myptr(), _Off,
; 2035 : 			_Right.size()));
; 2036 : 		}
; 2037 : 
; 2038 : 	size_type find_first_not_of(const _Elem *_Ptr,
; 2039 : 		size_type _Off, size_type _Count) const
; 2040 : 		{	// look for none of [_Ptr, _Ptr + _Count) at or after _Off
; 2041 :  #if _ITERATOR_DEBUG_LEVEL == 2
; 2042 : 		if (_Count != 0)
; 2043 : 			_DEBUG_POINTER(_Ptr);
; 2044 :  #endif /* _ITERATOR_DEBUG_LEVEL == 2 */
; 2045 : 
; 2046 : 		if (_Off < this->_Mysize)
; 2047 : 			{	// room for match, look for it
; 2048 : 			const _Elem *const _Vptr = this->_Myptr() + this->_Mysize;
; 2049 : 			for (const _Elem *_Uptr = this->_Myptr() + _Off;
; 2050 : 				_Uptr < _Vptr; ++_Uptr)
; 2051 : 				if (_Traits::find(_Ptr, _Count, *_Uptr) == 0)
; 2052 : 					return (_Uptr - this->_Myptr());
; 2053 : 			}
; 2054 : 		return (npos);
; 2055 : 		}
; 2056 : 
; 2057 : 	size_type find_first_not_of(const _Elem *_Ptr,
; 2058 : 		size_type _Off = 0) const
; 2059 : 		{	// look for one of [_Ptr, <null>) at or after _Off
; 2060 : 		_DEBUG_POINTER(_Ptr);
; 2061 : 		return (find_first_not_of(_Ptr, _Off, _Traits::length(_Ptr)));
; 2062 : 		}
; 2063 : 
; 2064 : 	size_type find_first_not_of(_Elem _Ch,
; 2065 : 		size_type _Off = 0) const
; 2066 : 		{	// look for non _Ch at or after _Off
; 2067 : 		return (find_first_not_of((const _Elem *)&_Ch, _Off, 1));
; 2068 : 		}
; 2069 : 
; 2070 : 	size_type find_last_not_of(const _Myt& _Right,
; 2071 : 		size_type _Off = npos) const _NOEXCEPT
; 2072 : 		{	// look for none of _Right before _Off
; 2073 : 		return (find_last_not_of(_Right._Myptr(), _Off, _Right.size()));
; 2074 : 		}
; 2075 : 
; 2076 : 	size_type find_last_not_of(const _Elem *_Ptr,
; 2077 : 		size_type _Off, size_type _Count) const
; 2078 : 		{	// look for none of [_Ptr, _Ptr + _Count) before _Off
; 2079 :  #if _ITERATOR_DEBUG_LEVEL == 2
; 2080 : 		if (_Count != 0)
; 2081 : 			_DEBUG_POINTER(_Ptr);
; 2082 :  #endif /* _ITERATOR_DEBUG_LEVEL == 2 */
; 2083 : 
; 2084 : 		if (0 < this->_Mysize)
; 2085 : 			{	// worth searching, do it
; 2086 : 			const _Elem *_Uptr = this->_Myptr()
; 2087 : 				+ (_Off < this->_Mysize ? _Off : this->_Mysize - 1);
; 2088 : 			for (; ; --_Uptr)
; 2089 : 				if (_Traits::find(_Ptr, _Count, *_Uptr) == 0)
; 2090 : 					return (_Uptr - this->_Myptr());
; 2091 : 				else if (_Uptr == this->_Myptr())
; 2092 : 					break;
; 2093 : 			}
; 2094 : 		return (npos);
; 2095 : 		}
; 2096 : 
; 2097 : 	size_type find_last_not_of(const _Elem *_Ptr,
; 2098 : 		size_type _Off = npos) const
; 2099 : 		{	// look for none of [_Ptr, <null>) before _Off
; 2100 : 		_DEBUG_POINTER(_Ptr);
; 2101 : 		return (find_last_not_of(_Ptr, _Off, _Traits::length(_Ptr)));
; 2102 : 		}
; 2103 : 
; 2104 : 	size_type find_last_not_of(_Elem _Ch,
; 2105 : 		size_type _Off = npos) const
; 2106 : 		{	// look for non _Ch before _Off
; 2107 : 		return (find_last_not_of((const _Elem *)&_Ch, _Off, 1));
; 2108 : 		}
; 2109 : 
; 2110 : 	_Myt substr(size_type _Off = 0, size_type _Count = npos) const
; 2111 : 		{	// return [_Off, _Off + _Count) as new string
; 2112 : 		return (_Myt(*this, _Off, _Count, get_allocator()));
; 2113 : 		}
; 2114 : 
; 2115 : 	int compare(const _Myt& _Right) const _NOEXCEPT
; 2116 : 		{	// compare [0, _Mysize) with _Right
; 2117 : 		return (compare(0, this->_Mysize, _Right._Myptr(), _Right.size()));
; 2118 : 		}
; 2119 : 
; 2120 : 	int compare(size_type _Off, size_type _N0,
; 2121 : 		const _Myt& _Right) const
; 2122 : 		{	// compare [_Off, _Off + _N0) with _Right
; 2123 : 		return (compare(_Off, _N0, _Right, 0, npos));
; 2124 : 		}
; 2125 : 
; 2126 : 	int compare(size_type _Off,
; 2127 : 		size_type _N0, const _Myt& _Right,
; 2128 : 		size_type _Roff, size_type _Count) const
; 2129 : 		{	// compare [_Off, _Off + _N0) with _Right [_Roff, _Roff + _Count)
; 2130 : 		if (_Right.size() < _Roff)
; 2131 : 			_Xran();	// _Off off end
; 2132 : 		if (_Right._Mysize - _Roff < _Count)
; 2133 : 			_Count = _Right._Mysize - _Roff;	// trim _Count to size
; 2134 : 		return (compare(_Off, _N0, _Right._Myptr() + _Roff, _Count));
; 2135 : 		}
; 2136 : 
; 2137 : 	int compare(const _Elem *_Ptr) const
; 2138 : 		{	// compare [0, _Mysize) with [_Ptr, <null>)
; 2139 : 		_DEBUG_POINTER(_Ptr);
; 2140 : 		return (compare(0, this->_Mysize, _Ptr, _Traits::length(_Ptr)));
; 2141 : 		}
; 2142 : 
; 2143 : 	int compare(size_type _Off, size_type _N0, const _Elem *_Ptr) const
; 2144 : 		{	// compare [_Off, _Off + _N0) with [_Ptr, <null>)
; 2145 : 		_DEBUG_POINTER(_Ptr);
; 2146 : 		return (compare(_Off, _N0, _Ptr, _Traits::length(_Ptr)));
; 2147 : 		}
; 2148 : 
; 2149 : 	int compare(size_type _Off,
; 2150 : 		size_type _N0, const _Elem *_Ptr, size_type _Count) const
; 2151 : 		{	// compare [_Off, _Off + _N0) with [_Ptr, _Ptr + _Count)
; 2152 :  #if _ITERATOR_DEBUG_LEVEL == 2
; 2153 : 		if (_Count != 0)
; 2154 : 			_DEBUG_POINTER(_Ptr);
; 2155 :  #endif /* _ITERATOR_DEBUG_LEVEL == 2 */
; 2156 : 
; 2157 : 		if (this->_Mysize < _Off)
; 2158 : 			_Xran();	// _Off off end
; 2159 : 		if (this->_Mysize - _Off < _N0)
; 2160 : 			_N0 = this->_Mysize - _Off;	// trim _N0 to size
; 2161 : 
; 2162 : 		size_type _Ans = _Traits::compare(this->_Myptr() + _Off, _Ptr,
; 2163 : 			_N0 < _Count ? _N0 : _Count);
; 2164 : 		return (_Ans != 0 ? (int)_Ans : _N0 < _Count ? -1
; 2165 : 			: _N0 == _Count ? 0 : +1);
; 2166 : 		}
; 2167 : 
; 2168 : 	allocator_type get_allocator() const _NOEXCEPT
; 2169 : 		{	// return allocator object for values
; 2170 : 		return (this->_Getal());
; 2171 : 		}
; 2172 : 
; 2173 : 	void _Chassign(size_type _Off, size_type _Count, _Elem _Ch)
; 2174 : 		{	// assign _Count copies of _Ch beginning at _Off
; 2175 : 		if (_Count == 1)
; 2176 : 			_Traits::assign(*(this->_Myptr() + _Off), _Ch);
; 2177 : 		else
; 2178 : 			_Traits::assign(this->_Myptr() + _Off, _Count, _Ch);
; 2179 : 		}
; 2180 : 
; 2181 : 	void _Copy(size_type _Newsize, size_type _Oldlen)
; 2182 : 		{	// copy _Oldlen elements to newly allocated buffer
; 2183 : 		size_type _Newres = _Newsize | this->_ALLOC_MASK;
; 2184 : 		if (max_size() < _Newres)
; 2185 : 			_Newres = _Newsize;	// undo roundup if too big
; 2186 : 		else if (this->_Myres / 2 <= _Newres / 3)
; 2187 : 			;
; 2188 : 		else if (this->_Myres <= max_size() - this->_Myres / 2)
; 2189 : 			_Newres = this->_Myres
; 2190 : 				+ this->_Myres / 2;	// grow exponentially if possible
; 2191 : 		else
; 2192 : 			_Newres = max_size();	// settle for max_size()
; 2193 : 
; 2194 : 		_Elem *_Ptr;
; 2195 : 		_TRY_BEGIN
; 2196 : 			_Ptr = this->_Getal().allocate(_Newres + 1);
; 2197 : 		_CATCH_ALL
; 2198 : 			_Newres = _Newsize;	// allocation failed, undo roundup and retry
; 2199 : 			_TRY_BEGIN
; 2200 : 				_Ptr = this->_Getal().allocate(_Newres + 1);
; 2201 : 			_CATCH_ALL
; 2202 : 			_Tidy(true);	// failed again, discard storage and reraise
; 2203 : 			_RERAISE;
; 2204 : 			_CATCH_END
; 2205 : 		_CATCH_END
; 2206 : 
; 2207 : 		if (0 < _Oldlen)
; 2208 : 			_Traits::copy(_Ptr, this->_Myptr(),
; 2209 : 				_Oldlen);	// copy existing elements
; 2210 : 		_Tidy(true);
; 2211 : 		this->_Getal().construct(&this->_Bx._Ptr, _Ptr);
; 2212 : 		this->_Myres = _Newres;
; 2213 : 		_Eos(_Oldlen);
; 2214 : 		}
; 2215 : 
; 2216 : 	void _Eos(size_type _Newsize)
; 2217 : 		{	// set new length and null terminator
; 2218 : 		_Traits::assign(this->_Myptr()[this->_Mysize = _Newsize], _Elem());

  00020	c7 46 10 00 00
	00 00		 mov	 DWORD PTR [esi+16], 0

; 1144 : 		return (assign(_Ptr, _Traits::length(_Ptr)));

  00027	68 00 00 00 00	 push	 OFFSET ??_C@_0BG@PADBLCHM@iostream?5stream?5error?$AA@
  0002c	8b ce		 mov	 ecx, esi
; File c:\program files (x86)\microsoft visual studio 11.0\vc\include\iosfwd

; 564  : 		_Left = _Right;

  0002e	c6 06 00	 mov	 BYTE PTR [esi], 0
; File c:\program files (x86)\microsoft visual studio 11.0\vc\include\xstring

; 1144 : 		return (assign(_Ptr, _Traits::length(_Ptr)));

  00031	e8 00 00 00 00	 call	 ?assign@?$basic_string@DU?$char_traits@D@std@@V?$allocator@D@2@@std@@QAEAAV12@PBDI@Z ; std::basic_string<char,std::char_traits<char>,std::allocator<char> >::assign
; File c:\program files (x86)\microsoft visual studio 11.0\vc\include\system_error

; 615  : 			return (_Generic_error_category::message(_Errcode));

  00036	8b c6		 mov	 eax, esi
  00038	5e		 pop	 esi

; 616  : 		}

  00039	8b e5		 mov	 esp, ebp
  0003b	5d		 pop	 ebp
  0003c	c2 08 00	 ret	 8
$LN2@message:

; 615  : 			return (_Generic_error_category::message(_Errcode));

  0003f	50		 push	 eax
  00040	56		 push	 esi
  00041	e8 00 00 00 00	 call	 ?message@_Generic_error_category@std@@UBE?AV?$basic_string@DU?$char_traits@D@std@@V?$allocator@D@2@@2@H@Z ; std::_Generic_error_category::message
  00046	8b c6		 mov	 eax, esi
  00048	5e		 pop	 esi

; 616  : 		}

  00049	8b e5		 mov	 esp, ebp
  0004b	5d		 pop	 ebp
  0004c	c2 08 00	 ret	 8
?message@_Iostream_error_category@std@@UBE?AV?$basic_string@DU?$char_traits@D@std@@V?$allocator@D@2@@2@H@Z ENDP ; std::_Iostream_error_category::message
_TEXT	ENDS
; Function compile flags: /Ogtp
; File c:\program files (x86)\microsoft visual studio 11.0\vc\include\system_error
;	COMDAT ??_G_Iostream_error_category@std@@UAEPAXI@Z
_TEXT	SEGMENT
___flags$ = 8						; size = 4
??_G_Iostream_error_category@std@@UAEPAXI@Z PROC	; std::_Iostream_error_category::`scalar deleting destructor', COMDAT
; _this$ = ecx
  00000	55		 push	 ebp
  00001	8b ec		 mov	 ebp, esp
  00003	f6 45 08 01	 test	 BYTE PTR ___flags$[ebp], 1
  00007	56		 push	 esi
  00008	8b f1		 mov	 esi, ecx

; 167  : 		{	// destroy the object

  0000a	c7 06 00 00 00
	00		 mov	 DWORD PTR [esi], OFFSET ??_7error_category@std@@6B@
  00010	74 0a		 je	 SHORT $LN10@scalar
  00012	56		 push	 esi
  00013	ff 15 00 00 00
	00		 call	 DWORD PTR __imp_??3@YAXPAX@Z
  00019	83 c4 04	 add	 esp, 4
$LN10@scalar:
  0001c	8b c6		 mov	 eax, esi
  0001e	5e		 pop	 esi
  0001f	5d		 pop	 ebp
  00020	c2 04 00	 ret	 4
??_G_Iostream_error_category@std@@UAEPAXI@Z ENDP	; std::_Iostream_error_category::`scalar deleting destructor'
_TEXT	ENDS
; Function compile flags: /Ogtp
; File c:\program files (x86)\microsoft visual studio 11.0\vc\include\system_error
;	COMDAT ??1_Iostream_error_category@std@@UAE@XZ
_TEXT	SEGMENT
??1_Iostream_error_category@std@@UAE@XZ PROC		; std::_Iostream_error_category::~_Iostream_error_category, COMDAT
; _this$ = ecx

; 167  : 		{	// destroy the object

  00000	c7 01 00 00 00
	00		 mov	 DWORD PTR [ecx], OFFSET ??_7error_category@std@@6B@
  00006	c3		 ret	 0
??1_Iostream_error_category@std@@UAE@XZ ENDP		; std::_Iostream_error_category::~_Iostream_error_category
_TEXT	ENDS
; Function compile flags: /Ogtp
; File c:\program files (x86)\microsoft visual studio 11.0\vc\include\system_error
;	COMDAT ??0_System_error_category@std@@QAE@XZ
_TEXT	SEGMENT
??0_System_error_category@std@@QAE@XZ PROC		; std::_System_error_category::_System_error_category, COMDAT
; _this$dead$ = ecx

; 624  : 	_System_error_category()

  00000	c7 05 00 00 00
	00 00 00 00 00	 mov	 DWORD PTR ?_System_object@?$_Error_objects@H@std@@2V_System_error_category@2@A, OFFSET ??_7_System_error_category@std@@6B@ ; std::_Error_objects<int>::_System_object

; 625  : 		{	// default constructor
; 626  : 		}

  0000a	b8 00 00 00 00	 mov	 eax, OFFSET ?_System_object@?$_Error_objects@H@std@@2V_System_error_category@2@A ; std::_Error_objects<int>::_System_object
  0000f	c3		 ret	 0
??0_System_error_category@std@@QAE@XZ ENDP		; std::_System_error_category::_System_error_category
_TEXT	ENDS
; Function compile flags: /Ogtp
; File c:\program files (x86)\microsoft visual studio 11.0\vc\include\system_error
;	COMDAT ?name@_System_error_category@std@@UBEPBDXZ
_TEXT	SEGMENT
?name@_System_error_category@std@@UBEPBDXZ PROC		; std::_System_error_category::name, COMDAT
; _this$ = ecx

; 630  : 		return ("system");

  00000	b8 00 00 00 00	 mov	 eax, OFFSET ??_C@_06FHFOAHML@system?$AA@

; 631  : 		}

  00005	c3		 ret	 0
?name@_System_error_category@std@@UBEPBDXZ ENDP		; std::_System_error_category::name
_TEXT	ENDS
; Function compile flags: /Ogtp
; File c:\program files (x86)\microsoft visual studio 11.0\vc\include\system_error
; File c:\program files (x86)\microsoft visual studio 11.0\vc\include\xstring
; File c:\program files (x86)\microsoft visual studio 11.0\vc\include\system_error
; File c:\program files (x86)\microsoft visual studio 11.0\vc\include\xstring
; File c:\program files (x86)\microsoft visual studio 11.0\vc\include\iosfwd
; File c:\program files (x86)\microsoft visual studio 11.0\vc\include\xstring
; File c:\program files (x86)\microsoft visual studio 11.0\vc\include\system_error
; File c:\program files (x86)\microsoft visual studio 11.0\vc\include\iosfwd
; File c:\program files (x86)\microsoft visual studio 11.0\vc\include\xstring
; File c:\program files (x86)\microsoft visual studio 11.0\vc\include\system_error
;	COMDAT ?message@_System_error_category@std@@UBE?AV?$basic_string@DU?$char_traits@D@std@@V?$allocator@D@2@@2@H@Z
_TEXT	SEGMENT
$T1 = -4						; size = 4
___$ReturnUdt$ = 8					; size = 4
__Errcode$ = 12						; size = 4
?message@_System_error_category@std@@UBE?AV?$basic_string@DU?$char_traits@D@std@@V?$allocator@D@2@@2@H@Z PROC ; std::_System_error_category::message, COMDAT
; _this$ = ecx

; 634  : 		{	// convert to name of error

  00000	55		 push	 ebp
  00001	8b ec		 mov	 ebp, esp
  00003	51		 push	 ecx
  00004	56		 push	 esi

; 635  : 		const char *_Name = _Winerror_map(_Errcode);

  00005	ff 75 0c	 push	 DWORD PTR __Errcode$[ebp]
  00008	c7 45 fc 00 00
	00 00		 mov	 DWORD PTR $T1[ebp], 0
  0000f	ff 15 00 00 00
	00		 call	 DWORD PTR __imp_?_Winerror_map@std@@YAPBDH@Z
; File c:\program files (x86)\microsoft visual studio 11.0\vc\include\xstring

; 2265 : 		this->_Myres = this->_BUF_SIZE - 1;

  00015	8b 75 08	 mov	 esi, DWORD PTR ___$ReturnUdt$[ebp]
; File c:\program files (x86)\microsoft visual studio 11.0\vc\include\system_error

; 635  : 		const char *_Name = _Winerror_map(_Errcode);

  00018	83 c4 04	 add	 esp, 4

; 636  : 		return (string(_Name != 0 ? _Name : "unknown error"));

  0001b	85 c0		 test	 eax, eax
  0001d	ba 00 00 00 00	 mov	 edx, OFFSET ??_C@_0O@BFJCFAAK@unknown?5error?$AA@
  00022	0f 45 d0	 cmovne	 edx, eax
; File c:\program files (x86)\microsoft visual studio 11.0\vc\include\xstring

; 2265 : 		this->_Myres = this->_BUF_SIZE - 1;

  00025	c7 46 14 0f 00
	00 00		 mov	 DWORD PTR [esi+20], 15	; 0000000fH

; 1145 : 		}
; 1146 : 
; 1147 : 	_Myt& assign(size_type _Count, _Elem _Ch)
; 1148 : 		{	// assign _Count * _Ch
; 1149 : 		if (_Count == npos)
; 1150 : 			_Xlen();	// result too long
; 1151 : 
; 1152 : 		if (_Grow(_Count))
; 1153 : 			{	// make room and assign new stuff
; 1154 : 			_Chassign(0, _Count, _Ch);
; 1155 : 			_Eos(_Count);
; 1156 : 			}
; 1157 : 		return (*this);
; 1158 : 		}
; 1159 : 
; 1160 : 	template<class _Iter>
; 1161 : 		typename enable_if<_Is_iterator<_Iter>::value,
; 1162 : 			_Myt&>::type
; 1163 : 		assign(_Iter _First, _Iter _Last)
; 1164 : 		{	// assign [First, _Last), input iterators
; 1165 : 		return (replace(begin(), end(), _First, _Last));
; 1166 : 		}
; 1167 : 
; 1168 : 	_Myt& assign(const_pointer _First, const_pointer _Last)
; 1169 : 		{	// assign [First, _Last), const pointers
; 1170 : 		return (replace(begin(), end(), _First, _Last));
; 1171 : 		}
; 1172 : 
; 1173 : 	_Myt& assign(const_iterator _First, const_iterator _Last)
; 1174 : 		{	// assign [First, _Last), const_iterators
; 1175 : 		return (replace(begin(), end(), _First, _Last));
; 1176 : 		}
; 1177 : 
; 1178 : 	_Myt& insert(size_type _Off, const _Myt& _Right)
; 1179 : 		{	// insert _Right at _Off
; 1180 : 		return (insert(_Off, _Right, 0, npos));
; 1181 : 		}
; 1182 : 
; 1183 : 	_Myt& insert(size_type _Off,
; 1184 : 		const _Myt& _Right, size_type _Roff, size_type _Count)
; 1185 : 		{	// insert _Right [_Roff, _Roff + _Count) at _Off
; 1186 : 		if (this->_Mysize < _Off || _Right.size() < _Roff)
; 1187 : 			_Xran();	// _Off or _Roff off end
; 1188 : 		size_type _Num = _Right.size() - _Roff;
; 1189 : 		if (_Num < _Count)
; 1190 : 			_Count = _Num;	// trim _Count to size
; 1191 : 		if (npos - this->_Mysize <= _Count)
; 1192 : 			_Xlen();	// result too long
; 1193 : 
; 1194 : 		if (0 < _Count && _Grow(_Num = this->_Mysize + _Count))
; 1195 : 			{	// make room and insert new stuff
; 1196 : 			_Traits::move(this->_Myptr() + _Off + _Count,
; 1197 : 				this->_Myptr() + _Off,
; 1198 : 				this->_Mysize - _Off);	// empty out hole
; 1199 : 			if (this == &_Right)
; 1200 : 				_Traits::move(this->_Myptr() + _Off,
; 1201 : 					this->_Myptr() + (_Off < _Roff ? _Roff + _Count : _Roff),
; 1202 : 						_Count);	// substring
; 1203 : 			else
; 1204 : 				_Traits::copy(this->_Myptr() + _Off,
; 1205 : 					_Right._Myptr() + _Roff, _Count);	// fill hole
; 1206 : 			_Eos(_Num);
; 1207 : 			}
; 1208 : 		return (*this);
; 1209 : 		}
; 1210 : 
; 1211 : 	_Myt& insert(size_type _Off,
; 1212 : 		const _Elem *_Ptr, size_type _Count)
; 1213 : 		{	// insert [_Ptr, _Ptr + _Count) at _Off
; 1214 :  #if _ITERATOR_DEBUG_LEVEL == 2
; 1215 : 		if (_Count != 0)
; 1216 : 			_DEBUG_POINTER(_Ptr);
; 1217 :  #endif /* _ITERATOR_DEBUG_LEVEL == 2 */
; 1218 : 
; 1219 : 		if (_Inside(_Ptr))
; 1220 : 			return (insert(_Off, *this,
; 1221 : 				_Ptr - this->_Myptr(), _Count));	// substring
; 1222 : 		if (this->_Mysize < _Off)
; 1223 : 			_Xran();	// _Off off end
; 1224 : 		if (npos - this->_Mysize <= _Count)
; 1225 : 			_Xlen();	// result too long
; 1226 : 		size_type _Num;
; 1227 : 		if (0 < _Count && _Grow(_Num = this->_Mysize + _Count))
; 1228 : 			{	// make room and insert new stuff
; 1229 : 			_Traits::move(this->_Myptr() + _Off + _Count,
; 1230 : 				this->_Myptr() + _Off,
; 1231 : 				this->_Mysize - _Off);	// empty out hole
; 1232 : 			_Traits::copy(this->_Myptr() + _Off, _Ptr, _Count);	// fill hole
; 1233 : 			_Eos(_Num);
; 1234 : 			}
; 1235 : 		return (*this);
; 1236 : 		}
; 1237 : 
; 1238 : 	_Myt& insert(size_type _Off, const _Elem *_Ptr)
; 1239 : 		{	// insert [_Ptr, <null>) at _Off
; 1240 : 		_DEBUG_POINTER(_Ptr);
; 1241 : 		return (insert(_Off, _Ptr, _Traits::length(_Ptr)));
; 1242 : 		}
; 1243 : 
; 1244 : 	_Myt& insert(size_type _Off,
; 1245 : 		size_type _Count, _Elem _Ch)
; 1246 : 		{	// insert _Count * _Ch at _Off
; 1247 : 		if (this->_Mysize < _Off)
; 1248 : 			_Xran();	// _Off off end
; 1249 : 		if (npos - this->_Mysize <= _Count)
; 1250 : 			_Xlen();	// result too long
; 1251 : 		size_type _Num;
; 1252 : 		if (0 < _Count && _Grow(_Num = this->_Mysize + _Count))
; 1253 : 			{	// make room and insert new stuff
; 1254 : 			_Traits::move(this->_Myptr() + _Off + _Count,
; 1255 : 				this->_Myptr() + _Off,
; 1256 : 				this->_Mysize - _Off);	// empty out hole
; 1257 : 			_Chassign(_Off, _Count, _Ch);	// fill hole
; 1258 : 			_Eos(_Num);
; 1259 : 			}
; 1260 : 		return (*this);
; 1261 : 		}
; 1262 : 
; 1263 : 	iterator insert(const_iterator _Where)
; 1264 : 		{	// insert <null> at _Where
; 1265 : 		return (insert(_Where, _Elem()));
; 1266 : 		}
; 1267 : 
; 1268 : 	iterator insert(const_iterator _Where, _Elem _Ch)
; 1269 : 		{	// insert _Ch at _Where
; 1270 : 		size_type _Off = _Pdif(_Where, begin());
; 1271 : 		insert(_Off, 1, _Ch);
; 1272 : 		return (begin() + _Off);
; 1273 : 		}
; 1274 : 
; 1275 : 	iterator insert(const_iterator _Where, size_type _Count, _Elem _Ch)
; 1276 : 		{	// insert _Count * _Elem at _Where
; 1277 : 		size_type _Off = _Pdif(_Where, begin());
; 1278 : 		insert(_Off, _Count, _Ch);
; 1279 : 		return (begin() + _Off);
; 1280 : 		}
; 1281 : 
; 1282 : 	template<class _Iter>
; 1283 : 		typename enable_if<_Is_iterator<_Iter>::value,
; 1284 : 			iterator>::type
; 1285 : 		insert(const_iterator _Where, _Iter _First, _Iter _Last)
; 1286 : 		{	// insert [_First, _Last) at _Where, input iterators
; 1287 : 		size_type _Off = _Pdif(_Where, begin());
; 1288 : 		replace(_Where, _Where, _First, _Last);
; 1289 : 		return (begin() + _Off);
; 1290 : 		}
; 1291 : 
; 1292 : 	iterator insert(const_iterator _Where,
; 1293 : 		const_pointer _First, const_pointer _Last)
; 1294 : 		{	// insert [_First, _Last) at _Where, const pointers
; 1295 : 		size_type _Off = _Pdif(_Where, begin());
; 1296 : 		replace(_Where, _Where, _First, _Last);
; 1297 : 		return (begin() + _Off);
; 1298 : 		}
; 1299 : 
; 1300 : 	iterator insert(const_iterator _Where,
; 1301 : 		const_iterator _First, const_iterator _Last)
; 1302 : 		{	// insert [_First, _Last) at _Where, const_iterators
; 1303 : 		size_type _Off = _Pdif(_Where, begin());
; 1304 : 		replace(_Where, _Where, _First, _Last);
; 1305 : 		return (begin() + _Off);
; 1306 : 		}
; 1307 : 
; 1308 : 	_Myt& erase(size_type _Off = 0)
; 1309 : 		{	// erase elements [_Off, ...)
; 1310 : 		if (this->_Mysize < _Off)
; 1311 : 			_Xran();	// _Off off end
; 1312 : 		_Eos(_Off);
; 1313 : 		return (*this);
; 1314 : 		}
; 1315 : 
; 1316 : 	_Myt& erase(size_type _Off, size_type _Count)
; 1317 : 		{	// erase elements [_Off, _Off + _Count)
; 1318 : 		if (this->_Mysize < _Off)
; 1319 : 			_Xran();	// _Off off end
; 1320 : 		if (this->_Mysize - _Off <= _Count)
; 1321 : 			_Eos(_Off);	// erase elements [_Off, ...)
; 1322 : 		else if (0 < _Count)
; 1323 : 			{	// move elements down
; 1324 : 			value_type *_Ptr = this->_Myptr() + _Off;
; 1325 : 			size_type _Newsize = this->_Mysize - _Count;
; 1326 : 			_Traits::move(_Ptr, _Ptr + _Count, _Newsize - _Off);
; 1327 : 			_Eos(_Newsize);
; 1328 : 			}
; 1329 : 		return (*this);
; 1330 : 		}
; 1331 : 
; 1332 : 	iterator erase(const_iterator _Where)
; 1333 : 		{	// erase element at _Where
; 1334 : 		size_type _Count = _Pdif(_Where, begin());
; 1335 : 		erase(_Count, 1);
; 1336 : 		return (_STRING_ITERATOR(this->_Myptr() + _Count));
; 1337 : 		}
; 1338 : 
; 1339 : 	iterator erase(const_iterator _First, const_iterator _Last)
; 1340 : 		{	// erase substring [_First, _Last)
; 1341 : 		_DEBUG_RANGE(_First, _Last);
; 1342 : 		size_type _Count = _Pdif(_First, begin());
; 1343 : 		erase(_Count, _Pdif(_Last, _First));
; 1344 : 		return (_STRING_ITERATOR(this->_Myptr() + _Count));
; 1345 : 		}
; 1346 : 
; 1347 : 	void clear() _NOEXCEPT
; 1348 : 		{	// erase all
; 1349 : 		_Eos(0);
; 1350 : 		}
; 1351 : 
; 1352 : 	_Myt& replace(size_type _Off, size_type _N0, const _Myt& _Right)
; 1353 : 		{	// replace [_Off, _Off + _N0) with _Right
; 1354 : 		return (replace(_Off, _N0, _Right, 0, npos));
; 1355 : 		}
; 1356 : 
; 1357 : 	_Myt& replace(size_type _Off,
; 1358 : 		size_type _N0, const _Myt& _Right, size_type _Roff, size_type _Count)
; 1359 : 		{	// replace [_Off, _Off + _N0) with _Right [_Roff, _Roff + _Count)
; 1360 : 		if (this->_Mysize < _Off || _Right.size() < _Roff)
; 1361 : 			_Xran();	// _Off or _Roff off end
; 1362 : 		if (this->_Mysize - _Off < _N0)
; 1363 : 			_N0 = this->_Mysize - _Off;	// trim _N0 to size
; 1364 : 		size_type _Num = _Right.size() - _Roff;
; 1365 : 		if (_Num < _Count)
; 1366 : 			_Count = _Num;	// trim _Count to size
; 1367 : 		if (npos - _Count <= this->_Mysize - _N0)
; 1368 : 			_Xlen();	// result too long
; 1369 : 
; 1370 : 		size_type _Nm = this->_Mysize - _N0 - _Off;	// length of kept tail
; 1371 : 		size_type _Newsize = this->_Mysize + _Count - _N0;
; 1372 : 		if (this->_Mysize < _Newsize)
; 1373 : 			_Grow(_Newsize);
; 1374 : 
; 1375 : 		if (this != &_Right)
; 1376 : 			{	// no overlap, just move down and copy in new stuff
; 1377 : 			_Traits::move(this->_Myptr() + _Off + _Count,
; 1378 : 				this->_Myptr() + _Off + _N0, _Nm);	// empty hole
; 1379 : 			_Traits::copy(this->_Myptr() + _Off,
; 1380 : 				_Right._Myptr() + _Roff, _Count);	// fill hole
; 1381 : 			}
; 1382 : 		else if (_Count <= _N0)
; 1383 : 			{	// hole doesn't get larger, just copy in substring
; 1384 : 			_Traits::move(this->_Myptr() + _Off,
; 1385 : 				this->_Myptr() + _Roff, _Count);	// fill hole
; 1386 : 			_Traits::move(this->_Myptr() + _Off + _Count,
; 1387 : 				this->_Myptr() + _Off + _N0, _Nm);	// move tail down
; 1388 : 			}
; 1389 : 		else if (_Roff <= _Off)
; 1390 : 			{	// hole gets larger, substring begins before hole
; 1391 : 			_Traits::move(this->_Myptr() + _Off + _Count,
; 1392 : 				this->_Myptr() + _Off + _N0, _Nm);	// move tail down
; 1393 : 			_Traits::move(this->_Myptr() + _Off,
; 1394 : 				this->_Myptr() + _Roff, _Count);	// fill hole
; 1395 : 			}
; 1396 : 		else if (_Off + _N0 <= _Roff)
; 1397 : 			{	// hole gets larger, substring begins after hole
; 1398 : 			_Traits::move(this->_Myptr() + _Off + _Count,
; 1399 : 				this->_Myptr() + _Off + _N0, _Nm);	// move tail down
; 1400 : 			_Traits::move(this->_Myptr() + _Off,
; 1401 : 				this->_Myptr() + (_Roff + _Count - _N0),
; 1402 : 				_Count);	// fill hole
; 1403 : 			}
; 1404 : 		else
; 1405 : 			{	// hole gets larger, substring begins in hole
; 1406 : 			_Traits::move(this->_Myptr() + _Off,
; 1407 : 				this->_Myptr() + _Roff, _N0);	// fill old hole
; 1408 : 			_Traits::move(this->_Myptr() + _Off + _Count,
; 1409 : 				this->_Myptr() + _Off + _N0, _Nm);	// move tail down
; 1410 : 			_Traits::move(this->_Myptr() + _Off + _N0,
; 1411 : 				this->_Myptr() + _Roff + _Count,
; 1412 : 				_Count - _N0);	// fill rest of new hole
; 1413 : 			}
; 1414 : 
; 1415 : 		_Eos(_Newsize);
; 1416 : 		return (*this);
; 1417 : 		}
; 1418 : 
; 1419 : 	_Myt& replace(size_type _Off,
; 1420 : 		size_type _N0, const _Elem *_Ptr, size_type _Count)
; 1421 : 		{	// replace [_Off, _Off + _N0) with [_Ptr, _Ptr + _Count)
; 1422 :  #if _ITERATOR_DEBUG_LEVEL == 2
; 1423 : 		if (_Count != 0)
; 1424 : 			_DEBUG_POINTER(_Ptr);
; 1425 :  #endif /* _ITERATOR_DEBUG_LEVEL == 2 */
; 1426 : 
; 1427 : 		if (_Inside(_Ptr))
; 1428 : 			return (replace(_Off, _N0, *this,
; 1429 : 				_Ptr - this->_Myptr(),
; 1430 : 				_Count));	// substring, replace carefully
; 1431 : 		if (this->_Mysize < _Off)
; 1432 : 			_Xran();	// _Off off end
; 1433 : 		if (this->_Mysize - _Off < _N0)
; 1434 : 			_N0 = this->_Mysize - _Off;	// trim _N0 to size
; 1435 : 		if (npos - _Count <= this->_Mysize - _N0)
; 1436 : 			_Xlen();	// result too long
; 1437 : 		size_type _Nm = this->_Mysize - _N0 - _Off;
; 1438 : 
; 1439 : 		if (_Count < _N0)
; 1440 : 			_Traits::move(this->_Myptr() + _Off + _Count,
; 1441 : 				this->_Myptr() + _Off + _N0,
; 1442 : 				_Nm);	// smaller hole, move tail up
; 1443 : 		size_type _Num;
; 1444 : 		if ((0 < _Count || 0 < _N0)
; 1445 : 			&& _Grow(_Num = this->_Mysize + _Count - _N0))
; 1446 : 			{	// make room and rearrange
; 1447 : 			if (_N0 < _Count)
; 1448 : 				_Traits::move(this->_Myptr() + _Off + _Count,
; 1449 : 					this->_Myptr() + _Off + _N0, _Nm);	// move tail down
; 1450 : 			_Traits::copy(this->_Myptr() + _Off, _Ptr, _Count);	// fill hole
; 1451 : 			_Eos(_Num);
; 1452 : 			}
; 1453 : 		return (*this);
; 1454 : 		}
; 1455 : 
; 1456 : 	_Myt& replace(size_type _Off, size_type _N0, const _Elem *_Ptr)
; 1457 : 		{	// replace [_Off, _Off + _N0) with [_Ptr, <null>)
; 1458 : 		_DEBUG_POINTER(_Ptr);
; 1459 : 		return (replace(_Off, _N0, _Ptr, _Traits::length(_Ptr)));
; 1460 : 		}
; 1461 : 
; 1462 : 	_Myt& replace(size_type _Off,
; 1463 : 		size_type _N0, size_type _Count, _Elem _Ch)
; 1464 : 		{	// replace [_Off, _Off + _N0) with _Count * _Ch
; 1465 : 		if (this->_Mysize < _Off)
; 1466 : 			_Xran();	// _Off off end
; 1467 : 		if (this->_Mysize - _Off < _N0)
; 1468 : 			_N0 = this->_Mysize - _Off;	// trim _N0 to size
; 1469 : 		if (npos - _Count <= this->_Mysize - _N0)
; 1470 : 			_Xlen();	// result too long
; 1471 : 		size_type _Nm = this->_Mysize - _N0 - _Off;
; 1472 : 
; 1473 : 		if (_Count < _N0)
; 1474 : 			_Traits::move(this->_Myptr() + _Off + _Count,
; 1475 : 				this->_Myptr() + _Off + _N0,
; 1476 : 				_Nm);	// smaller hole, move tail up
; 1477 : 		size_type _Num;
; 1478 : 		if ((0 < _Count || 0 < _N0)
; 1479 : 			&& _Grow(_Num = this->_Mysize + _Count - _N0))
; 1480 : 			{	// make room and rearrange
; 1481 : 			if (_N0 < _Count)
; 1482 : 				_Traits::move(this->_Myptr() + _Off + _Count,
; 1483 : 					this->_Myptr() + _Off + _N0, _Nm);	// move tail down
; 1484 : 			_Chassign(_Off, _Count, _Ch);	// fill hole
; 1485 : 			_Eos(_Num);
; 1486 : 			}
; 1487 : 		return (*this);
; 1488 : 		}
; 1489 : 
; 1490 : 	_Myt& replace(const_iterator _First, const_iterator _Last,
; 1491 : 		const _Myt& _Right)
; 1492 : 		{	// replace [_First, _Last) with _Right
; 1493 : 		return (replace(
; 1494 : 			_Pdif(_First, begin()), _Pdif(_Last, _First), _Right));
; 1495 : 		}
; 1496 : 
; 1497 : 	_Myt& replace(const_iterator _First, const_iterator _Last,
; 1498 : 		const _Elem *_Ptr, size_type _Count)
; 1499 : 		{	// replace [_First, _Last) with [_Ptr, _Ptr + _Count)
; 1500 : 		return (replace(
; 1501 : 			_Pdif(_First, begin()), _Pdif(_Last, _First), _Ptr, _Count));
; 1502 : 		}
; 1503 : 
; 1504 : 	_Myt& replace(const_iterator _First, const_iterator _Last,
; 1505 : 		const _Elem *_Ptr)
; 1506 : 		{	// replace [_First, _Last) with [_Ptr, <null>)
; 1507 : 		return (replace(
; 1508 : 			_Pdif(_First, begin()), _Pdif(_Last, _First), _Ptr));
; 1509 : 		}
; 1510 : 
; 1511 : 	_Myt& replace(const_iterator _First, const_iterator _Last,
; 1512 : 		size_type _Count, _Elem _Ch)
; 1513 : 		{	// replace [_First, _Last) with _Count * _Ch
; 1514 : 		return (replace(
; 1515 : 			_Pdif(_First, begin()), _Pdif(_Last, _First), _Count, _Ch));
; 1516 : 		}
; 1517 : 
; 1518 : 	template<class _Iter>
; 1519 : 		typename enable_if<_Is_iterator<_Iter>::value,
; 1520 : 			_Myt&>::type
; 1521 : 		replace(const_iterator _First, const_iterator _Last,
; 1522 : 			_Iter _First2, _Iter _Last2)
; 1523 : 		{	// replace [_First, _Last) with [_First2, _Last2), input iterators
; 1524 : 		_Myt _Right(_First2, _Last2);
; 1525 : 		replace(_First, _Last, _Right);
; 1526 : 		return (*this);
; 1527 : 		}
; 1528 : 
; 1529 : 	_Myt& replace(const_iterator _First, const_iterator _Last,
; 1530 : 		const_pointer _First2, const_pointer _Last2)
; 1531 : 		{	// replace [_First, _Last) with [_First2, _Last2), const pointers
; 1532 : 		if (_First2 == _Last2)
; 1533 : 			erase(_Pdif(_First, begin()), _Pdif(_Last, _First));
; 1534 : 		else
; 1535 : 			replace(_Pdif(_First, begin()), _Pdif(_Last, _First),
; 1536 : 				&*_First2, _Last2 - _First2);
; 1537 : 		return (*this);
; 1538 : 		}
; 1539 : 
; 1540 : 	_Myt& replace(const_iterator _First, const_iterator _Last,
; 1541 : 		pointer _First2, pointer _Last2)
; 1542 : 		{	// replace [_First, _Last) with [_First2, _Last2), const pointers
; 1543 : 		if (_First2 == _Last2)
; 1544 : 			erase(_Pdif(_First, begin()), _Pdif(_Last, _First));
; 1545 : 		else
; 1546 : 			replace(_Pdif(_First, begin()), _Pdif(_Last, _First),
; 1547 : 				&*_First2, _Last2 - _First2);
; 1548 : 		return (*this);
; 1549 : 		}
; 1550 : 
; 1551 : 	_Myt& replace(const_iterator _First, const_iterator _Last,
; 1552 : 		const_iterator _First2, const_iterator _Last2)
; 1553 : 		{	// replace [_First, _Last) with [_First2, _Last2), const_iterators
; 1554 : 		if (_First2 == _Last2)
; 1555 : 			erase(_Pdif(_First, begin()), _Pdif(_Last, _First));
; 1556 : 		else
; 1557 : 			replace(_Pdif(_First, begin()), _Pdif(_Last, _First),
; 1558 : 				&*_First2, _Last2 - _First2);
; 1559 : 		return (*this);
; 1560 : 		}
; 1561 : 
; 1562 : 	_Myt& replace(const_iterator _First, const_iterator _Last,
; 1563 : 		iterator _First2, iterator _Last2)
; 1564 : 		{	// replace [_First, _Last) with [_First2, _Last2), const_iterators
; 1565 : 		if (_First2 == _Last2)
; 1566 : 			erase(_Pdif(_First, begin()), _Pdif(_Last, _First));
; 1567 : 		else
; 1568 : 			replace(_Pdif(_First, begin()), _Pdif(_Last, _First),
; 1569 : 				&*_First2, _Last2 - _First2);
; 1570 : 		return (*this);
; 1571 : 		}
; 1572 : 
; 1573 : 	iterator begin() _NOEXCEPT
; 1574 : 		{	// return iterator for beginning of mutable sequence
; 1575 : 		return (_STRING_ITERATOR(this->_Myptr()));
; 1576 : 		}
; 1577 : 
; 1578 : 	const_iterator begin() const _NOEXCEPT
; 1579 : 		{	// return iterator for beginning of nonmutable sequence
; 1580 : 		return (_STRING_CONST_ITERATOR(this->_Myptr()));
; 1581 : 		}
; 1582 : 
; 1583 : 	iterator end() _NOEXCEPT
; 1584 : 		{	// return iterator for end of mutable sequence
; 1585 : 		return (_STRING_ITERATOR(this->_Myptr() + this->_Mysize));
; 1586 : 		}
; 1587 : 
; 1588 : 	const_iterator end() const _NOEXCEPT
; 1589 : 		{	// return iterator for end of nonmutable sequence
; 1590 : 		return (_STRING_CONST_ITERATOR(this->_Myptr() + this->_Mysize));
; 1591 : 		}
; 1592 : 
; 1593 : 	reverse_iterator rbegin() _NOEXCEPT
; 1594 : 		{	// return iterator for beginning of reversed mutable sequence
; 1595 : 		return (reverse_iterator(end()));
; 1596 : 		}
; 1597 : 
; 1598 : 	const_reverse_iterator rbegin() const _NOEXCEPT
; 1599 : 		{	// return iterator for beginning of reversed nonmutable sequence
; 1600 : 		return (const_reverse_iterator(end()));
; 1601 : 		}
; 1602 : 
; 1603 : 	reverse_iterator rend() _NOEXCEPT
; 1604 : 		{	// return iterator for end of reversed mutable sequence
; 1605 : 		return (reverse_iterator(begin()));
; 1606 : 		}
; 1607 : 
; 1608 : 	const_reverse_iterator rend() const _NOEXCEPT
; 1609 : 		{	// return iterator for end of reversed nonmutable sequence
; 1610 : 		return (const_reverse_iterator(begin()));
; 1611 : 		}
; 1612 : 
; 1613 :  #if _HAS_CPP0X
; 1614 : 	const_iterator cbegin() const _NOEXCEPT
; 1615 : 		{	// return iterator for beginning of nonmutable sequence
; 1616 : 		return (((const _Myt *)this)->begin());
; 1617 : 		}
; 1618 : 
; 1619 : 	const_iterator cend() const _NOEXCEPT
; 1620 : 		{	// return iterator for end of nonmutable sequence
; 1621 : 		return (((const _Myt *)this)->end());
; 1622 : 		}
; 1623 : 
; 1624 : 	const_reverse_iterator crbegin() const _NOEXCEPT
; 1625 : 		{	// return iterator for beginning of reversed nonmutable sequence
; 1626 : 		return (((const _Myt *)this)->rbegin());
; 1627 : 		}
; 1628 : 
; 1629 : 	const_reverse_iterator crend() const _NOEXCEPT
; 1630 : 		{	// return iterator for end of reversed nonmutable sequence
; 1631 : 		return (((const _Myt *)this)->rend());
; 1632 : 		}
; 1633 : 
; 1634 : 	void shrink_to_fit()
; 1635 : 		{	// reduce capacity
; 1636 : 		if ((size() | this->_ALLOC_MASK) < capacity())
; 1637 : 			{	// worth shrinking, do it
; 1638 : 			_Myt _Tmp(*this);
; 1639 : 			swap(_Tmp);
; 1640 : 			}
; 1641 : 		}
; 1642 :  #endif /* _HAS_CPP0X */
; 1643 : 
; 1644 : 	reference at(size_type _Off)
; 1645 : 		{	// subscript mutable sequence with checking
; 1646 : 		if (this->_Mysize <= _Off)
; 1647 : 			_Xran();	// _Off off end
; 1648 : 		return (this->_Myptr()[_Off]);
; 1649 : 		}
; 1650 : 
; 1651 : 	const_reference at(size_type _Off) const
; 1652 : 		{	// subscript nonmutable sequence with checking
; 1653 : 		if (this->_Mysize <= _Off)
; 1654 : 			_Xran();	// _Off off end
; 1655 : 		return (this->_Myptr()[_Off]);
; 1656 : 		}
; 1657 : 
; 1658 : 	reference operator[](size_type _Off)
; 1659 : 		{	// subscript mutable sequence
; 1660 :  #if _ITERATOR_DEBUG_LEVEL == 2
; 1661 : 		if (this->_Mysize < _Off)	// sic
; 1662 : 			_DEBUG_ERROR("string subscript out of range");
; 1663 : 
; 1664 :  #elif _ITERATOR_DEBUG_LEVEL == 1
; 1665 : 		_SCL_SECURE_VALIDATE_RANGE(_Off <= this->_Mysize);	// sic
; 1666 :  #endif /* _ITERATOR_DEBUG_LEVEL == 2 */
; 1667 : 
; 1668 : 		return (this->_Myptr()[_Off]);
; 1669 : 		}
; 1670 : 
; 1671 : 	const_reference operator[](size_type _Off) const
; 1672 : 		{	// subscript nonmutable sequence
; 1673 :  #if _ITERATOR_DEBUG_LEVEL == 2
; 1674 : 		if (this->_Mysize < _Off)	// sic
; 1675 : 			_DEBUG_ERROR("string subscript out of range");
; 1676 : 
; 1677 :  #elif _ITERATOR_DEBUG_LEVEL == 1
; 1678 : 		_SCL_SECURE_VALIDATE_RANGE(_Off <= this->_Mysize);	// sic
; 1679 :  #endif /* _ITERATOR_DEBUG_LEVEL == 2 */
; 1680 : 
; 1681 : 		return (this->_Myptr()[_Off]);
; 1682 : 		}
; 1683 : 
; 1684 : 	void push_back(_Elem _Ch)
; 1685 : 		{	// insert element at end
; 1686 : 		insert(end(), _Ch);
; 1687 : 		}
; 1688 : 
; 1689 :  #if _HAS_CPP0X
; 1690 : 	void pop_back()
; 1691 : 		{	// erase element at end
; 1692 : 		erase(this->_Mysize - 1);	// throws if _Mysize == 0
; 1693 : 		}
; 1694 : 
; 1695 : 	reference front()
; 1696 : 		{	// return first element of mutable sequence
; 1697 : 		return (*begin());
; 1698 : 		}
; 1699 : 
; 1700 : 	const_reference front() const
; 1701 : 		{	// return first element of nonmutable sequence
; 1702 : 		return (*begin());
; 1703 : 		}
; 1704 : 
; 1705 : 	reference back()
; 1706 : 		{	// return last element of mutable sequence
; 1707 : 		return (*(end() - 1));
; 1708 : 		}
; 1709 : 
; 1710 : 	const_reference back() const
; 1711 : 		{	// return last element of nonmutable sequence
; 1712 : 		return (*(end() - 1));
; 1713 : 		}
; 1714 :  #endif /* _HAS_CPP0X */
; 1715 : 
; 1716 : 	const _Elem *c_str() const _NOEXCEPT
; 1717 : 		{	// return pointer to null-terminated nonmutable array
; 1718 : 		return (this->_Myptr());
; 1719 : 		}
; 1720 : 
; 1721 : 	const _Elem *data() const _NOEXCEPT
; 1722 : 		{	// return pointer to nonmutable array
; 1723 : 		return (c_str());
; 1724 : 		}
; 1725 : 
; 1726 : 	size_type length() const _NOEXCEPT
; 1727 : 		{	// return length of sequence
; 1728 : 		return (this->_Mysize);
; 1729 : 		}
; 1730 : 
; 1731 : 	size_type size() const _NOEXCEPT
; 1732 : 		{	// return length of sequence
; 1733 : 		return (this->_Mysize);
; 1734 : 		}
; 1735 : 
; 1736 : 	size_type max_size() const _NOEXCEPT
; 1737 : 		{	// return maximum possible length of sequence
; 1738 : 		size_type _Num = this->_Getal().max_size();
; 1739 : 		return (_Num <= 1 ? 1 : _Num - 1);
; 1740 : 		}
; 1741 : 
; 1742 : 	void resize(size_type _Newsize)
; 1743 : 		{	// determine new length, padding with null elements as needed
; 1744 : 		resize(_Newsize, _Elem());
; 1745 : 		}
; 1746 : 
; 1747 : 	void resize(size_type _Newsize, _Elem _Ch)
; 1748 : 		{	// determine new length, padding with _Ch elements as needed
; 1749 : 		if (_Newsize <= this->_Mysize)
; 1750 : 			_Eos(_Newsize);
; 1751 : 		else
; 1752 : 			append(_Newsize - this->_Mysize, _Ch);
; 1753 : 		}
; 1754 : 
; 1755 : 	size_type capacity() const _NOEXCEPT
; 1756 : 		{	// return current length of allocated storage
; 1757 : 		return (this->_Myres);
; 1758 : 		}
; 1759 : 
; 1760 : 	void reserve(size_type _Newcap = 0)
; 1761 : 		{	// determine new minimum length of allocated storage
; 1762 : 		if (this->_Mysize <= _Newcap && this->_Myres != _Newcap)
; 1763 : 			{	// change reservation
; 1764 : 			size_type _Size = this->_Mysize;
; 1765 : 			if (_Grow(_Newcap, true))
; 1766 : 				_Eos(_Size);
; 1767 : 			}
; 1768 : 		}
; 1769 : 
; 1770 : 	bool empty() const _NOEXCEPT
; 1771 : 		{	// test if sequence is empty
; 1772 : 		return (this->_Mysize == 0);
; 1773 : 		}
; 1774 : 
; 1775 : 	_SCL_INSECURE_DEPRECATE
; 1776 : 
; 1777 : 	size_type copy(_Elem *_Ptr,
; 1778 : 		size_type _Count, size_type _Off = 0) const
; 1779 : 		{	// copy [_Off, _Off + _Count) to [_Ptr, _Ptr + _Count)
; 1780 :  #if _ITERATOR_DEBUG_LEVEL == 2
; 1781 : 		if (_Count != 0)
; 1782 : 			_DEBUG_POINTER(_Ptr);
; 1783 :  #endif /* _ITERATOR_DEBUG_LEVEL == 2 */
; 1784 : 
; 1785 : 		if (this->_Mysize < _Off)
; 1786 : 			_Xran();	// _Off off end
; 1787 : 		if (this->_Mysize - _Off < _Count)
; 1788 : 			_Count = this->_Mysize - _Off;
; 1789 : 		_Traits::copy(_Ptr, this->_Myptr() + _Off, _Count);
; 1790 : 		return (_Count);
; 1791 : 		}
; 1792 : 
; 1793 : 	size_type _Copy_s(_Elem *_Dest, size_type _Dest_size,
; 1794 : 		size_type _Count, size_type _Off = 0) const
; 1795 : 		{	// copy [_Off, _Off + _Count) to [_Dest, _Dest + _Count)
; 1796 :  #if _ITERATOR_DEBUG_LEVEL == 2
; 1797 : 		if (_Count != 0)
; 1798 : 			_DEBUG_POINTER(_Dest);
; 1799 :  #endif /* _ITERATOR_DEBUG_LEVEL == 2 */
; 1800 : 
; 1801 : 		if (this->_Mysize < _Off)
; 1802 : 			_Xran();	// _Off off end
; 1803 : 		if (this->_Mysize - _Off < _Count)
; 1804 : 			_Count = this->_Mysize - _Off;
; 1805 : 		_Traits::_Copy_s(_Dest, _Dest_size, this->_Myptr() + _Off, _Count);
; 1806 : 		return (_Count);
; 1807 : 		}
; 1808 : 
; 1809 : 	void _Swap_bx(_Myt& _Right)
; 1810 : 		{	// exchange _Bx with _Right._Bx
; 1811 : 		if (this->_BUF_SIZE <= this->_Myres)
; 1812 : 			if (this->_BUF_SIZE <= _Right._Myres)
; 1813 : 				_Swap_adl(this->_Bx._Ptr, _Right._Bx._Ptr);
; 1814 : 			else
; 1815 : 				{	// swap large with small
; 1816 : 				pointer _Ptr = this->_Bx._Ptr;
; 1817 : 				this->_Getal().destroy(&this->_Bx._Ptr);
; 1818 : 				_Traits::copy(this->_Bx._Buf,
; 1819 : 					_Right._Bx._Buf, _Right._Mysize + 1);
; 1820 : 				this->_Getal().construct(&_Right._Bx._Ptr, _Ptr);
; 1821 : 				}
; 1822 : 		else
; 1823 : 			if (_Right._Myres < this->_BUF_SIZE)
; 1824 : 				_STD swap(this->_Bx._Buf, _Right._Bx._Buf);
; 1825 : 			else
; 1826 : 				{	// swap small with large
; 1827 : 				pointer _Ptr = _Right._Bx._Ptr;
; 1828 : 				this->_Getal().destroy(&_Right._Bx._Ptr);
; 1829 : 				_Traits::copy(_Right._Bx._Buf,
; 1830 : 					this->_Bx._Buf, this->_Mysize + 1);
; 1831 : 				this->_Getal().construct(&this->_Bx._Ptr, _Ptr);
; 1832 : 				}
; 1833 : 		}
; 1834 : 
; 1835 : 	void swap(_Myt& _Right)
; 1836 : 		{	// exchange contents with _Right
; 1837 : 		if (this == &_Right)
; 1838 : 			;	// same object, do nothing
; 1839 : 		else if (this->_Getal() == _Right._Getal())
; 1840 : 			{	// same allocator, swap control information
; 1841 : 			this->_Swap_all(_Right);
; 1842 : 			_Swap_bx(_Right);
; 1843 : 			_STD swap(this->_Mysize, _Right._Mysize);
; 1844 : 			_STD swap(this->_Myres, _Right._Myres);
; 1845 : 			}
; 1846 : 
; 1847 :  #if _HAS_CPP0X
; 1848 : 		else if (_Alty::propagate_on_container_swap::value)
; 1849 : 			{	// swap allocators and control information
; 1850 : 			this->_Swap_alloc(_Right);
; 1851 : 			_Swap_bx(_Right);
; 1852 : 			_STD swap(this->_Bx, _Right._Bx);	// pointer bitwise copyable?
; 1853 : 			_STD swap(this->_Mysize, _Right._Mysize);
; 1854 : 			_STD swap(this->_Myres, _Right._Myres);
; 1855 : 			}
; 1856 :  #endif /* _HAS_CPP0X */
; 1857 : 
; 1858 : 		else
; 1859 : 			{	// different allocator, do multiple assigns
; 1860 : 			_Myt _Tmp = *this;
; 1861 : 
; 1862 : 			*this = _Right;
; 1863 : 			_Right = _Tmp;
; 1864 : 			}
; 1865 : 		}
; 1866 : 
; 1867 : 	size_type find(const _Myt& _Right, size_type _Off = 0) const _NOEXCEPT
; 1868 : 		{	// look for _Right beginning at or after _Off
; 1869 : 		return (find(_Right._Myptr(), _Off, _Right.size()));
; 1870 : 		}
; 1871 : 
; 1872 : 	size_type find(const _Elem *_Ptr,
; 1873 : 		size_type _Off, size_type _Count) const
; 1874 : 		{	// look for [_Ptr, _Ptr + _Count) beginning at or after _Off
; 1875 :  #if _ITERATOR_DEBUG_LEVEL == 2
; 1876 : 		if (_Count != 0)
; 1877 : 			_DEBUG_POINTER(_Ptr);
; 1878 :  #endif /* _ITERATOR_DEBUG_LEVEL == 2 */
; 1879 : 
; 1880 : 		if (_Count == 0 && _Off <= this->_Mysize)
; 1881 : 			return (_Off);	// null string always matches (if inside string)
; 1882 : 
; 1883 : 		size_type _Nm;
; 1884 : 		if (_Off < this->_Mysize && _Count <= (_Nm = this->_Mysize - _Off))
; 1885 : 			{	// room for match, look for it
; 1886 : 			const _Elem *_Uptr, *_Vptr;
; 1887 : 			for (_Nm -= _Count - 1, _Vptr = this->_Myptr() + _Off;
; 1888 : 				(_Uptr = _Traits::find(_Vptr, _Nm, *_Ptr)) != 0;
; 1889 : 				_Nm -= _Uptr - _Vptr + 1, _Vptr = _Uptr + 1)
; 1890 : 				if (_Traits::compare(_Uptr, _Ptr, _Count) == 0)
; 1891 : 					return (_Uptr - this->_Myptr());	// found a match
; 1892 : 			}
; 1893 : 
; 1894 : 		return (npos);	// no match
; 1895 : 		}
; 1896 : 
; 1897 : 	size_type find(const _Elem *_Ptr, size_type _Off = 0) const
; 1898 : 		{	// look for [_Ptr, <null>) beginning at or after _Off
; 1899 : 		_DEBUG_POINTER(_Ptr);
; 1900 : 		return (find(_Ptr, _Off, _Traits::length(_Ptr)));
; 1901 : 		}
; 1902 : 
; 1903 : 	size_type find(_Elem _Ch, size_type _Off = 0) const
; 1904 : 		{	// look for _Ch at or after _Off
; 1905 : 		return (find((const _Elem *)&_Ch, _Off, 1));
; 1906 : 		}
; 1907 : 
; 1908 : 	size_type rfind(const _Myt& _Right, size_type _Off = npos) const _NOEXCEPT
; 1909 : 		{	// look for _Right beginning before _Off
; 1910 : 		return (rfind(_Right._Myptr(), _Off, _Right.size()));
; 1911 : 		}
; 1912 : 
; 1913 : 	size_type rfind(const _Elem *_Ptr,
; 1914 : 		size_type _Off, size_type _Count) const
; 1915 : 		{	// look for [_Ptr, _Ptr + _Count) beginning before _Off
; 1916 :  #if _ITERATOR_DEBUG_LEVEL == 2
; 1917 : 		if (_Count != 0)
; 1918 : 			_DEBUG_POINTER(_Ptr);
; 1919 :  #endif /* _ITERATOR_DEBUG_LEVEL == 2 */
; 1920 : 
; 1921 : 		if (_Count == 0)
; 1922 : 			return (_Off < this->_Mysize ? _Off
; 1923 : 				: this->_Mysize);	// null always matches
; 1924 : 		if (_Count <= this->_Mysize)
; 1925 : 			{	// room for match, look for it
; 1926 : 			const _Elem *_Uptr = this->_Myptr() +
; 1927 : 				(_Off < this->_Mysize - _Count ? _Off
; 1928 : 					: this->_Mysize - _Count);
; 1929 : 			for (; ; --_Uptr)
; 1930 : 				if (_Traits::eq(*_Uptr, *_Ptr)
; 1931 : 					&& _Traits::compare(_Uptr, _Ptr, _Count) == 0)
; 1932 : 					return (_Uptr - this->_Myptr());	// found a match
; 1933 : 				else if (_Uptr == this->_Myptr())
; 1934 : 					break;	// at beginning, no more chance for match
; 1935 : 			}
; 1936 : 
; 1937 : 		return (npos);	// no match
; 1938 : 		}
; 1939 : 
; 1940 : 	size_type rfind(const _Elem *_Ptr, size_type _Off = npos) const
; 1941 : 		{	// look for [_Ptr, <null>) beginning before _Off
; 1942 : 		_DEBUG_POINTER(_Ptr);
; 1943 : 		return (rfind(_Ptr, _Off, _Traits::length(_Ptr)));
; 1944 : 		}
; 1945 : 
; 1946 : 	size_type rfind(_Elem _Ch, size_type _Off = npos) const
; 1947 : 		{	// look for _Ch before _Off
; 1948 : 		return (rfind((const _Elem *)&_Ch, _Off, 1));
; 1949 : 		}
; 1950 : 
; 1951 : 	size_type find_first_of(const _Myt& _Right,
; 1952 : 		size_type _Off = 0) const _NOEXCEPT
; 1953 : 		{	// look for one of _Right at or after _Off
; 1954 : 		return (find_first_of(_Right._Myptr(), _Off, _Right.size()));
; 1955 : 		}
; 1956 : 
; 1957 : 	size_type find_first_of(const _Elem *_Ptr,
; 1958 : 		size_type _Off, size_type _Count) const
; 1959 : 		{	// look for one of [_Ptr, _Ptr + _Count) at or after _Off
; 1960 :  #if _ITERATOR_DEBUG_LEVEL == 2
; 1961 : 		if (_Count != 0)
; 1962 : 			_DEBUG_POINTER(_Ptr);
; 1963 :  #endif /* _ITERATOR_DEBUG_LEVEL == 2 */
; 1964 : 
; 1965 : 		if (0 < _Count && _Off < this->_Mysize)
; 1966 : 			{	// room for match, look for it
; 1967 : 			const _Elem *const _Vptr = this->_Myptr() + this->_Mysize;
; 1968 : 			for (const _Elem *_Uptr = this->_Myptr() + _Off;
; 1969 : 				_Uptr < _Vptr; ++_Uptr)
; 1970 : 				if (_Traits::find(_Ptr, _Count, *_Uptr) != 0)
; 1971 : 					return (_Uptr - this->_Myptr());	// found a match
; 1972 : 			}
; 1973 : 
; 1974 : 		return (npos);	// no match
; 1975 : 		}
; 1976 : 
; 1977 : 	size_type find_first_of(const _Elem *_Ptr,
; 1978 : 		size_type _Off = 0) const
; 1979 : 		{	// look for one of [_Ptr, <null>) at or after _Off
; 1980 : 		_DEBUG_POINTER(_Ptr);
; 1981 : 		return (find_first_of(_Ptr, _Off, _Traits::length(_Ptr)));
; 1982 : 		}
; 1983 : 
; 1984 : 	size_type find_first_of(_Elem _Ch,
; 1985 : 		size_type _Off = 0) const
; 1986 : 		{	// look for _Ch at or after _Off
; 1987 : 		return (find((const _Elem *)&_Ch, _Off, 1));
; 1988 : 		}
; 1989 : 
; 1990 : 	size_type find_last_of(const _Myt& _Right,
; 1991 : 		size_type _Off = npos) const _NOEXCEPT
; 1992 : 		{	// look for one of _Right before _Off
; 1993 : 		return (find_last_of(_Right._Myptr(), _Off, _Right.size()));
; 1994 : 		}
; 1995 : 
; 1996 : 	size_type find_last_of(const _Elem *_Ptr,
; 1997 : 		size_type _Off, size_type _Count) const
; 1998 : 		{	// look for one of [_Ptr, _Ptr + _Count) before _Off
; 1999 :  #if _ITERATOR_DEBUG_LEVEL == 2
; 2000 : 		if (_Count != 0)
; 2001 : 			_DEBUG_POINTER(_Ptr);
; 2002 :  #endif /* _ITERATOR_DEBUG_LEVEL == 2 */
; 2003 : 
; 2004 : 		if (0 < _Count && 0 < this->_Mysize)
; 2005 : 			{	// worth searching, do it
; 2006 : 			const _Elem *_Uptr = this->_Myptr()
; 2007 : 				+ (_Off < this->_Mysize ? _Off : this->_Mysize - 1);
; 2008 : 			for (; ; --_Uptr)
; 2009 : 				if (_Traits::find(_Ptr, _Count, *_Uptr) != 0)
; 2010 : 					return (_Uptr - this->_Myptr());	// found a match
; 2011 : 				else if (_Uptr == this->_Myptr())
; 2012 : 					break;	// at beginning, no more chance for match
; 2013 : 			}
; 2014 : 
; 2015 : 		return (npos);	// no match
; 2016 : 		}
; 2017 : 
; 2018 : 	size_type find_last_of(const _Elem *_Ptr,
; 2019 : 		size_type _Off = npos) const
; 2020 : 		{	// look for one of [_Ptr, <null>) before _Off
; 2021 : 		_DEBUG_POINTER(_Ptr);
; 2022 : 		return (find_last_of(_Ptr, _Off, _Traits::length(_Ptr)));
; 2023 : 		}
; 2024 : 
; 2025 : 	size_type find_last_of(_Elem _Ch,
; 2026 : 		size_type _Off = npos) const
; 2027 : 		{	// look for _Ch before _Off
; 2028 : 		return (rfind((const _Elem *)&_Ch, _Off, 1));
; 2029 : 		}
; 2030 : 
; 2031 : 	size_type find_first_not_of(const _Myt& _Right,
; 2032 : 		size_type _Off = 0) const _NOEXCEPT
; 2033 : 		{	// look for none of _Right at or after _Off
; 2034 : 		return (find_first_not_of(_Right._Myptr(), _Off,
; 2035 : 			_Right.size()));
; 2036 : 		}
; 2037 : 
; 2038 : 	size_type find_first_not_of(const _Elem *_Ptr,
; 2039 : 		size_type _Off, size_type _Count) const
; 2040 : 		{	// look for none of [_Ptr, _Ptr + _Count) at or after _Off
; 2041 :  #if _ITERATOR_DEBUG_LEVEL == 2
; 2042 : 		if (_Count != 0)
; 2043 : 			_DEBUG_POINTER(_Ptr);
; 2044 :  #endif /* _ITERATOR_DEBUG_LEVEL == 2 */
; 2045 : 
; 2046 : 		if (_Off < this->_Mysize)
; 2047 : 			{	// room for match, look for it
; 2048 : 			const _Elem *const _Vptr = this->_Myptr() + this->_Mysize;
; 2049 : 			for (const _Elem *_Uptr = this->_Myptr() + _Off;
; 2050 : 				_Uptr < _Vptr; ++_Uptr)
; 2051 : 				if (_Traits::find(_Ptr, _Count, *_Uptr) == 0)
; 2052 : 					return (_Uptr - this->_Myptr());
; 2053 : 			}
; 2054 : 		return (npos);
; 2055 : 		}
; 2056 : 
; 2057 : 	size_type find_first_not_of(const _Elem *_Ptr,
; 2058 : 		size_type _Off = 0) const
; 2059 : 		{	// look for one of [_Ptr, <null>) at or after _Off
; 2060 : 		_DEBUG_POINTER(_Ptr);
; 2061 : 		return (find_first_not_of(_Ptr, _Off, _Traits::length(_Ptr)));
; 2062 : 		}
; 2063 : 
; 2064 : 	size_type find_first_not_of(_Elem _Ch,
; 2065 : 		size_type _Off = 0) const
; 2066 : 		{	// look for non _Ch at or after _Off
; 2067 : 		return (find_first_not_of((const _Elem *)&_Ch, _Off, 1));
; 2068 : 		}
; 2069 : 
; 2070 : 	size_type find_last_not_of(const _Myt& _Right,
; 2071 : 		size_type _Off = npos) const _NOEXCEPT
; 2072 : 		{	// look for none of _Right before _Off
; 2073 : 		return (find_last_not_of(_Right._Myptr(), _Off, _Right.size()));
; 2074 : 		}
; 2075 : 
; 2076 : 	size_type find_last_not_of(const _Elem *_Ptr,
; 2077 : 		size_type _Off, size_type _Count) const
; 2078 : 		{	// look for none of [_Ptr, _Ptr + _Count) before _Off
; 2079 :  #if _ITERATOR_DEBUG_LEVEL == 2
; 2080 : 		if (_Count != 0)
; 2081 : 			_DEBUG_POINTER(_Ptr);
; 2082 :  #endif /* _ITERATOR_DEBUG_LEVEL == 2 */
; 2083 : 
; 2084 : 		if (0 < this->_Mysize)
; 2085 : 			{	// worth searching, do it
; 2086 : 			const _Elem *_Uptr = this->_Myptr()
; 2087 : 				+ (_Off < this->_Mysize ? _Off : this->_Mysize - 1);
; 2088 : 			for (; ; --_Uptr)
; 2089 : 				if (_Traits::find(_Ptr, _Count, *_Uptr) == 0)
; 2090 : 					return (_Uptr - this->_Myptr());
; 2091 : 				else if (_Uptr == this->_Myptr())
; 2092 : 					break;
; 2093 : 			}
; 2094 : 		return (npos);
; 2095 : 		}
; 2096 : 
; 2097 : 	size_type find_last_not_of(const _Elem *_Ptr,
; 2098 : 		size_type _Off = npos) const
; 2099 : 		{	// look for none of [_Ptr, <null>) before _Off
; 2100 : 		_DEBUG_POINTER(_Ptr);
; 2101 : 		return (find_last_not_of(_Ptr, _Off, _Traits::length(_Ptr)));
; 2102 : 		}
; 2103 : 
; 2104 : 	size_type find_last_not_of(_Elem _Ch,
; 2105 : 		size_type _Off = npos) const
; 2106 : 		{	// look for non _Ch before _Off
; 2107 : 		return (find_last_not_of((const _Elem *)&_Ch, _Off, 1));
; 2108 : 		}
; 2109 : 
; 2110 : 	_Myt substr(size_type _Off = 0, size_type _Count = npos) const
; 2111 : 		{	// return [_Off, _Off + _Count) as new string
; 2112 : 		return (_Myt(*this, _Off, _Count, get_allocator()));
; 2113 : 		}
; 2114 : 
; 2115 : 	int compare(const _Myt& _Right) const _NOEXCEPT
; 2116 : 		{	// compare [0, _Mysize) with _Right
; 2117 : 		return (compare(0, this->_Mysize, _Right._Myptr(), _Right.size()));
; 2118 : 		}
; 2119 : 
; 2120 : 	int compare(size_type _Off, size_type _N0,
; 2121 : 		const _Myt& _Right) const
; 2122 : 		{	// compare [_Off, _Off + _N0) with _Right
; 2123 : 		return (compare(_Off, _N0, _Right, 0, npos));
; 2124 : 		}
; 2125 : 
; 2126 : 	int compare(size_type _Off,
; 2127 : 		size_type _N0, const _Myt& _Right,
; 2128 : 		size_type _Roff, size_type _Count) const
; 2129 : 		{	// compare [_Off, _Off + _N0) with _Right [_Roff, _Roff + _Count)
; 2130 : 		if (_Right.size() < _Roff)
; 2131 : 			_Xran();	// _Off off end
; 2132 : 		if (_Right._Mysize - _Roff < _Count)
; 2133 : 			_Count = _Right._Mysize - _Roff;	// trim _Count to size
; 2134 : 		return (compare(_Off, _N0, _Right._Myptr() + _Roff, _Count));
; 2135 : 		}
; 2136 : 
; 2137 : 	int compare(const _Elem *_Ptr) const
; 2138 : 		{	// compare [0, _Mysize) with [_Ptr, <null>)
; 2139 : 		_DEBUG_POINTER(_Ptr);
; 2140 : 		return (compare(0, this->_Mysize, _Ptr, _Traits::length(_Ptr)));
; 2141 : 		}
; 2142 : 
; 2143 : 	int compare(size_type _Off, size_type _N0, const _Elem *_Ptr) const
; 2144 : 		{	// compare [_Off, _Off + _N0) with [_Ptr, <null>)
; 2145 : 		_DEBUG_POINTER(_Ptr);
; 2146 : 		return (compare(_Off, _N0, _Ptr, _Traits::length(_Ptr)));
; 2147 : 		}
; 2148 : 
; 2149 : 	int compare(size_type _Off,
; 2150 : 		size_type _N0, const _Elem *_Ptr, size_type _Count) const
; 2151 : 		{	// compare [_Off, _Off + _N0) with [_Ptr, _Ptr + _Count)
; 2152 :  #if _ITERATOR_DEBUG_LEVEL == 2
; 2153 : 		if (_Count != 0)
; 2154 : 			_DEBUG_POINTER(_Ptr);
; 2155 :  #endif /* _ITERATOR_DEBUG_LEVEL == 2 */
; 2156 : 
; 2157 : 		if (this->_Mysize < _Off)
; 2158 : 			_Xran();	// _Off off end
; 2159 : 		if (this->_Mysize - _Off < _N0)
; 2160 : 			_N0 = this->_Mysize - _Off;	// trim _N0 to size
; 2161 : 
; 2162 : 		size_type _Ans = _Traits::compare(this->_Myptr() + _Off, _Ptr,
; 2163 : 			_N0 < _Count ? _N0 : _Count);
; 2164 : 		return (_Ans != 0 ? (int)_Ans : _N0 < _Count ? -1
; 2165 : 			: _N0 == _Count ? 0 : +1);
; 2166 : 		}
; 2167 : 
; 2168 : 	allocator_type get_allocator() const _NOEXCEPT
; 2169 : 		{	// return allocator object for values
; 2170 : 		return (this->_Getal());
; 2171 : 		}
; 2172 : 
; 2173 : 	void _Chassign(size_type _Off, size_type _Count, _Elem _Ch)
; 2174 : 		{	// assign _Count copies of _Ch beginning at _Off
; 2175 : 		if (_Count == 1)
; 2176 : 			_Traits::assign(*(this->_Myptr() + _Off), _Ch);
; 2177 : 		else
; 2178 : 			_Traits::assign(this->_Myptr() + _Off, _Count, _Ch);
; 2179 : 		}
; 2180 : 
; 2181 : 	void _Copy(size_type _Newsize, size_type _Oldlen)
; 2182 : 		{	// copy _Oldlen elements to newly allocated buffer
; 2183 : 		size_type _Newres = _Newsize | this->_ALLOC_MASK;
; 2184 : 		if (max_size() < _Newres)
; 2185 : 			_Newres = _Newsize;	// undo roundup if too big
; 2186 : 		else if (this->_Myres / 2 <= _Newres / 3)
; 2187 : 			;
; 2188 : 		else if (this->_Myres <= max_size() - this->_Myres / 2)
; 2189 : 			_Newres = this->_Myres
; 2190 : 				+ this->_Myres / 2;	// grow exponentially if possible
; 2191 : 		else
; 2192 : 			_Newres = max_size();	// settle for max_size()
; 2193 : 
; 2194 : 		_Elem *_Ptr;
; 2195 : 		_TRY_BEGIN
; 2196 : 			_Ptr = this->_Getal().allocate(_Newres + 1);
; 2197 : 		_CATCH_ALL
; 2198 : 			_Newres = _Newsize;	// allocation failed, undo roundup and retry
; 2199 : 			_TRY_BEGIN
; 2200 : 				_Ptr = this->_Getal().allocate(_Newres + 1);
; 2201 : 			_CATCH_ALL
; 2202 : 			_Tidy(true);	// failed again, discard storage and reraise
; 2203 : 			_RERAISE;
; 2204 : 			_CATCH_END
; 2205 : 		_CATCH_END
; 2206 : 
; 2207 : 		if (0 < _Oldlen)
; 2208 : 			_Traits::copy(_Ptr, this->_Myptr(),
; 2209 : 				_Oldlen);	// copy existing elements
; 2210 : 		_Tidy(true);
; 2211 : 		this->_Getal().construct(&this->_Bx._Ptr, _Ptr);
; 2212 : 		this->_Myres = _Newres;
; 2213 : 		_Eos(_Oldlen);
; 2214 : 		}
; 2215 : 
; 2216 : 	void _Eos(size_type _Newsize)
; 2217 : 		{	// set new length and null terminator
; 2218 : 		_Traits::assign(this->_Myptr()[this->_Mysize = _Newsize], _Elem());

  0002c	c7 46 10 00 00
	00 00		 mov	 DWORD PTR [esi+16], 0
; File c:\program files (x86)\microsoft visual studio 11.0\vc\include\iosfwd

; 564  : 		_Left = _Right;

  00033	c6 06 00	 mov	 BYTE PTR [esi], 0

; 523  : 			: _CSTD strlen(_First));

  00036	80 3a 00	 cmp	 BYTE PTR [edx], 0
  00039	75 14		 jne	 SHORT $LN47@message
  0003b	33 c9		 xor	 ecx, ecx
; File c:\program files (x86)\microsoft visual studio 11.0\vc\include\xstring

; 1144 : 		return (assign(_Ptr, _Traits::length(_Ptr)));

  0003d	51		 push	 ecx
  0003e	52		 push	 edx
  0003f	8b ce		 mov	 ecx, esi
  00041	e8 00 00 00 00	 call	 ?assign@?$basic_string@DU?$char_traits@D@std@@V?$allocator@D@2@@std@@QAEAAV12@PBDI@Z ; std::basic_string<char,std::char_traits<char>,std::allocator<char> >::assign
; File c:\program files (x86)\microsoft visual studio 11.0\vc\include\system_error

; 636  : 		return (string(_Name != 0 ? _Name : "unknown error"));

  00046	8b c6		 mov	 eax, esi
  00048	5e		 pop	 esi

; 637  : 		}

  00049	8b e5		 mov	 esp, ebp
  0004b	5d		 pop	 ebp
  0004c	c2 08 00	 ret	 8
$LN47@message:
; File c:\program files (x86)\microsoft visual studio 11.0\vc\include\iosfwd

; 523  : 			: _CSTD strlen(_First));

  0004f	8b ca		 mov	 ecx, edx
  00051	57		 push	 edi
  00052	8d 79 01	 lea	 edi, DWORD PTR [ecx+1]
$LL49@message:
  00055	8a 01		 mov	 al, BYTE PTR [ecx]
  00057	41		 inc	 ecx
  00058	84 c0		 test	 al, al
  0005a	75 f9		 jne	 SHORT $LL49@message
  0005c	2b cf		 sub	 ecx, edi
  0005e	5f		 pop	 edi
; File c:\program files (x86)\microsoft visual studio 11.0\vc\include\xstring

; 1144 : 		return (assign(_Ptr, _Traits::length(_Ptr)));

  0005f	51		 push	 ecx
  00060	52		 push	 edx
  00061	8b ce		 mov	 ecx, esi
  00063	e8 00 00 00 00	 call	 ?assign@?$basic_string@DU?$char_traits@D@std@@V?$allocator@D@2@@std@@QAEAAV12@PBDI@Z ; std::basic_string<char,std::char_traits<char>,std::allocator<char> >::assign
; File c:\program files (x86)\microsoft visual studio 11.0\vc\include\system_error

; 636  : 		return (string(_Name != 0 ? _Name : "unknown error"));

  00068	8b c6		 mov	 eax, esi
  0006a	5e		 pop	 esi

; 637  : 		}

  0006b	8b e5		 mov	 esp, ebp
  0006d	5d		 pop	 ebp
  0006e	c2 08 00	 ret	 8
?message@_System_error_category@std@@UBE?AV?$basic_string@DU?$char_traits@D@std@@V?$allocator@D@2@@2@H@Z ENDP ; std::_System_error_category::message
_TEXT	ENDS
; Function compile flags: /Ogtp
; File c:\program files (x86)\microsoft visual studio 11.0\vc\include\system_error
;	COMDAT ?default_error_condition@_System_error_category@std@@UBE?AVerror_condition@2@H@Z
_TEXT	SEGMENT
___$ReturnUdt$ = 8					; size = 4
__Errval$ = 12						; size = 4
?default_error_condition@_System_error_category@std@@UBE?AVerror_condition@2@H@Z PROC ; std::_System_error_category::default_error_condition, COMDAT
; _this$ = ecx

; 641  : 		{	// make error_condition for error code (generic if possible)

  00000	55		 push	 ebp
  00001	8b ec		 mov	 ebp, esp
  00003	56		 push	 esi

; 642  : 		if (_Syserror_map(_Errval))

  00004	8b 75 0c	 mov	 esi, DWORD PTR __Errval$[ebp]
  00007	56		 push	 esi
  00008	ff 15 00 00 00
	00		 call	 DWORD PTR __imp_?_Syserror_map@std@@YAPBDH@Z
  0000e	83 c4 04	 add	 esp, 4
  00011	85 c0		 test	 eax, eax

; 316  : 		{	// construct from error code and category

  00013	8b 45 08	 mov	 eax, DWORD PTR ___$ReturnUdt$[ebp]
  00016	89 30		 mov	 DWORD PTR [eax], esi

; 642  : 		if (_Syserror_map(_Errval))

  00018	74 0c		 je	 SHORT $LN2@default_er

; 316  : 		{	// construct from error code and category

  0001a	c7 40 04 00 00
	00 00		 mov	 DWORD PTR [eax+4], OFFSET ?_Generic_object@?$_Error_objects@H@std@@2V_Generic_error_category@2@A ; std::_Error_objects<int>::_Generic_object
  00021	5e		 pop	 esi

; 643  : 			return (error_condition(_Errval, generic_category()));
; 644  : 		else
; 645  : 			return (error_condition(_Errval, system_category()));
; 646  : 		}

  00022	5d		 pop	 ebp
  00023	c2 08 00	 ret	 8
$LN2@default_er:

; 316  : 		{	// construct from error code and category

  00026	c7 40 04 00 00
	00 00		 mov	 DWORD PTR [eax+4], OFFSET ?_System_object@?$_Error_objects@H@std@@2V_System_error_category@2@A ; std::_Error_objects<int>::_System_object
  0002d	5e		 pop	 esi

; 643  : 			return (error_condition(_Errval, generic_category()));
; 644  : 		else
; 645  : 			return (error_condition(_Errval, system_category()));
; 646  : 		}

  0002e	5d		 pop	 ebp
  0002f	c2 08 00	 ret	 8
?default_error_condition@_System_error_category@std@@UBE?AVerror_condition@2@H@Z ENDP ; std::_System_error_category::default_error_condition
_TEXT	ENDS
; Function compile flags: /Ogtp
; File c:\program files (x86)\microsoft visual studio 11.0\vc\include\system_error
;	COMDAT ??_G_System_error_category@std@@UAEPAXI@Z
_TEXT	SEGMENT
___flags$ = 8						; size = 4
??_G_System_error_category@std@@UAEPAXI@Z PROC		; std::_System_error_category::`scalar deleting destructor', COMDAT
; _this$ = ecx
  00000	55		 push	 ebp
  00001	8b ec		 mov	 ebp, esp
  00003	f6 45 08 01	 test	 BYTE PTR ___flags$[ebp], 1
  00007	56		 push	 esi
  00008	8b f1		 mov	 esi, ecx

; 167  : 		{	// destroy the object

  0000a	c7 06 00 00 00
	00		 mov	 DWORD PTR [esi], OFFSET ??_7error_category@std@@6B@
  00010	74 0a		 je	 SHORT $LN10@scalar
  00012	56		 push	 esi
  00013	ff 15 00 00 00
	00		 call	 DWORD PTR __imp_??3@YAXPAX@Z
  00019	83 c4 04	 add	 esp, 4
$LN10@scalar:
  0001c	8b c6		 mov	 eax, esi
  0001e	5e		 pop	 esi
  0001f	5d		 pop	 ebp
  00020	c2 04 00	 ret	 4
??_G_System_error_category@std@@UAEPAXI@Z ENDP		; std::_System_error_category::`scalar deleting destructor'
_TEXT	ENDS
; Function compile flags: /Ogtp
; File c:\program files (x86)\microsoft visual studio 11.0\vc\include\system_error
;	COMDAT ??1_System_error_category@std@@UAE@XZ
_TEXT	SEGMENT
??1_System_error_category@std@@UAE@XZ PROC		; std::_System_error_category::~_System_error_category, COMDAT
; _this$ = ecx

; 167  : 		{	// destroy the object

  00000	c7 01 00 00 00
	00		 mov	 DWORD PTR [ecx], OFFSET ??_7error_category@std@@6B@
  00006	c3		 ret	 0
??1_System_error_category@std@@UAE@XZ ENDP		; std::_System_error_category::~_System_error_category
_TEXT	ENDS
; Function compile flags: /Ogtp
; File c:\program files (x86)\microsoft visual studio 11.0\vc\include\system_error
;	COMDAT ?generic_category@std@@YAABVerror_category@1@XZ
_TEXT	SEGMENT
?generic_category@std@@YAABVerror_category@1@XZ PROC	; std::generic_category, COMDAT

; 670  : 	return (_Error_objects<int>::_Generic_object);

  00000	b8 00 00 00 00	 mov	 eax, OFFSET ?_Generic_object@?$_Error_objects@H@std@@2V_Generic_error_category@2@A ; std::_Error_objects<int>::_Generic_object

; 671  : 	}

  00005	c3		 ret	 0
?generic_category@std@@YAABVerror_category@1@XZ ENDP	; std::generic_category
_TEXT	ENDS
; Function compile flags: /Ogtp
; File c:\program files (x86)\microsoft visual studio 11.0\vc\include\system_error
;	COMDAT ?system_category@std@@YAABVerror_category@1@XZ
_TEXT	SEGMENT
?system_category@std@@YAABVerror_category@1@XZ PROC	; std::system_category, COMDAT

; 680  : 	return (_Error_objects<int>::_System_object);

  00000	b8 00 00 00 00	 mov	 eax, OFFSET ?_System_object@?$_Error_objects@H@std@@2V_System_error_category@2@A ; std::_Error_objects<int>::_System_object

; 681  : 	}

  00005	c3		 ret	 0
?system_category@std@@YAABVerror_category@1@XZ ENDP	; std::system_category
_TEXT	ENDS
; Function compile flags: /Ogtp
; File c:\users\tomkein\documents\visual studio 2012\projects\fxconf3\test\test.cpp
;	COMDAT ?geta@@YANNN@Z
_TEXT	SEGMENT
?geta@@YANNN@Z PROC					; geta, COMDAT
; _a$ = xmm0l
; _b$ = xmm1l

; 17   : 	return type? a-b: b-a;

  00000	83 3d 00 00 00
	00 00		 cmp	 DWORD PTR ?type@@3HA, 0	; type
  00007	74 05		 je	 SHORT $LN3@geta
  00009	f2 0f 5c c1	 subsd	 xmm0, xmm1

; 18   : }

  0000d	c3		 ret	 0
$LN3@geta:

; 17   : 	return type? a-b: b-a;

  0000e	f2 0f 5c c8	 subsd	 xmm1, xmm0
  00012	66 0f 28 c1	 movapd	 xmm0, xmm1

; 18   : }

  00016	c3		 ret	 0
?geta@@YANNN@Z ENDP					; geta
_TEXT	ENDS
; Function compile flags: /Ogtp
; File c:\users\tomkein\documents\visual studio 2012\projects\fxconf3\test\test.cpp
;	COMDAT ?getb@@YANNN@Z
_TEXT	SEGMENT
?getb@@YANNN@Z PROC					; getb, COMDAT
; _a$ = xmm0l
; _b$ = xmm1l

; 21   : 	return(ss[type]*a - ss[type]*b);

  00000	a1 00 00 00 00	 mov	 eax, DWORD PTR ?type@@3HA ; type
  00005	66 0f 28 d0	 movapd	 xmm2, xmm0
  00009	66 0f 6e 1c 85
	00 00 00 00	 movd	 xmm3, DWORD PTR ?ss@@3PAHA[eax*4]
  00012	f3 0f e6 db	 cvtdq2pd xmm3, xmm3
  00016	66 0f 28 c3	 movapd	 xmm0, xmm3
  0001a	f2 0f 59 c2	 mulsd	 xmm0, xmm2
  0001e	f2 0f 59 d9	 mulsd	 xmm3, xmm1
  00022	f2 0f 5c c3	 subsd	 xmm0, xmm3

; 22   : }

  00026	c3		 ret	 0
?getb@@YANNN@Z ENDP					; getb
_TEXT	ENDS
; Function compile flags: /Ogtp
; File c:\users\tomkein\documents\visual studio 2012\projects\fxconf3\test\test.cpp
;	COMDAT _wmain
_TEXT	SEGMENT
_a$19$ = -16						; size = 8
_s$ = -8						; size = 4
__$ArrayPad$ = -4					; size = 4
_argc$ = 8						; size = 4
_argv$ = 12						; size = 4
_wmain	PROC						; COMDAT

; 33   : {

  00000	55		 push	 ebp
  00001	8b ec		 mov	 ebp, esp
  00003	83 e4 c0	 and	 esp, -64		; ffffffc0H
  00006	83 ec 34	 sub	 esp, 52			; 00000034H
  00009	a1 00 00 00 00	 mov	 eax, DWORD PTR ___security_cookie
  0000e	33 c4		 xor	 eax, esp
  00010	89 44 24 30	 mov	 DWORD PTR __$ArrayPad$[esp+52], eax
  00014	53		 push	 ebx
  00015	56		 push	 esi
  00016	57		 push	 edi

; 34   : 	cout << "hello world" << endl;

  00017	ff 35 00 00 00
	00		 push	 DWORD PTR __imp_?endl@std@@YAAAV?$basic_ostream@DU?$char_traits@D@std@@@1@AAV21@@Z
  0001d	ba 00 00 00 00	 mov	 edx, OFFSET ??_C@_0M@LACCCNMM@hello?5world?$AA@
  00022	51		 push	 ecx
  00023	8b 0d 00 00 00
	00		 mov	 ecx, DWORD PTR __imp_?cout@std@@3V?$basic_ostream@DU?$char_traits@D@std@@@1@A
  00029	e8 00 00 00 00	 call	 ??$?6U?$char_traits@D@std@@@std@@YAAAV?$basic_ostream@DU?$char_traits@D@std@@@0@AAV10@PBD@Z ; std::operator<<<std::char_traits<char> >
  0002e	83 c4 04	 add	 esp, 4
  00031	8b c8		 mov	 ecx, eax
  00033	ff 15 00 00 00
	00		 call	 DWORD PTR __imp_??6?$basic_ostream@DU?$char_traits@D@std@@@std@@QAEAAV01@P6AAAV01@AAV01@@Z@Z

; 35   : 	double a = 1.234;
; 36   : 	double b = 1.345;
; 37   : 	double* c = 0;
; 38   : 	type = 1;
; 39   : 	int i;
; 40   : 	long t1 = clock();

  00039	8b 3d 00 00 00
	00		 mov	 edi, DWORD PTR __imp__clock
  0003f	c7 05 00 00 00
	00 01 00 00 00	 mov	 DWORD PTR ?type@@3HA, 1	; type
  00049	ff d7		 call	 edi
  0004b	f2 0f 10 05 00
	00 00 00	 movsd	 xmm0, QWORD PTR __real@3ff5851eb851eb85
  00053	8b 0d 00 00 00
	00		 mov	 ecx, DWORD PTR ?type@@3HA ; type
  00059	f2 0f 10 0d 00
	00 00 00	 movsd	 xmm1, QWORD PTR __real@3ff3be76c8b43958
  00061	8b d8		 mov	 ebx, eax
  00063	be 00 e1 f5 05	 mov	 esi, 100000000		; 05f5e100H
  00068	eb 06 8d 9b 00
	00 00 00	 npad	 8
$LL6@wmain:

; 42   : 	{
; 43   : 		type = 1-type;

  00070	ba 01 00 00 00	 mov	 edx, 1
  00075	2b d1		 sub	 edx, ecx

; 17   : 	return type? a-b: b-a;

  00077	74 06		 je	 SHORT $LN11@wmain
  00079	f2 0f 5c c8	 subsd	 xmm1, xmm0
  0007d	eb 10		 jmp	 SHORT $LN12@wmain
$LN11@wmain:
  0007f	f2 0f 5c c1	 subsd	 xmm0, xmm1
  00083	66 0f 28 c8	 movapd	 xmm1, xmm0
  00087	f2 0f 10 05 00
	00 00 00	 movsd	 xmm0, QWORD PTR __real@3ff5851eb851eb85
$LN12@wmain:

; 42   : 	{
; 43   : 		type = 1-type;

  0008f	b8 01 00 00 00	 mov	 eax, 1
  00094	2b c2		 sub	 eax, edx

; 17   : 	return type? a-b: b-a;

  00096	74 06		 je	 SHORT $LN22@wmain
  00098	f2 0f 5c c8	 subsd	 xmm1, xmm0
  0009c	eb 10		 jmp	 SHORT $LN23@wmain
$LN22@wmain:
  0009e	f2 0f 5c c1	 subsd	 xmm0, xmm1
  000a2	66 0f 28 c8	 movapd	 xmm1, xmm0
  000a6	f2 0f 10 05 00
	00 00 00	 movsd	 xmm0, QWORD PTR __real@3ff5851eb851eb85
$LN23@wmain:

; 42   : 	{
; 43   : 		type = 1-type;

  000ae	b9 01 00 00 00	 mov	 ecx, 1
  000b3	2b c8		 sub	 ecx, eax

; 17   : 	return type? a-b: b-a;

  000b5	74 06		 je	 SHORT $LN24@wmain
  000b7	f2 0f 5c c8	 subsd	 xmm1, xmm0
  000bb	eb 10		 jmp	 SHORT $LN25@wmain
$LN24@wmain:
  000bd	f2 0f 5c c1	 subsd	 xmm0, xmm1
  000c1	66 0f 28 c8	 movapd	 xmm1, xmm0
  000c5	f2 0f 10 05 00
	00 00 00	 movsd	 xmm0, QWORD PTR __real@3ff5851eb851eb85
$LN25@wmain:

; 42   : 	{
; 43   : 		type = 1-type;

  000cd	b8 01 00 00 00	 mov	 eax, 1
  000d2	2b c1		 sub	 eax, ecx

; 17   : 	return type? a-b: b-a;

  000d4	74 06		 je	 SHORT $LN26@wmain
  000d6	f2 0f 5c c8	 subsd	 xmm1, xmm0
  000da	eb 10		 jmp	 SHORT $LN27@wmain
$LN26@wmain:
  000dc	f2 0f 5c c1	 subsd	 xmm0, xmm1
  000e0	66 0f 28 c8	 movapd	 xmm1, xmm0
  000e4	f2 0f 10 05 00
	00 00 00	 movsd	 xmm0, QWORD PTR __real@3ff5851eb851eb85
$LN27@wmain:

; 42   : 	{
; 43   : 		type = 1-type;

  000ec	b9 01 00 00 00	 mov	 ecx, 1
  000f1	2b c8		 sub	 ecx, eax

; 17   : 	return type? a-b: b-a;

  000f3	74 06		 je	 SHORT $LN28@wmain
  000f5	f2 0f 5c c8	 subsd	 xmm1, xmm0
  000f9	eb 10		 jmp	 SHORT $LN29@wmain
$LN28@wmain:
  000fb	f2 0f 5c c1	 subsd	 xmm0, xmm1
  000ff	66 0f 28 c8	 movapd	 xmm1, xmm0
  00103	f2 0f 10 05 00
	00 00 00	 movsd	 xmm0, QWORD PTR __real@3ff5851eb851eb85
$LN29@wmain:

; 42   : 	{
; 43   : 		type = 1-type;

  0010b	b8 01 00 00 00	 mov	 eax, 1
  00110	2b c1		 sub	 eax, ecx

; 17   : 	return type? a-b: b-a;

  00112	74 06		 je	 SHORT $LN30@wmain
  00114	f2 0f 5c c8	 subsd	 xmm1, xmm0
  00118	eb 10		 jmp	 SHORT $LN31@wmain
$LN30@wmain:
  0011a	f2 0f 5c c1	 subsd	 xmm0, xmm1
  0011e	66 0f 28 c8	 movapd	 xmm1, xmm0
  00122	f2 0f 10 05 00
	00 00 00	 movsd	 xmm0, QWORD PTR __real@3ff5851eb851eb85
$LN31@wmain:

; 42   : 	{
; 43   : 		type = 1-type;

  0012a	b9 01 00 00 00	 mov	 ecx, 1
  0012f	2b c8		 sub	 ecx, eax

; 17   : 	return type? a-b: b-a;

  00131	74 06		 je	 SHORT $LN32@wmain
  00133	f2 0f 5c c8	 subsd	 xmm1, xmm0
  00137	eb 10		 jmp	 SHORT $LN33@wmain
$LN32@wmain:
  00139	f2 0f 5c c1	 subsd	 xmm0, xmm1
  0013d	66 0f 28 c8	 movapd	 xmm1, xmm0
  00141	f2 0f 10 05 00
	00 00 00	 movsd	 xmm0, QWORD PTR __real@3ff5851eb851eb85
$LN33@wmain:

; 42   : 	{
; 43   : 		type = 1-type;

  00149	b8 01 00 00 00	 mov	 eax, 1
  0014e	2b c1		 sub	 eax, ecx

; 17   : 	return type? a-b: b-a;

  00150	74 06		 je	 SHORT $LN34@wmain
  00152	f2 0f 5c c8	 subsd	 xmm1, xmm0
  00156	eb 10		 jmp	 SHORT $LN35@wmain
$LN34@wmain:
  00158	f2 0f 5c c1	 subsd	 xmm0, xmm1
  0015c	66 0f 28 c8	 movapd	 xmm1, xmm0
  00160	f2 0f 10 05 00
	00 00 00	 movsd	 xmm0, QWORD PTR __real@3ff5851eb851eb85
$LN35@wmain:

; 42   : 	{
; 43   : 		type = 1-type;

  00168	ba 01 00 00 00	 mov	 edx, 1
  0016d	2b d0		 sub	 edx, eax

; 17   : 	return type? a-b: b-a;

  0016f	74 06		 je	 SHORT $LN36@wmain
  00171	f2 0f 5c c8	 subsd	 xmm1, xmm0
  00175	eb 10		 jmp	 SHORT $LN37@wmain
$LN36@wmain:
  00177	f2 0f 5c c1	 subsd	 xmm0, xmm1
  0017b	66 0f 28 c8	 movapd	 xmm1, xmm0
  0017f	f2 0f 10 05 00
	00 00 00	 movsd	 xmm0, QWORD PTR __real@3ff5851eb851eb85
$LN37@wmain:

; 42   : 	{
; 43   : 		type = 1-type;

  00187	b9 01 00 00 00	 mov	 ecx, 1
  0018c	2b ca		 sub	 ecx, edx

; 17   : 	return type? a-b: b-a;

  0018e	74 06		 je	 SHORT $LN38@wmain
  00190	f2 0f 5c c8	 subsd	 xmm1, xmm0
  00194	eb 10		 jmp	 SHORT $LN39@wmain
$LN38@wmain:
  00196	f2 0f 5c c1	 subsd	 xmm0, xmm1
  0019a	66 0f 28 c8	 movapd	 xmm1, xmm0
  0019e	f2 0f 10 05 00
	00 00 00	 movsd	 xmm0, QWORD PTR __real@3ff5851eb851eb85
$LN39@wmain:

; 41   : 	for (i=0; i<1000000000; i++)

  001a6	4e		 dec	 esi
  001a7	0f 85 c3 fe ff
	ff		 jne	 $LL6@wmain

; 42   : 	{
; 43   : 		type = 1-type;

  001ad	89 0d 00 00 00
	00		 mov	 DWORD PTR ?type@@3HA, ecx ; type
  001b3	f2 0f 11 4c 24
	30		 movsd	 QWORD PTR _a$19$[esp+64], xmm1

; 44   : 		a = geta(a,b);
; 45   : 	}
; 46   : 	long t2 = clock();

  001b9	ff d7		 call	 edi

; 47   : 	cout << "time: " << t2-t1 << endl;

  001bb	ff 35 00 00 00
	00		 push	 DWORD PTR __imp_?endl@std@@YAAAV?$basic_ostream@DU?$char_traits@D@std@@@1@AAV21@@Z
  001c1	8b 0d 00 00 00
	00		 mov	 ecx, DWORD PTR __imp_?cout@std@@3V?$basic_ostream@DU?$char_traits@D@std@@@1@A
  001c7	2b c3		 sub	 eax, ebx
  001c9	50		 push	 eax
  001ca	ba 00 00 00 00	 mov	 edx, OFFSET ??_C@_06IEGNHKAC@time?3?5?$AA@
  001cf	e8 00 00 00 00	 call	 ??$?6U?$char_traits@D@std@@@std@@YAAAV?$basic_ostream@DU?$char_traits@D@std@@@0@AAV10@PBD@Z ; std::operator<<<std::char_traits<char> >
  001d4	8b c8		 mov	 ecx, eax
  001d6	ff 15 00 00 00
	00		 call	 DWORD PTR __imp_??6?$basic_ostream@DU?$char_traits@D@std@@@std@@QAEAAV01@J@Z
  001dc	8b c8		 mov	 ecx, eax
  001de	ff 15 00 00 00
	00		 call	 DWORD PTR __imp_??6?$basic_ostream@DU?$char_traits@D@std@@@std@@QAEAAV01@P6AAAV01@AAV01@@Z@Z

; 48   : 	cout << "res: " << a << endl;

  001e4	ff 35 00 00 00
	00		 push	 DWORD PTR __imp_?endl@std@@YAAAV?$basic_ostream@DU?$char_traits@D@std@@@1@AAV21@@Z
  001ea	f2 0f 10 44 24
	34		 movsd	 xmm0, QWORD PTR _a$19$[esp+68]
  001f0	8b 0d 00 00 00
	00		 mov	 ecx, DWORD PTR __imp_?cout@std@@3V?$basic_ostream@DU?$char_traits@D@std@@@1@A
  001f6	83 ec 0c	 sub	 esp, 12			; 0000000cH
  001f9	ba 00 00 00 00	 mov	 edx, OFFSET ??_C@_05JMPHEBDN@res?3?5?$AA@
  001fe	f2 0f 11 44 24
	04		 movsd	 QWORD PTR [esp+4], xmm0
  00204	e8 00 00 00 00	 call	 ??$?6U?$char_traits@D@std@@@std@@YAAAV?$basic_ostream@DU?$char_traits@D@std@@@0@AAV10@PBD@Z ; std::operator<<<std::char_traits<char> >
  00209	83 c4 04	 add	 esp, 4
  0020c	8b c8		 mov	 ecx, eax
  0020e	ff 15 00 00 00
	00		 call	 DWORD PTR __imp_??6?$basic_ostream@DU?$char_traits@D@std@@@std@@QAEAAV01@N@Z
  00214	8b c8		 mov	 ecx, eax
  00216	ff 15 00 00 00
	00		 call	 DWORD PTR __imp_??6?$basic_ostream@DU?$char_traits@D@std@@@std@@QAEAAV01@P6AAAV01@AAV01@@Z@Z

; 49   : 
; 50   : 	t1 = clock();

  0021c	ff d7		 call	 edi
  0021e	8b 15 00 00 00
	00		 mov	 edx, DWORD PTR ?type@@3HA ; type
  00224	f2 0f 10 54 24
	30		 movsd	 xmm2, QWORD PTR _a$19$[esp+64]
  0022a	f2 0f 10 1d 00
	00 00 00	 movsd	 xmm3, QWORD PTR __real@3ff5851eb851eb85
  00232	8b d8		 mov	 ebx, eax
  00234	be 00 e1 f5 05	 mov	 esi, 100000000		; 05f5e100H
  00239	8d a4 24 00 00
	00 00		 npad	 7
$LL3@wmain:

; 52   : 	{
; 53   : 		type = 1-type;

  00240	b9 01 00 00 00	 mov	 ecx, 1
  00245	2b ca		 sub	 ecx, edx
  00247	b8 01 00 00 00	 mov	 eax, 1
  0024c	66 0f 6e 04 8d
	00 00 00 00	 movd	 xmm0, DWORD PTR ?ss@@3PAHA[ecx*4]

; 18   : }
; 19   : double getb(double a, double b)
; 20   : {
; 21   : 	return(ss[type]*a - ss[type]*b);

  00255	f3 0f e6 c0	 cvtdq2pd xmm0, xmm0

; 52   : 	{
; 53   : 		type = 1-type;

  00259	2b c1		 sub	 eax, ecx

; 18   : }
; 19   : double getb(double a, double b)
; 20   : {
; 21   : 	return(ss[type]*a - ss[type]*b);

  0025b	66 0f 28 c8	 movapd	 xmm1, xmm0
  0025f	f2 0f 59 ca	 mulsd	 xmm1, xmm2
  00263	f2 0f 59 c3	 mulsd	 xmm0, xmm3

; 52   : 	{
; 53   : 		type = 1-type;

  00267	b9 01 00 00 00	 mov	 ecx, 1
  0026c	2b c8		 sub	 ecx, eax
  0026e	ba 01 00 00 00	 mov	 edx, 1

; 18   : }
; 19   : double getb(double a, double b)
; 20   : {
; 21   : 	return(ss[type]*a - ss[type]*b);

  00273	f2 0f 5c c8	 subsd	 xmm1, xmm0
  00277	66 0f 6e 04 85
	00 00 00 00	 movd	 xmm0, DWORD PTR ?ss@@3PAHA[eax*4]
  00280	f3 0f e6 c0	 cvtdq2pd xmm0, xmm0

; 52   : 	{
; 53   : 		type = 1-type;

  00284	b8 01 00 00 00	 mov	 eax, 1

; 18   : }
; 19   : double getb(double a, double b)
; 20   : {
; 21   : 	return(ss[type]*a - ss[type]*b);

  00289	66 0f 28 d0	 movapd	 xmm2, xmm0
  0028d	f2 0f 59 d1	 mulsd	 xmm2, xmm1
  00291	f2 0f 59 c3	 mulsd	 xmm0, xmm3

; 52   : 	{
; 53   : 		type = 1-type;

  00295	2b c1		 sub	 eax, ecx

; 18   : }
; 19   : double getb(double a, double b)
; 20   : {
; 21   : 	return(ss[type]*a - ss[type]*b);

  00297	f2 0f 5c d0	 subsd	 xmm2, xmm0
  0029b	66 0f 6e 04 8d
	00 00 00 00	 movd	 xmm0, DWORD PTR ?ss@@3PAHA[ecx*4]
  002a4	f3 0f e6 c0	 cvtdq2pd xmm0, xmm0

; 52   : 	{
; 53   : 		type = 1-type;

  002a8	b9 01 00 00 00	 mov	 ecx, 1

; 18   : }
; 19   : double getb(double a, double b)
; 20   : {
; 21   : 	return(ss[type]*a - ss[type]*b);

  002ad	66 0f 28 c8	 movapd	 xmm1, xmm0
  002b1	f2 0f 59 ca	 mulsd	 xmm1, xmm2
  002b5	f2 0f 59 c3	 mulsd	 xmm0, xmm3

; 52   : 	{
; 53   : 		type = 1-type;

  002b9	2b c8		 sub	 ecx, eax

; 18   : }
; 19   : double getb(double a, double b)
; 20   : {
; 21   : 	return(ss[type]*a - ss[type]*b);

  002bb	f2 0f 5c c8	 subsd	 xmm1, xmm0
  002bf	66 0f 6e 04 85
	00 00 00 00	 movd	 xmm0, DWORD PTR ?ss@@3PAHA[eax*4]
  002c8	f3 0f e6 c0	 cvtdq2pd xmm0, xmm0

; 52   : 	{
; 53   : 		type = 1-type;

  002cc	b8 01 00 00 00	 mov	 eax, 1

; 18   : }
; 19   : double getb(double a, double b)
; 20   : {
; 21   : 	return(ss[type]*a - ss[type]*b);

  002d1	66 0f 28 d0	 movapd	 xmm2, xmm0
  002d5	f2 0f 59 d1	 mulsd	 xmm2, xmm1
  002d9	f2 0f 59 c3	 mulsd	 xmm0, xmm3

; 52   : 	{
; 53   : 		type = 1-type;

  002dd	2b c1		 sub	 eax, ecx

; 18   : }
; 19   : double getb(double a, double b)
; 20   : {
; 21   : 	return(ss[type]*a - ss[type]*b);

  002df	f2 0f 5c d0	 subsd	 xmm2, xmm0
  002e3	66 0f 6e 04 8d
	00 00 00 00	 movd	 xmm0, DWORD PTR ?ss@@3PAHA[ecx*4]
  002ec	f3 0f e6 c0	 cvtdq2pd xmm0, xmm0

; 52   : 	{
; 53   : 		type = 1-type;

  002f0	b9 01 00 00 00	 mov	 ecx, 1

; 18   : }
; 19   : double getb(double a, double b)
; 20   : {
; 21   : 	return(ss[type]*a - ss[type]*b);

  002f5	66 0f 28 c8	 movapd	 xmm1, xmm0
  002f9	f2 0f 59 ca	 mulsd	 xmm1, xmm2
  002fd	f2 0f 59 c3	 mulsd	 xmm0, xmm3

; 52   : 	{
; 53   : 		type = 1-type;

  00301	2b c8		 sub	 ecx, eax

; 18   : }
; 19   : double getb(double a, double b)
; 20   : {
; 21   : 	return(ss[type]*a - ss[type]*b);

  00303	f2 0f 5c c8	 subsd	 xmm1, xmm0
  00307	66 0f 6e 04 85
	00 00 00 00	 movd	 xmm0, DWORD PTR ?ss@@3PAHA[eax*4]
  00310	f3 0f e6 c0	 cvtdq2pd xmm0, xmm0

; 52   : 	{
; 53   : 		type = 1-type;

  00314	b8 01 00 00 00	 mov	 eax, 1

; 18   : }
; 19   : double getb(double a, double b)
; 20   : {
; 21   : 	return(ss[type]*a - ss[type]*b);

  00319	66 0f 28 d0	 movapd	 xmm2, xmm0
  0031d	f2 0f 59 d1	 mulsd	 xmm2, xmm1
  00321	f2 0f 59 c3	 mulsd	 xmm0, xmm3

; 52   : 	{
; 53   : 		type = 1-type;

  00325	2b c1		 sub	 eax, ecx

; 18   : }
; 19   : double getb(double a, double b)
; 20   : {
; 21   : 	return(ss[type]*a - ss[type]*b);

  00327	f2 0f 5c d0	 subsd	 xmm2, xmm0
  0032b	66 0f 6e 04 8d
	00 00 00 00	 movd	 xmm0, DWORD PTR ?ss@@3PAHA[ecx*4]
  00334	f3 0f e6 c0	 cvtdq2pd xmm0, xmm0

; 52   : 	{
; 53   : 		type = 1-type;

  00338	b9 01 00 00 00	 mov	 ecx, 1

; 18   : }
; 19   : double getb(double a, double b)
; 20   : {
; 21   : 	return(ss[type]*a - ss[type]*b);

  0033d	66 0f 28 c8	 movapd	 xmm1, xmm0
  00341	f2 0f 59 ca	 mulsd	 xmm1, xmm2
  00345	f2 0f 59 c3	 mulsd	 xmm0, xmm3

; 52   : 	{
; 53   : 		type = 1-type;

  00349	2b c8		 sub	 ecx, eax
  0034b	2b d1		 sub	 edx, ecx
  0034d	4e		 dec	 esi

; 18   : }
; 19   : double getb(double a, double b)
; 20   : {
; 21   : 	return(ss[type]*a - ss[type]*b);

  0034e	f2 0f 5c c8	 subsd	 xmm1, xmm0
  00352	66 0f 6e 04 85
	00 00 00 00	 movd	 xmm0, DWORD PTR ?ss@@3PAHA[eax*4]
  0035b	f3 0f e6 c0	 cvtdq2pd xmm0, xmm0
  0035f	66 0f 28 d0	 movapd	 xmm2, xmm0
  00363	f2 0f 59 d1	 mulsd	 xmm2, xmm1
  00367	f2 0f 59 c3	 mulsd	 xmm0, xmm3
  0036b	f2 0f 5c d0	 subsd	 xmm2, xmm0
  0036f	66 0f 6e 04 8d
	00 00 00 00	 movd	 xmm0, DWORD PTR ?ss@@3PAHA[ecx*4]
  00378	f3 0f e6 c0	 cvtdq2pd xmm0, xmm0
  0037c	66 0f 28 c8	 movapd	 xmm1, xmm0
  00380	f2 0f 59 ca	 mulsd	 xmm1, xmm2
  00384	f2 0f 59 c3	 mulsd	 xmm0, xmm3
  00388	f2 0f 5c c8	 subsd	 xmm1, xmm0
  0038c	66 0f 6e 04 95
	00 00 00 00	 movd	 xmm0, DWORD PTR ?ss@@3PAHA[edx*4]
  00395	f3 0f e6 c0	 cvtdq2pd xmm0, xmm0
  00399	66 0f 28 d0	 movapd	 xmm2, xmm0
  0039d	f2 0f 59 d1	 mulsd	 xmm2, xmm1
  003a1	f2 0f 59 c3	 mulsd	 xmm0, xmm3
  003a5	f2 0f 5c d0	 subsd	 xmm2, xmm0

; 51   : 	for (i=0; i<1000000000; i++)

  003a9	0f 85 91 fe ff
	ff		 jne	 $LL3@wmain

; 52   : 	{
; 53   : 		type = 1-type;

  003af	89 15 00 00 00
	00		 mov	 DWORD PTR ?type@@3HA, edx ; type
  003b5	f2 0f 11 54 24
	30		 movsd	 QWORD PTR _a$19$[esp+64], xmm2

; 54   : 		a = getb(a,b);
; 55   : 	}
; 56   : 	t2 = clock();

  003bb	ff d7		 call	 edi

; 57   : 	cout << "time: " << t2-t1 << endl;

  003bd	ff 35 00 00 00
	00		 push	 DWORD PTR __imp_?endl@std@@YAAAV?$basic_ostream@DU?$char_traits@D@std@@@1@AAV21@@Z
  003c3	8b 0d 00 00 00
	00		 mov	 ecx, DWORD PTR __imp_?cout@std@@3V?$basic_ostream@DU?$char_traits@D@std@@@1@A
  003c9	2b c3		 sub	 eax, ebx
  003cb	50		 push	 eax
  003cc	ba 00 00 00 00	 mov	 edx, OFFSET ??_C@_06IEGNHKAC@time?3?5?$AA@
  003d1	e8 00 00 00 00	 call	 ??$?6U?$char_traits@D@std@@@std@@YAAAV?$basic_ostream@DU?$char_traits@D@std@@@0@AAV10@PBD@Z ; std::operator<<<std::char_traits<char> >
  003d6	8b c8		 mov	 ecx, eax
  003d8	ff 15 00 00 00
	00		 call	 DWORD PTR __imp_??6?$basic_ostream@DU?$char_traits@D@std@@@std@@QAEAAV01@J@Z
  003de	8b c8		 mov	 ecx, eax
  003e0	ff 15 00 00 00
	00		 call	 DWORD PTR __imp_??6?$basic_ostream@DU?$char_traits@D@std@@@std@@QAEAAV01@P6AAAV01@AAV01@@Z@Z

; 58   : 	cout << "res: " << a << endl;

  003e6	ff 35 00 00 00
	00		 push	 DWORD PTR __imp_?endl@std@@YAAAV?$basic_ostream@DU?$char_traits@D@std@@@1@AAV21@@Z
  003ec	f2 0f 10 44 24
	34		 movsd	 xmm0, QWORD PTR _a$19$[esp+68]
  003f2	8b 0d 00 00 00
	00		 mov	 ecx, DWORD PTR __imp_?cout@std@@3V?$basic_ostream@DU?$char_traits@D@std@@@1@A
  003f8	83 ec 0c	 sub	 esp, 12			; 0000000cH
  003fb	ba 00 00 00 00	 mov	 edx, OFFSET ??_C@_05JMPHEBDN@res?3?5?$AA@
  00400	f2 0f 11 44 24
	04		 movsd	 QWORD PTR [esp+4], xmm0
  00406	e8 00 00 00 00	 call	 ??$?6U?$char_traits@D@std@@@std@@YAAAV?$basic_ostream@DU?$char_traits@D@std@@@0@AAV10@PBD@Z ; std::operator<<<std::char_traits<char> >
  0040b	83 c4 04	 add	 esp, 4
  0040e	8b c8		 mov	 ecx, eax
  00410	ff 15 00 00 00
	00		 call	 DWORD PTR __imp_??6?$basic_ostream@DU?$char_traits@D@std@@@std@@QAEAAV01@N@Z
  00416	8b c8		 mov	 ecx, eax
  00418	ff 15 00 00 00
	00		 call	 DWORD PTR __imp_??6?$basic_ostream@DU?$char_traits@D@std@@@std@@QAEAAV01@P6AAAV01@AAV01@@Z@Z

; 59   : 	cout << "ptr: " << c << endl;

  0041e	ff 35 00 00 00
	00		 push	 DWORD PTR __imp_?endl@std@@YAAAV?$basic_ostream@DU?$char_traits@D@std@@@1@AAV21@@Z
  00424	8b 0d 00 00 00
	00		 mov	 ecx, DWORD PTR __imp_?cout@std@@3V?$basic_ostream@DU?$char_traits@D@std@@@1@A
  0042a	56		 push	 esi
  0042b	ba 00 00 00 00	 mov	 edx, OFFSET ??_C@_05DEADDJGB@ptr?3?5?$AA@
  00430	e8 00 00 00 00	 call	 ??$?6U?$char_traits@D@std@@@std@@YAAAV?$basic_ostream@DU?$char_traits@D@std@@@0@AAV10@PBD@Z ; std::operator<<<std::char_traits<char> >
  00435	8b c8		 mov	 ecx, eax
  00437	ff 15 00 00 00
	00		 call	 DWORD PTR __imp_??6?$basic_ostream@DU?$char_traits@D@std@@@std@@QAEAAV01@PBX@Z
  0043d	8b c8		 mov	 ecx, eax
  0043f	ff 15 00 00 00
	00		 call	 DWORD PTR __imp_??6?$basic_ostream@DU?$char_traits@D@std@@@std@@QAEAAV01@P6AAAV01@AAV01@@Z@Z

; 60   : 
; 61   : 	int s;
; 62   : 	cin >> s;

  00445	8b 0d 00 00 00
	00		 mov	 ecx, DWORD PTR __imp_?cin@std@@3V?$basic_istream@DU?$char_traits@D@std@@@1@A
  0044b	8d 44 24 38	 lea	 eax, DWORD PTR _s$[esp+64]
  0044f	50		 push	 eax
  00450	ff 15 00 00 00
	00		 call	 DWORD PTR __imp_??5?$basic_istream@DU?$char_traits@D@std@@@std@@QAEAAV01@AAH@Z

; 63   : 	return 0;
; 64   : }

  00456	8b 4c 24 3c	 mov	 ecx, DWORD PTR __$ArrayPad$[esp+64]
  0045a	5f		 pop	 edi
  0045b	5e		 pop	 esi
  0045c	5b		 pop	 ebx
  0045d	33 cc		 xor	 ecx, esp
  0045f	33 c0		 xor	 eax, eax
  00461	e8 00 00 00 00	 call	 @__security_check_cookie@4
  00466	8b e5		 mov	 esp, ebp
  00468	5d		 pop	 ebp
  00469	c3		 ret	 0
_wmain	ENDP
_TEXT	ENDS
; Function compile flags: /Ogtp
; File c:\program files (x86)\microsoft visual studio 11.0\vc\include\xstring
; File c:\program files (x86)\microsoft visual studio 11.0\vc\include\iosfwd
; File c:\program files (x86)\microsoft visual studio 11.0\vc\include\xstring
; File c:\program files (x86)\microsoft visual studio 11.0\vc\include\iosfwd
; File c:\program files (x86)\microsoft visual studio 11.0\vc\include\xstring
; File c:\program files (x86)\microsoft visual studio 11.0\vc\include\iosfwd
; File c:\program files (x86)\microsoft visual studio 11.0\vc\include\xstring
;	COMDAT ??0?$basic_string@DU?$char_traits@D@std@@V?$allocator@D@2@@std@@QAE@PBD@Z
_TEXT	SEGMENT
__Ptr$ = 8						; size = 4
??0?$basic_string@DU?$char_traits@D@std@@V?$allocator@D@2@@std@@QAE@PBD@Z PROC ; std::basic_string<char,std::char_traits<char>,std::allocator<char> >::basic_string<char,std::char_traits<char>,std::allocator<char> >, COMDAT
; _this$ = ecx

; 791  : 		{	// construct from [_Ptr, <null>)

  00000	55		 push	 ebp
  00001	8b ec		 mov	 ebp, esp
  00003	56		 push	 esi
  00004	8b f1		 mov	 esi, ecx
; File c:\program files (x86)\microsoft visual studio 11.0\vc\include\iosfwd

; 523  : 			: _CSTD strlen(_First));

  00006	8b 4d 08	 mov	 ecx, DWORD PTR __Ptr$[ebp]
; File c:\program files (x86)\microsoft visual studio 11.0\vc\include\xstring

; 2265 : 		this->_Myres = this->_BUF_SIZE - 1;

  00009	c7 46 14 0f 00
	00 00		 mov	 DWORD PTR [esi+20], 15	; 0000000fH

; 1145 : 		}
; 1146 : 
; 1147 : 	_Myt& assign(size_type _Count, _Elem _Ch)
; 1148 : 		{	// assign _Count * _Ch
; 1149 : 		if (_Count == npos)
; 1150 : 			_Xlen();	// result too long
; 1151 : 
; 1152 : 		if (_Grow(_Count))
; 1153 : 			{	// make room and assign new stuff
; 1154 : 			_Chassign(0, _Count, _Ch);
; 1155 : 			_Eos(_Count);
; 1156 : 			}
; 1157 : 		return (*this);
; 1158 : 		}
; 1159 : 
; 1160 : 	template<class _Iter>
; 1161 : 		typename enable_if<_Is_iterator<_Iter>::value,
; 1162 : 			_Myt&>::type
; 1163 : 		assign(_Iter _First, _Iter _Last)
; 1164 : 		{	// assign [First, _Last), input iterators
; 1165 : 		return (replace(begin(), end(), _First, _Last));
; 1166 : 		}
; 1167 : 
; 1168 : 	_Myt& assign(const_pointer _First, const_pointer _Last)
; 1169 : 		{	// assign [First, _Last), const pointers
; 1170 : 		return (replace(begin(), end(), _First, _Last));
; 1171 : 		}
; 1172 : 
; 1173 : 	_Myt& assign(const_iterator _First, const_iterator _Last)
; 1174 : 		{	// assign [First, _Last), const_iterators
; 1175 : 		return (replace(begin(), end(), _First, _Last));
; 1176 : 		}
; 1177 : 
; 1178 : 	_Myt& insert(size_type _Off, const _Myt& _Right)
; 1179 : 		{	// insert _Right at _Off
; 1180 : 		return (insert(_Off, _Right, 0, npos));
; 1181 : 		}
; 1182 : 
; 1183 : 	_Myt& insert(size_type _Off,
; 1184 : 		const _Myt& _Right, size_type _Roff, size_type _Count)
; 1185 : 		{	// insert _Right [_Roff, _Roff + _Count) at _Off
; 1186 : 		if (this->_Mysize < _Off || _Right.size() < _Roff)
; 1187 : 			_Xran();	// _Off or _Roff off end
; 1188 : 		size_type _Num = _Right.size() - _Roff;
; 1189 : 		if (_Num < _Count)
; 1190 : 			_Count = _Num;	// trim _Count to size
; 1191 : 		if (npos - this->_Mysize <= _Count)
; 1192 : 			_Xlen();	// result too long
; 1193 : 
; 1194 : 		if (0 < _Count && _Grow(_Num = this->_Mysize + _Count))
; 1195 : 			{	// make room and insert new stuff
; 1196 : 			_Traits::move(this->_Myptr() + _Off + _Count,
; 1197 : 				this->_Myptr() + _Off,
; 1198 : 				this->_Mysize - _Off);	// empty out hole
; 1199 : 			if (this == &_Right)
; 1200 : 				_Traits::move(this->_Myptr() + _Off,
; 1201 : 					this->_Myptr() + (_Off < _Roff ? _Roff + _Count : _Roff),
; 1202 : 						_Count);	// substring
; 1203 : 			else
; 1204 : 				_Traits::copy(this->_Myptr() + _Off,
; 1205 : 					_Right._Myptr() + _Roff, _Count);	// fill hole
; 1206 : 			_Eos(_Num);
; 1207 : 			}
; 1208 : 		return (*this);
; 1209 : 		}
; 1210 : 
; 1211 : 	_Myt& insert(size_type _Off,
; 1212 : 		const _Elem *_Ptr, size_type _Count)
; 1213 : 		{	// insert [_Ptr, _Ptr + _Count) at _Off
; 1214 :  #if _ITERATOR_DEBUG_LEVEL == 2
; 1215 : 		if (_Count != 0)
; 1216 : 			_DEBUG_POINTER(_Ptr);
; 1217 :  #endif /* _ITERATOR_DEBUG_LEVEL == 2 */
; 1218 : 
; 1219 : 		if (_Inside(_Ptr))
; 1220 : 			return (insert(_Off, *this,
; 1221 : 				_Ptr - this->_Myptr(), _Count));	// substring
; 1222 : 		if (this->_Mysize < _Off)
; 1223 : 			_Xran();	// _Off off end
; 1224 : 		if (npos - this->_Mysize <= _Count)
; 1225 : 			_Xlen();	// result too long
; 1226 : 		size_type _Num;
; 1227 : 		if (0 < _Count && _Grow(_Num = this->_Mysize + _Count))
; 1228 : 			{	// make room and insert new stuff
; 1229 : 			_Traits::move(this->_Myptr() + _Off + _Count,
; 1230 : 				this->_Myptr() + _Off,
; 1231 : 				this->_Mysize - _Off);	// empty out hole
; 1232 : 			_Traits::copy(this->_Myptr() + _Off, _Ptr, _Count);	// fill hole
; 1233 : 			_Eos(_Num);
; 1234 : 			}
; 1235 : 		return (*this);
; 1236 : 		}
; 1237 : 
; 1238 : 	_Myt& insert(size_type _Off, const _Elem *_Ptr)
; 1239 : 		{	// insert [_Ptr, <null>) at _Off
; 1240 : 		_DEBUG_POINTER(_Ptr);
; 1241 : 		return (insert(_Off, _Ptr, _Traits::length(_Ptr)));
; 1242 : 		}
; 1243 : 
; 1244 : 	_Myt& insert(size_type _Off,
; 1245 : 		size_type _Count, _Elem _Ch)
; 1246 : 		{	// insert _Count * _Ch at _Off
; 1247 : 		if (this->_Mysize < _Off)
; 1248 : 			_Xran();	// _Off off end
; 1249 : 		if (npos - this->_Mysize <= _Count)
; 1250 : 			_Xlen();	// result too long
; 1251 : 		size_type _Num;
; 1252 : 		if (0 < _Count && _Grow(_Num = this->_Mysize + _Count))
; 1253 : 			{	// make room and insert new stuff
; 1254 : 			_Traits::move(this->_Myptr() + _Off + _Count,
; 1255 : 				this->_Myptr() + _Off,
; 1256 : 				this->_Mysize - _Off);	// empty out hole
; 1257 : 			_Chassign(_Off, _Count, _Ch);	// fill hole
; 1258 : 			_Eos(_Num);
; 1259 : 			}
; 1260 : 		return (*this);
; 1261 : 		}
; 1262 : 
; 1263 : 	iterator insert(const_iterator _Where)
; 1264 : 		{	// insert <null> at _Where
; 1265 : 		return (insert(_Where, _Elem()));
; 1266 : 		}
; 1267 : 
; 1268 : 	iterator insert(const_iterator _Where, _Elem _Ch)
; 1269 : 		{	// insert _Ch at _Where
; 1270 : 		size_type _Off = _Pdif(_Where, begin());
; 1271 : 		insert(_Off, 1, _Ch);
; 1272 : 		return (begin() + _Off);
; 1273 : 		}
; 1274 : 
; 1275 : 	iterator insert(const_iterator _Where, size_type _Count, _Elem _Ch)
; 1276 : 		{	// insert _Count * _Elem at _Where
; 1277 : 		size_type _Off = _Pdif(_Where, begin());
; 1278 : 		insert(_Off, _Count, _Ch);
; 1279 : 		return (begin() + _Off);
; 1280 : 		}
; 1281 : 
; 1282 : 	template<class _Iter>
; 1283 : 		typename enable_if<_Is_iterator<_Iter>::value,
; 1284 : 			iterator>::type
; 1285 : 		insert(const_iterator _Where, _Iter _First, _Iter _Last)
; 1286 : 		{	// insert [_First, _Last) at _Where, input iterators
; 1287 : 		size_type _Off = _Pdif(_Where, begin());
; 1288 : 		replace(_Where, _Where, _First, _Last);
; 1289 : 		return (begin() + _Off);
; 1290 : 		}
; 1291 : 
; 1292 : 	iterator insert(const_iterator _Where,
; 1293 : 		const_pointer _First, const_pointer _Last)
; 1294 : 		{	// insert [_First, _Last) at _Where, const pointers
; 1295 : 		size_type _Off = _Pdif(_Where, begin());
; 1296 : 		replace(_Where, _Where, _First, _Last);
; 1297 : 		return (begin() + _Off);
; 1298 : 		}
; 1299 : 
; 1300 : 	iterator insert(const_iterator _Where,
; 1301 : 		const_iterator _First, const_iterator _Last)
; 1302 : 		{	// insert [_First, _Last) at _Where, const_iterators
; 1303 : 		size_type _Off = _Pdif(_Where, begin());
; 1304 : 		replace(_Where, _Where, _First, _Last);
; 1305 : 		return (begin() + _Off);
; 1306 : 		}
; 1307 : 
; 1308 : 	_Myt& erase(size_type _Off = 0)
; 1309 : 		{	// erase elements [_Off, ...)
; 1310 : 		if (this->_Mysize < _Off)
; 1311 : 			_Xran();	// _Off off end
; 1312 : 		_Eos(_Off);
; 1313 : 		return (*this);
; 1314 : 		}
; 1315 : 
; 1316 : 	_Myt& erase(size_type _Off, size_type _Count)
; 1317 : 		{	// erase elements [_Off, _Off + _Count)
; 1318 : 		if (this->_Mysize < _Off)
; 1319 : 			_Xran();	// _Off off end
; 1320 : 		if (this->_Mysize - _Off <= _Count)
; 1321 : 			_Eos(_Off);	// erase elements [_Off, ...)
; 1322 : 		else if (0 < _Count)
; 1323 : 			{	// move elements down
; 1324 : 			value_type *_Ptr = this->_Myptr() + _Off;
; 1325 : 			size_type _Newsize = this->_Mysize - _Count;
; 1326 : 			_Traits::move(_Ptr, _Ptr + _Count, _Newsize - _Off);
; 1327 : 			_Eos(_Newsize);
; 1328 : 			}
; 1329 : 		return (*this);
; 1330 : 		}
; 1331 : 
; 1332 : 	iterator erase(const_iterator _Where)
; 1333 : 		{	// erase element at _Where
; 1334 : 		size_type _Count = _Pdif(_Where, begin());
; 1335 : 		erase(_Count, 1);
; 1336 : 		return (_STRING_ITERATOR(this->_Myptr() + _Count));
; 1337 : 		}
; 1338 : 
; 1339 : 	iterator erase(const_iterator _First, const_iterator _Last)
; 1340 : 		{	// erase substring [_First, _Last)
; 1341 : 		_DEBUG_RANGE(_First, _Last);
; 1342 : 		size_type _Count = _Pdif(_First, begin());
; 1343 : 		erase(_Count, _Pdif(_Last, _First));
; 1344 : 		return (_STRING_ITERATOR(this->_Myptr() + _Count));
; 1345 : 		}
; 1346 : 
; 1347 : 	void clear() _NOEXCEPT
; 1348 : 		{	// erase all
; 1349 : 		_Eos(0);
; 1350 : 		}
; 1351 : 
; 1352 : 	_Myt& replace(size_type _Off, size_type _N0, const _Myt& _Right)
; 1353 : 		{	// replace [_Off, _Off + _N0) with _Right
; 1354 : 		return (replace(_Off, _N0, _Right, 0, npos));
; 1355 : 		}
; 1356 : 
; 1357 : 	_Myt& replace(size_type _Off,
; 1358 : 		size_type _N0, const _Myt& _Right, size_type _Roff, size_type _Count)
; 1359 : 		{	// replace [_Off, _Off + _N0) with _Right [_Roff, _Roff + _Count)
; 1360 : 		if (this->_Mysize < _Off || _Right.size() < _Roff)
; 1361 : 			_Xran();	// _Off or _Roff off end
; 1362 : 		if (this->_Mysize - _Off < _N0)
; 1363 : 			_N0 = this->_Mysize - _Off;	// trim _N0 to size
; 1364 : 		size_type _Num = _Right.size() - _Roff;
; 1365 : 		if (_Num < _Count)
; 1366 : 			_Count = _Num;	// trim _Count to size
; 1367 : 		if (npos - _Count <= this->_Mysize - _N0)
; 1368 : 			_Xlen();	// result too long
; 1369 : 
; 1370 : 		size_type _Nm = this->_Mysize - _N0 - _Off;	// length of kept tail
; 1371 : 		size_type _Newsize = this->_Mysize + _Count - _N0;
; 1372 : 		if (this->_Mysize < _Newsize)
; 1373 : 			_Grow(_Newsize);
; 1374 : 
; 1375 : 		if (this != &_Right)
; 1376 : 			{	// no overlap, just move down and copy in new stuff
; 1377 : 			_Traits::move(this->_Myptr() + _Off + _Count,
; 1378 : 				this->_Myptr() + _Off + _N0, _Nm);	// empty hole
; 1379 : 			_Traits::copy(this->_Myptr() + _Off,
; 1380 : 				_Right._Myptr() + _Roff, _Count);	// fill hole
; 1381 : 			}
; 1382 : 		else if (_Count <= _N0)
; 1383 : 			{	// hole doesn't get larger, just copy in substring
; 1384 : 			_Traits::move(this->_Myptr() + _Off,
; 1385 : 				this->_Myptr() + _Roff, _Count);	// fill hole
; 1386 : 			_Traits::move(this->_Myptr() + _Off + _Count,
; 1387 : 				this->_Myptr() + _Off + _N0, _Nm);	// move tail down
; 1388 : 			}
; 1389 : 		else if (_Roff <= _Off)
; 1390 : 			{	// hole gets larger, substring begins before hole
; 1391 : 			_Traits::move(this->_Myptr() + _Off + _Count,
; 1392 : 				this->_Myptr() + _Off + _N0, _Nm);	// move tail down
; 1393 : 			_Traits::move(this->_Myptr() + _Off,
; 1394 : 				this->_Myptr() + _Roff, _Count);	// fill hole
; 1395 : 			}
; 1396 : 		else if (_Off + _N0 <= _Roff)
; 1397 : 			{	// hole gets larger, substring begins after hole
; 1398 : 			_Traits::move(this->_Myptr() + _Off + _Count,
; 1399 : 				this->_Myptr() + _Off + _N0, _Nm);	// move tail down
; 1400 : 			_Traits::move(this->_Myptr() + _Off,
; 1401 : 				this->_Myptr() + (_Roff + _Count - _N0),
; 1402 : 				_Count);	// fill hole
; 1403 : 			}
; 1404 : 		else
; 1405 : 			{	// hole gets larger, substring begins in hole
; 1406 : 			_Traits::move(this->_Myptr() + _Off,
; 1407 : 				this->_Myptr() + _Roff, _N0);	// fill old hole
; 1408 : 			_Traits::move(this->_Myptr() + _Off + _Count,
; 1409 : 				this->_Myptr() + _Off + _N0, _Nm);	// move tail down
; 1410 : 			_Traits::move(this->_Myptr() + _Off + _N0,
; 1411 : 				this->_Myptr() + _Roff + _Count,
; 1412 : 				_Count - _N0);	// fill rest of new hole
; 1413 : 			}
; 1414 : 
; 1415 : 		_Eos(_Newsize);
; 1416 : 		return (*this);
; 1417 : 		}
; 1418 : 
; 1419 : 	_Myt& replace(size_type _Off,
; 1420 : 		size_type _N0, const _Elem *_Ptr, size_type _Count)
; 1421 : 		{	// replace [_Off, _Off + _N0) with [_Ptr, _Ptr + _Count)
; 1422 :  #if _ITERATOR_DEBUG_LEVEL == 2
; 1423 : 		if (_Count != 0)
; 1424 : 			_DEBUG_POINTER(_Ptr);
; 1425 :  #endif /* _ITERATOR_DEBUG_LEVEL == 2 */
; 1426 : 
; 1427 : 		if (_Inside(_Ptr))
; 1428 : 			return (replace(_Off, _N0, *this,
; 1429 : 				_Ptr - this->_Myptr(),
; 1430 : 				_Count));	// substring, replace carefully
; 1431 : 		if (this->_Mysize < _Off)
; 1432 : 			_Xran();	// _Off off end
; 1433 : 		if (this->_Mysize - _Off < _N0)
; 1434 : 			_N0 = this->_Mysize - _Off;	// trim _N0 to size
; 1435 : 		if (npos - _Count <= this->_Mysize - _N0)
; 1436 : 			_Xlen();	// result too long
; 1437 : 		size_type _Nm = this->_Mysize - _N0 - _Off;
; 1438 : 
; 1439 : 		if (_Count < _N0)
; 1440 : 			_Traits::move(this->_Myptr() + _Off + _Count,
; 1441 : 				this->_Myptr() + _Off + _N0,
; 1442 : 				_Nm);	// smaller hole, move tail up
; 1443 : 		size_type _Num;
; 1444 : 		if ((0 < _Count || 0 < _N0)
; 1445 : 			&& _Grow(_Num = this->_Mysize + _Count - _N0))
; 1446 : 			{	// make room and rearrange
; 1447 : 			if (_N0 < _Count)
; 1448 : 				_Traits::move(this->_Myptr() + _Off + _Count,
; 1449 : 					this->_Myptr() + _Off + _N0, _Nm);	// move tail down
; 1450 : 			_Traits::copy(this->_Myptr() + _Off, _Ptr, _Count);	// fill hole
; 1451 : 			_Eos(_Num);
; 1452 : 			}
; 1453 : 		return (*this);
; 1454 : 		}
; 1455 : 
; 1456 : 	_Myt& replace(size_type _Off, size_type _N0, const _Elem *_Ptr)
; 1457 : 		{	// replace [_Off, _Off + _N0) with [_Ptr, <null>)
; 1458 : 		_DEBUG_POINTER(_Ptr);
; 1459 : 		return (replace(_Off, _N0, _Ptr, _Traits::length(_Ptr)));
; 1460 : 		}
; 1461 : 
; 1462 : 	_Myt& replace(size_type _Off,
; 1463 : 		size_type _N0, size_type _Count, _Elem _Ch)
; 1464 : 		{	// replace [_Off, _Off + _N0) with _Count * _Ch
; 1465 : 		if (this->_Mysize < _Off)
; 1466 : 			_Xran();	// _Off off end
; 1467 : 		if (this->_Mysize - _Off < _N0)
; 1468 : 			_N0 = this->_Mysize - _Off;	// trim _N0 to size
; 1469 : 		if (npos - _Count <= this->_Mysize - _N0)
; 1470 : 			_Xlen();	// result too long
; 1471 : 		size_type _Nm = this->_Mysize - _N0 - _Off;
; 1472 : 
; 1473 : 		if (_Count < _N0)
; 1474 : 			_Traits::move(this->_Myptr() + _Off + _Count,
; 1475 : 				this->_Myptr() + _Off + _N0,
; 1476 : 				_Nm);	// smaller hole, move tail up
; 1477 : 		size_type _Num;
; 1478 : 		if ((0 < _Count || 0 < _N0)
; 1479 : 			&& _Grow(_Num = this->_Mysize + _Count - _N0))
; 1480 : 			{	// make room and rearrange
; 1481 : 			if (_N0 < _Count)
; 1482 : 				_Traits::move(this->_Myptr() + _Off + _Count,
; 1483 : 					this->_Myptr() + _Off + _N0, _Nm);	// move tail down
; 1484 : 			_Chassign(_Off, _Count, _Ch);	// fill hole
; 1485 : 			_Eos(_Num);
; 1486 : 			}
; 1487 : 		return (*this);
; 1488 : 		}
; 1489 : 
; 1490 : 	_Myt& replace(const_iterator _First, const_iterator _Last,
; 1491 : 		const _Myt& _Right)
; 1492 : 		{	// replace [_First, _Last) with _Right
; 1493 : 		return (replace(
; 1494 : 			_Pdif(_First, begin()), _Pdif(_Last, _First), _Right));
; 1495 : 		}
; 1496 : 
; 1497 : 	_Myt& replace(const_iterator _First, const_iterator _Last,
; 1498 : 		const _Elem *_Ptr, size_type _Count)
; 1499 : 		{	// replace [_First, _Last) with [_Ptr, _Ptr + _Count)
; 1500 : 		return (replace(
; 1501 : 			_Pdif(_First, begin()), _Pdif(_Last, _First), _Ptr, _Count));
; 1502 : 		}
; 1503 : 
; 1504 : 	_Myt& replace(const_iterator _First, const_iterator _Last,
; 1505 : 		const _Elem *_Ptr)
; 1506 : 		{	// replace [_First, _Last) with [_Ptr, <null>)
; 1507 : 		return (replace(
; 1508 : 			_Pdif(_First, begin()), _Pdif(_Last, _First), _Ptr));
; 1509 : 		}
; 1510 : 
; 1511 : 	_Myt& replace(const_iterator _First, const_iterator _Last,
; 1512 : 		size_type _Count, _Elem _Ch)
; 1513 : 		{	// replace [_First, _Last) with _Count * _Ch
; 1514 : 		return (replace(
; 1515 : 			_Pdif(_First, begin()), _Pdif(_Last, _First), _Count, _Ch));
; 1516 : 		}
; 1517 : 
; 1518 : 	template<class _Iter>
; 1519 : 		typename enable_if<_Is_iterator<_Iter>::value,
; 1520 : 			_Myt&>::type
; 1521 : 		replace(const_iterator _First, const_iterator _Last,
; 1522 : 			_Iter _First2, _Iter _Last2)
; 1523 : 		{	// replace [_First, _Last) with [_First2, _Last2), input iterators
; 1524 : 		_Myt _Right(_First2, _Last2);
; 1525 : 		replace(_First, _Last, _Right);
; 1526 : 		return (*this);
; 1527 : 		}
; 1528 : 
; 1529 : 	_Myt& replace(const_iterator _First, const_iterator _Last,
; 1530 : 		const_pointer _First2, const_pointer _Last2)
; 1531 : 		{	// replace [_First, _Last) with [_First2, _Last2), const pointers
; 1532 : 		if (_First2 == _Last2)
; 1533 : 			erase(_Pdif(_First, begin()), _Pdif(_Last, _First));
; 1534 : 		else
; 1535 : 			replace(_Pdif(_First, begin()), _Pdif(_Last, _First),
; 1536 : 				&*_First2, _Last2 - _First2);
; 1537 : 		return (*this);
; 1538 : 		}
; 1539 : 
; 1540 : 	_Myt& replace(const_iterator _First, const_iterator _Last,
; 1541 : 		pointer _First2, pointer _Last2)
; 1542 : 		{	// replace [_First, _Last) with [_First2, _Last2), const pointers
; 1543 : 		if (_First2 == _Last2)
; 1544 : 			erase(_Pdif(_First, begin()), _Pdif(_Last, _First));
; 1545 : 		else
; 1546 : 			replace(_Pdif(_First, begin()), _Pdif(_Last, _First),
; 1547 : 				&*_First2, _Last2 - _First2);
; 1548 : 		return (*this);
; 1549 : 		}
; 1550 : 
; 1551 : 	_Myt& replace(const_iterator _First, const_iterator _Last,
; 1552 : 		const_iterator _First2, const_iterator _Last2)
; 1553 : 		{	// replace [_First, _Last) with [_First2, _Last2), const_iterators
; 1554 : 		if (_First2 == _Last2)
; 1555 : 			erase(_Pdif(_First, begin()), _Pdif(_Last, _First));
; 1556 : 		else
; 1557 : 			replace(_Pdif(_First, begin()), _Pdif(_Last, _First),
; 1558 : 				&*_First2, _Last2 - _First2);
; 1559 : 		return (*this);
; 1560 : 		}
; 1561 : 
; 1562 : 	_Myt& replace(const_iterator _First, const_iterator _Last,
; 1563 : 		iterator _First2, iterator _Last2)
; 1564 : 		{	// replace [_First, _Last) with [_First2, _Last2), const_iterators
; 1565 : 		if (_First2 == _Last2)
; 1566 : 			erase(_Pdif(_First, begin()), _Pdif(_Last, _First));
; 1567 : 		else
; 1568 : 			replace(_Pdif(_First, begin()), _Pdif(_Last, _First),
; 1569 : 				&*_First2, _Last2 - _First2);
; 1570 : 		return (*this);
; 1571 : 		}
; 1572 : 
; 1573 : 	iterator begin() _NOEXCEPT
; 1574 : 		{	// return iterator for beginning of mutable sequence
; 1575 : 		return (_STRING_ITERATOR(this->_Myptr()));
; 1576 : 		}
; 1577 : 
; 1578 : 	const_iterator begin() const _NOEXCEPT
; 1579 : 		{	// return iterator for beginning of nonmutable sequence
; 1580 : 		return (_STRING_CONST_ITERATOR(this->_Myptr()));
; 1581 : 		}
; 1582 : 
; 1583 : 	iterator end() _NOEXCEPT
; 1584 : 		{	// return iterator for end of mutable sequence
; 1585 : 		return (_STRING_ITERATOR(this->_Myptr() + this->_Mysize));
; 1586 : 		}
; 1587 : 
; 1588 : 	const_iterator end() const _NOEXCEPT
; 1589 : 		{	// return iterator for end of nonmutable sequence
; 1590 : 		return (_STRING_CONST_ITERATOR(this->_Myptr() + this->_Mysize));
; 1591 : 		}
; 1592 : 
; 1593 : 	reverse_iterator rbegin() _NOEXCEPT
; 1594 : 		{	// return iterator for beginning of reversed mutable sequence
; 1595 : 		return (reverse_iterator(end()));
; 1596 : 		}
; 1597 : 
; 1598 : 	const_reverse_iterator rbegin() const _NOEXCEPT
; 1599 : 		{	// return iterator for beginning of reversed nonmutable sequence
; 1600 : 		return (const_reverse_iterator(end()));
; 1601 : 		}
; 1602 : 
; 1603 : 	reverse_iterator rend() _NOEXCEPT
; 1604 : 		{	// return iterator for end of reversed mutable sequence
; 1605 : 		return (reverse_iterator(begin()));
; 1606 : 		}
; 1607 : 
; 1608 : 	const_reverse_iterator rend() const _NOEXCEPT
; 1609 : 		{	// return iterator for end of reversed nonmutable sequence
; 1610 : 		return (const_reverse_iterator(begin()));
; 1611 : 		}
; 1612 : 
; 1613 :  #if _HAS_CPP0X
; 1614 : 	const_iterator cbegin() const _NOEXCEPT
; 1615 : 		{	// return iterator for beginning of nonmutable sequence
; 1616 : 		return (((const _Myt *)this)->begin());
; 1617 : 		}
; 1618 : 
; 1619 : 	const_iterator cend() const _NOEXCEPT
; 1620 : 		{	// return iterator for end of nonmutable sequence
; 1621 : 		return (((const _Myt *)this)->end());
; 1622 : 		}
; 1623 : 
; 1624 : 	const_reverse_iterator crbegin() const _NOEXCEPT
; 1625 : 		{	// return iterator for beginning of reversed nonmutable sequence
; 1626 : 		return (((const _Myt *)this)->rbegin());
; 1627 : 		}
; 1628 : 
; 1629 : 	const_reverse_iterator crend() const _NOEXCEPT
; 1630 : 		{	// return iterator for end of reversed nonmutable sequence
; 1631 : 		return (((const _Myt *)this)->rend());
; 1632 : 		}
; 1633 : 
; 1634 : 	void shrink_to_fit()
; 1635 : 		{	// reduce capacity
; 1636 : 		if ((size() | this->_ALLOC_MASK) < capacity())
; 1637 : 			{	// worth shrinking, do it
; 1638 : 			_Myt _Tmp(*this);
; 1639 : 			swap(_Tmp);
; 1640 : 			}
; 1641 : 		}
; 1642 :  #endif /* _HAS_CPP0X */
; 1643 : 
; 1644 : 	reference at(size_type _Off)
; 1645 : 		{	// subscript mutable sequence with checking
; 1646 : 		if (this->_Mysize <= _Off)
; 1647 : 			_Xran();	// _Off off end
; 1648 : 		return (this->_Myptr()[_Off]);
; 1649 : 		}
; 1650 : 
; 1651 : 	const_reference at(size_type _Off) const
; 1652 : 		{	// subscript nonmutable sequence with checking
; 1653 : 		if (this->_Mysize <= _Off)
; 1654 : 			_Xran();	// _Off off end
; 1655 : 		return (this->_Myptr()[_Off]);
; 1656 : 		}
; 1657 : 
; 1658 : 	reference operator[](size_type _Off)
; 1659 : 		{	// subscript mutable sequence
; 1660 :  #if _ITERATOR_DEBUG_LEVEL == 2
; 1661 : 		if (this->_Mysize < _Off)	// sic
; 1662 : 			_DEBUG_ERROR("string subscript out of range");
; 1663 : 
; 1664 :  #elif _ITERATOR_DEBUG_LEVEL == 1
; 1665 : 		_SCL_SECURE_VALIDATE_RANGE(_Off <= this->_Mysize);	// sic
; 1666 :  #endif /* _ITERATOR_DEBUG_LEVEL == 2 */
; 1667 : 
; 1668 : 		return (this->_Myptr()[_Off]);
; 1669 : 		}
; 1670 : 
; 1671 : 	const_reference operator[](size_type _Off) const
; 1672 : 		{	// subscript nonmutable sequence
; 1673 :  #if _ITERATOR_DEBUG_LEVEL == 2
; 1674 : 		if (this->_Mysize < _Off)	// sic
; 1675 : 			_DEBUG_ERROR("string subscript out of range");
; 1676 : 
; 1677 :  #elif _ITERATOR_DEBUG_LEVEL == 1
; 1678 : 		_SCL_SECURE_VALIDATE_RANGE(_Off <= this->_Mysize);	// sic
; 1679 :  #endif /* _ITERATOR_DEBUG_LEVEL == 2 */
; 1680 : 
; 1681 : 		return (this->_Myptr()[_Off]);
; 1682 : 		}
; 1683 : 
; 1684 : 	void push_back(_Elem _Ch)
; 1685 : 		{	// insert element at end
; 1686 : 		insert(end(), _Ch);
; 1687 : 		}
; 1688 : 
; 1689 :  #if _HAS_CPP0X
; 1690 : 	void pop_back()
; 1691 : 		{	// erase element at end
; 1692 : 		erase(this->_Mysize - 1);	// throws if _Mysize == 0
; 1693 : 		}
; 1694 : 
; 1695 : 	reference front()
; 1696 : 		{	// return first element of mutable sequence
; 1697 : 		return (*begin());
; 1698 : 		}
; 1699 : 
; 1700 : 	const_reference front() const
; 1701 : 		{	// return first element of nonmutable sequence
; 1702 : 		return (*begin());
; 1703 : 		}
; 1704 : 
; 1705 : 	reference back()
; 1706 : 		{	// return last element of mutable sequence
; 1707 : 		return (*(end() - 1));
; 1708 : 		}
; 1709 : 
; 1710 : 	const_reference back() const
; 1711 : 		{	// return last element of nonmutable sequence
; 1712 : 		return (*(end() - 1));
; 1713 : 		}
; 1714 :  #endif /* _HAS_CPP0X */
; 1715 : 
; 1716 : 	const _Elem *c_str() const _NOEXCEPT
; 1717 : 		{	// return pointer to null-terminated nonmutable array
; 1718 : 		return (this->_Myptr());
; 1719 : 		}
; 1720 : 
; 1721 : 	const _Elem *data() const _NOEXCEPT
; 1722 : 		{	// return pointer to nonmutable array
; 1723 : 		return (c_str());
; 1724 : 		}
; 1725 : 
; 1726 : 	size_type length() const _NOEXCEPT
; 1727 : 		{	// return length of sequence
; 1728 : 		return (this->_Mysize);
; 1729 : 		}
; 1730 : 
; 1731 : 	size_type size() const _NOEXCEPT
; 1732 : 		{	// return length of sequence
; 1733 : 		return (this->_Mysize);
; 1734 : 		}
; 1735 : 
; 1736 : 	size_type max_size() const _NOEXCEPT
; 1737 : 		{	// return maximum possible length of sequence
; 1738 : 		size_type _Num = this->_Getal().max_size();
; 1739 : 		return (_Num <= 1 ? 1 : _Num - 1);
; 1740 : 		}
; 1741 : 
; 1742 : 	void resize(size_type _Newsize)
; 1743 : 		{	// determine new length, padding with null elements as needed
; 1744 : 		resize(_Newsize, _Elem());
; 1745 : 		}
; 1746 : 
; 1747 : 	void resize(size_type _Newsize, _Elem _Ch)
; 1748 : 		{	// determine new length, padding with _Ch elements as needed
; 1749 : 		if (_Newsize <= this->_Mysize)
; 1750 : 			_Eos(_Newsize);
; 1751 : 		else
; 1752 : 			append(_Newsize - this->_Mysize, _Ch);
; 1753 : 		}
; 1754 : 
; 1755 : 	size_type capacity() const _NOEXCEPT
; 1756 : 		{	// return current length of allocated storage
; 1757 : 		return (this->_Myres);
; 1758 : 		}
; 1759 : 
; 1760 : 	void reserve(size_type _Newcap = 0)
; 1761 : 		{	// determine new minimum length of allocated storage
; 1762 : 		if (this->_Mysize <= _Newcap && this->_Myres != _Newcap)
; 1763 : 			{	// change reservation
; 1764 : 			size_type _Size = this->_Mysize;
; 1765 : 			if (_Grow(_Newcap, true))
; 1766 : 				_Eos(_Size);
; 1767 : 			}
; 1768 : 		}
; 1769 : 
; 1770 : 	bool empty() const _NOEXCEPT
; 1771 : 		{	// test if sequence is empty
; 1772 : 		return (this->_Mysize == 0);
; 1773 : 		}
; 1774 : 
; 1775 : 	_SCL_INSECURE_DEPRECATE
; 1776 : 
; 1777 : 	size_type copy(_Elem *_Ptr,
; 1778 : 		size_type _Count, size_type _Off = 0) const
; 1779 : 		{	// copy [_Off, _Off + _Count) to [_Ptr, _Ptr + _Count)
; 1780 :  #if _ITERATOR_DEBUG_LEVEL == 2
; 1781 : 		if (_Count != 0)
; 1782 : 			_DEBUG_POINTER(_Ptr);
; 1783 :  #endif /* _ITERATOR_DEBUG_LEVEL == 2 */
; 1784 : 
; 1785 : 		if (this->_Mysize < _Off)
; 1786 : 			_Xran();	// _Off off end
; 1787 : 		if (this->_Mysize - _Off < _Count)
; 1788 : 			_Count = this->_Mysize - _Off;
; 1789 : 		_Traits::copy(_Ptr, this->_Myptr() + _Off, _Count);
; 1790 : 		return (_Count);
; 1791 : 		}
; 1792 : 
; 1793 : 	size_type _Copy_s(_Elem *_Dest, size_type _Dest_size,
; 1794 : 		size_type _Count, size_type _Off = 0) const
; 1795 : 		{	// copy [_Off, _Off + _Count) to [_Dest, _Dest + _Count)
; 1796 :  #if _ITERATOR_DEBUG_LEVEL == 2
; 1797 : 		if (_Count != 0)
; 1798 : 			_DEBUG_POINTER(_Dest);
; 1799 :  #endif /* _ITERATOR_DEBUG_LEVEL == 2 */
; 1800 : 
; 1801 : 		if (this->_Mysize < _Off)
; 1802 : 			_Xran();	// _Off off end
; 1803 : 		if (this->_Mysize - _Off < _Count)
; 1804 : 			_Count = this->_Mysize - _Off;
; 1805 : 		_Traits::_Copy_s(_Dest, _Dest_size, this->_Myptr() + _Off, _Count);
; 1806 : 		return (_Count);
; 1807 : 		}
; 1808 : 
; 1809 : 	void _Swap_bx(_Myt& _Right)
; 1810 : 		{	// exchange _Bx with _Right._Bx
; 1811 : 		if (this->_BUF_SIZE <= this->_Myres)
; 1812 : 			if (this->_BUF_SIZE <= _Right._Myres)
; 1813 : 				_Swap_adl(this->_Bx._Ptr, _Right._Bx._Ptr);
; 1814 : 			else
; 1815 : 				{	// swap large with small
; 1816 : 				pointer _Ptr = this->_Bx._Ptr;
; 1817 : 				this->_Getal().destroy(&this->_Bx._Ptr);
; 1818 : 				_Traits::copy(this->_Bx._Buf,
; 1819 : 					_Right._Bx._Buf, _Right._Mysize + 1);
; 1820 : 				this->_Getal().construct(&_Right._Bx._Ptr, _Ptr);
; 1821 : 				}
; 1822 : 		else
; 1823 : 			if (_Right._Myres < this->_BUF_SIZE)
; 1824 : 				_STD swap(this->_Bx._Buf, _Right._Bx._Buf);
; 1825 : 			else
; 1826 : 				{	// swap small with large
; 1827 : 				pointer _Ptr = _Right._Bx._Ptr;
; 1828 : 				this->_Getal().destroy(&_Right._Bx._Ptr);
; 1829 : 				_Traits::copy(_Right._Bx._Buf,
; 1830 : 					this->_Bx._Buf, this->_Mysize + 1);
; 1831 : 				this->_Getal().construct(&this->_Bx._Ptr, _Ptr);
; 1832 : 				}
; 1833 : 		}
; 1834 : 
; 1835 : 	void swap(_Myt& _Right)
; 1836 : 		{	// exchange contents with _Right
; 1837 : 		if (this == &_Right)
; 1838 : 			;	// same object, do nothing
; 1839 : 		else if (this->_Getal() == _Right._Getal())
; 1840 : 			{	// same allocator, swap control information
; 1841 : 			this->_Swap_all(_Right);
; 1842 : 			_Swap_bx(_Right);
; 1843 : 			_STD swap(this->_Mysize, _Right._Mysize);
; 1844 : 			_STD swap(this->_Myres, _Right._Myres);
; 1845 : 			}
; 1846 : 
; 1847 :  #if _HAS_CPP0X
; 1848 : 		else if (_Alty::propagate_on_container_swap::value)
; 1849 : 			{	// swap allocators and control information
; 1850 : 			this->_Swap_alloc(_Right);
; 1851 : 			_Swap_bx(_Right);
; 1852 : 			_STD swap(this->_Bx, _Right._Bx);	// pointer bitwise copyable?
; 1853 : 			_STD swap(this->_Mysize, _Right._Mysize);
; 1854 : 			_STD swap(this->_Myres, _Right._Myres);
; 1855 : 			}
; 1856 :  #endif /* _HAS_CPP0X */
; 1857 : 
; 1858 : 		else
; 1859 : 			{	// different allocator, do multiple assigns
; 1860 : 			_Myt _Tmp = *this;
; 1861 : 
; 1862 : 			*this = _Right;
; 1863 : 			_Right = _Tmp;
; 1864 : 			}
; 1865 : 		}
; 1866 : 
; 1867 : 	size_type find(const _Myt& _Right, size_type _Off = 0) const _NOEXCEPT
; 1868 : 		{	// look for _Right beginning at or after _Off
; 1869 : 		return (find(_Right._Myptr(), _Off, _Right.size()));
; 1870 : 		}
; 1871 : 
; 1872 : 	size_type find(const _Elem *_Ptr,
; 1873 : 		size_type _Off, size_type _Count) const
; 1874 : 		{	// look for [_Ptr, _Ptr + _Count) beginning at or after _Off
; 1875 :  #if _ITERATOR_DEBUG_LEVEL == 2
; 1876 : 		if (_Count != 0)
; 1877 : 			_DEBUG_POINTER(_Ptr);
; 1878 :  #endif /* _ITERATOR_DEBUG_LEVEL == 2 */
; 1879 : 
; 1880 : 		if (_Count == 0 && _Off <= this->_Mysize)
; 1881 : 			return (_Off);	// null string always matches (if inside string)
; 1882 : 
; 1883 : 		size_type _Nm;
; 1884 : 		if (_Off < this->_Mysize && _Count <= (_Nm = this->_Mysize - _Off))
; 1885 : 			{	// room for match, look for it
; 1886 : 			const _Elem *_Uptr, *_Vptr;
; 1887 : 			for (_Nm -= _Count - 1, _Vptr = this->_Myptr() + _Off;
; 1888 : 				(_Uptr = _Traits::find(_Vptr, _Nm, *_Ptr)) != 0;
; 1889 : 				_Nm -= _Uptr - _Vptr + 1, _Vptr = _Uptr + 1)
; 1890 : 				if (_Traits::compare(_Uptr, _Ptr, _Count) == 0)
; 1891 : 					return (_Uptr - this->_Myptr());	// found a match
; 1892 : 			}
; 1893 : 
; 1894 : 		return (npos);	// no match
; 1895 : 		}
; 1896 : 
; 1897 : 	size_type find(const _Elem *_Ptr, size_type _Off = 0) const
; 1898 : 		{	// look for [_Ptr, <null>) beginning at or after _Off
; 1899 : 		_DEBUG_POINTER(_Ptr);
; 1900 : 		return (find(_Ptr, _Off, _Traits::length(_Ptr)));
; 1901 : 		}
; 1902 : 
; 1903 : 	size_type find(_Elem _Ch, size_type _Off = 0) const
; 1904 : 		{	// look for _Ch at or after _Off
; 1905 : 		return (find((const _Elem *)&_Ch, _Off, 1));
; 1906 : 		}
; 1907 : 
; 1908 : 	size_type rfind(const _Myt& _Right, size_type _Off = npos) const _NOEXCEPT
; 1909 : 		{	// look for _Right beginning before _Off
; 1910 : 		return (rfind(_Right._Myptr(), _Off, _Right.size()));
; 1911 : 		}
; 1912 : 
; 1913 : 	size_type rfind(const _Elem *_Ptr,
; 1914 : 		size_type _Off, size_type _Count) const
; 1915 : 		{	// look for [_Ptr, _Ptr + _Count) beginning before _Off
; 1916 :  #if _ITERATOR_DEBUG_LEVEL == 2
; 1917 : 		if (_Count != 0)
; 1918 : 			_DEBUG_POINTER(_Ptr);
; 1919 :  #endif /* _ITERATOR_DEBUG_LEVEL == 2 */
; 1920 : 
; 1921 : 		if (_Count == 0)
; 1922 : 			return (_Off < this->_Mysize ? _Off
; 1923 : 				: this->_Mysize);	// null always matches
; 1924 : 		if (_Count <= this->_Mysize)
; 1925 : 			{	// room for match, look for it
; 1926 : 			const _Elem *_Uptr = this->_Myptr() +
; 1927 : 				(_Off < this->_Mysize - _Count ? _Off
; 1928 : 					: this->_Mysize - _Count);
; 1929 : 			for (; ; --_Uptr)
; 1930 : 				if (_Traits::eq(*_Uptr, *_Ptr)
; 1931 : 					&& _Traits::compare(_Uptr, _Ptr, _Count) == 0)
; 1932 : 					return (_Uptr - this->_Myptr());	// found a match
; 1933 : 				else if (_Uptr == this->_Myptr())
; 1934 : 					break;	// at beginning, no more chance for match
; 1935 : 			}
; 1936 : 
; 1937 : 		return (npos);	// no match
; 1938 : 		}
; 1939 : 
; 1940 : 	size_type rfind(const _Elem *_Ptr, size_type _Off = npos) const
; 1941 : 		{	// look for [_Ptr, <null>) beginning before _Off
; 1942 : 		_DEBUG_POINTER(_Ptr);
; 1943 : 		return (rfind(_Ptr, _Off, _Traits::length(_Ptr)));
; 1944 : 		}
; 1945 : 
; 1946 : 	size_type rfind(_Elem _Ch, size_type _Off = npos) const
; 1947 : 		{	// look for _Ch before _Off
; 1948 : 		return (rfind((const _Elem *)&_Ch, _Off, 1));
; 1949 : 		}
; 1950 : 
; 1951 : 	size_type find_first_of(const _Myt& _Right,
; 1952 : 		size_type _Off = 0) const _NOEXCEPT
; 1953 : 		{	// look for one of _Right at or after _Off
; 1954 : 		return (find_first_of(_Right._Myptr(), _Off, _Right.size()));
; 1955 : 		}
; 1956 : 
; 1957 : 	size_type find_first_of(const _Elem *_Ptr,
; 1958 : 		size_type _Off, size_type _Count) const
; 1959 : 		{	// look for one of [_Ptr, _Ptr + _Count) at or after _Off
; 1960 :  #if _ITERATOR_DEBUG_LEVEL == 2
; 1961 : 		if (_Count != 0)
; 1962 : 			_DEBUG_POINTER(_Ptr);
; 1963 :  #endif /* _ITERATOR_DEBUG_LEVEL == 2 */
; 1964 : 
; 1965 : 		if (0 < _Count && _Off < this->_Mysize)
; 1966 : 			{	// room for match, look for it
; 1967 : 			const _Elem *const _Vptr = this->_Myptr() + this->_Mysize;
; 1968 : 			for (const _Elem *_Uptr = this->_Myptr() + _Off;
; 1969 : 				_Uptr < _Vptr; ++_Uptr)
; 1970 : 				if (_Traits::find(_Ptr, _Count, *_Uptr) != 0)
; 1971 : 					return (_Uptr - this->_Myptr());	// found a match
; 1972 : 			}
; 1973 : 
; 1974 : 		return (npos);	// no match
; 1975 : 		}
; 1976 : 
; 1977 : 	size_type find_first_of(const _Elem *_Ptr,
; 1978 : 		size_type _Off = 0) const
; 1979 : 		{	// look for one of [_Ptr, <null>) at or after _Off
; 1980 : 		_DEBUG_POINTER(_Ptr);
; 1981 : 		return (find_first_of(_Ptr, _Off, _Traits::length(_Ptr)));
; 1982 : 		}
; 1983 : 
; 1984 : 	size_type find_first_of(_Elem _Ch,
; 1985 : 		size_type _Off = 0) const
; 1986 : 		{	// look for _Ch at or after _Off
; 1987 : 		return (find((const _Elem *)&_Ch, _Off, 1));
; 1988 : 		}
; 1989 : 
; 1990 : 	size_type find_last_of(const _Myt& _Right,
; 1991 : 		size_type _Off = npos) const _NOEXCEPT
; 1992 : 		{	// look for one of _Right before _Off
; 1993 : 		return (find_last_of(_Right._Myptr(), _Off, _Right.size()));
; 1994 : 		}
; 1995 : 
; 1996 : 	size_type find_last_of(const _Elem *_Ptr,
; 1997 : 		size_type _Off, size_type _Count) const
; 1998 : 		{	// look for one of [_Ptr, _Ptr + _Count) before _Off
; 1999 :  #if _ITERATOR_DEBUG_LEVEL == 2
; 2000 : 		if (_Count != 0)
; 2001 : 			_DEBUG_POINTER(_Ptr);
; 2002 :  #endif /* _ITERATOR_DEBUG_LEVEL == 2 */
; 2003 : 
; 2004 : 		if (0 < _Count && 0 < this->_Mysize)
; 2005 : 			{	// worth searching, do it
; 2006 : 			const _Elem *_Uptr = this->_Myptr()
; 2007 : 				+ (_Off < this->_Mysize ? _Off : this->_Mysize - 1);
; 2008 : 			for (; ; --_Uptr)
; 2009 : 				if (_Traits::find(_Ptr, _Count, *_Uptr) != 0)
; 2010 : 					return (_Uptr - this->_Myptr());	// found a match
; 2011 : 				else if (_Uptr == this->_Myptr())
; 2012 : 					break;	// at beginning, no more chance for match
; 2013 : 			}
; 2014 : 
; 2015 : 		return (npos);	// no match
; 2016 : 		}
; 2017 : 
; 2018 : 	size_type find_last_of(const _Elem *_Ptr,
; 2019 : 		size_type _Off = npos) const
; 2020 : 		{	// look for one of [_Ptr, <null>) before _Off
; 2021 : 		_DEBUG_POINTER(_Ptr);
; 2022 : 		return (find_last_of(_Ptr, _Off, _Traits::length(_Ptr)));
; 2023 : 		}
; 2024 : 
; 2025 : 	size_type find_last_of(_Elem _Ch,
; 2026 : 		size_type _Off = npos) const
; 2027 : 		{	// look for _Ch before _Off
; 2028 : 		return (rfind((const _Elem *)&_Ch, _Off, 1));
; 2029 : 		}
; 2030 : 
; 2031 : 	size_type find_first_not_of(const _Myt& _Right,
; 2032 : 		size_type _Off = 0) const _NOEXCEPT
; 2033 : 		{	// look for none of _Right at or after _Off
; 2034 : 		return (find_first_not_of(_Right._Myptr(), _Off,
; 2035 : 			_Right.size()));
; 2036 : 		}
; 2037 : 
; 2038 : 	size_type find_first_not_of(const _Elem *_Ptr,
; 2039 : 		size_type _Off, size_type _Count) const
; 2040 : 		{	// look for none of [_Ptr, _Ptr + _Count) at or after _Off
; 2041 :  #if _ITERATOR_DEBUG_LEVEL == 2
; 2042 : 		if (_Count != 0)
; 2043 : 			_DEBUG_POINTER(_Ptr);
; 2044 :  #endif /* _ITERATOR_DEBUG_LEVEL == 2 */
; 2045 : 
; 2046 : 		if (_Off < this->_Mysize)
; 2047 : 			{	// room for match, look for it
; 2048 : 			const _Elem *const _Vptr = this->_Myptr() + this->_Mysize;
; 2049 : 			for (const _Elem *_Uptr = this->_Myptr() + _Off;
; 2050 : 				_Uptr < _Vptr; ++_Uptr)
; 2051 : 				if (_Traits::find(_Ptr, _Count, *_Uptr) == 0)
; 2052 : 					return (_Uptr - this->_Myptr());
; 2053 : 			}
; 2054 : 		return (npos);
; 2055 : 		}
; 2056 : 
; 2057 : 	size_type find_first_not_of(const _Elem *_Ptr,
; 2058 : 		size_type _Off = 0) const
; 2059 : 		{	// look for one of [_Ptr, <null>) at or after _Off
; 2060 : 		_DEBUG_POINTER(_Ptr);
; 2061 : 		return (find_first_not_of(_Ptr, _Off, _Traits::length(_Ptr)));
; 2062 : 		}
; 2063 : 
; 2064 : 	size_type find_first_not_of(_Elem _Ch,
; 2065 : 		size_type _Off = 0) const
; 2066 : 		{	// look for non _Ch at or after _Off
; 2067 : 		return (find_first_not_of((const _Elem *)&_Ch, _Off, 1));
; 2068 : 		}
; 2069 : 
; 2070 : 	size_type find_last_not_of(const _Myt& _Right,
; 2071 : 		size_type _Off = npos) const _NOEXCEPT
; 2072 : 		{	// look for none of _Right before _Off
; 2073 : 		return (find_last_not_of(_Right._Myptr(), _Off, _Right.size()));
; 2074 : 		}
; 2075 : 
; 2076 : 	size_type find_last_not_of(const _Elem *_Ptr,
; 2077 : 		size_type _Off, size_type _Count) const
; 2078 : 		{	// look for none of [_Ptr, _Ptr + _Count) before _Off
; 2079 :  #if _ITERATOR_DEBUG_LEVEL == 2
; 2080 : 		if (_Count != 0)
; 2081 : 			_DEBUG_POINTER(_Ptr);
; 2082 :  #endif /* _ITERATOR_DEBUG_LEVEL == 2 */
; 2083 : 
; 2084 : 		if (0 < this->_Mysize)
; 2085 : 			{	// worth searching, do it
; 2086 : 			const _Elem *_Uptr = this->_Myptr()
; 2087 : 				+ (_Off < this->_Mysize ? _Off : this->_Mysize - 1);
; 2088 : 			for (; ; --_Uptr)
; 2089 : 				if (_Traits::find(_Ptr, _Count, *_Uptr) == 0)
; 2090 : 					return (_Uptr - this->_Myptr());
; 2091 : 				else if (_Uptr == this->_Myptr())
; 2092 : 					break;
; 2093 : 			}
; 2094 : 		return (npos);
; 2095 : 		}
; 2096 : 
; 2097 : 	size_type find_last_not_of(const _Elem *_Ptr,
; 2098 : 		size_type _Off = npos) const
; 2099 : 		{	// look for none of [_Ptr, <null>) before _Off
; 2100 : 		_DEBUG_POINTER(_Ptr);
; 2101 : 		return (find_last_not_of(_Ptr, _Off, _Traits::length(_Ptr)));
; 2102 : 		}
; 2103 : 
; 2104 : 	size_type find_last_not_of(_Elem _Ch,
; 2105 : 		size_type _Off = npos) const
; 2106 : 		{	// look for non _Ch before _Off
; 2107 : 		return (find_last_not_of((const _Elem *)&_Ch, _Off, 1));
; 2108 : 		}
; 2109 : 
; 2110 : 	_Myt substr(size_type _Off = 0, size_type _Count = npos) const
; 2111 : 		{	// return [_Off, _Off + _Count) as new string
; 2112 : 		return (_Myt(*this, _Off, _Count, get_allocator()));
; 2113 : 		}
; 2114 : 
; 2115 : 	int compare(const _Myt& _Right) const _NOEXCEPT
; 2116 : 		{	// compare [0, _Mysize) with _Right
; 2117 : 		return (compare(0, this->_Mysize, _Right._Myptr(), _Right.size()));
; 2118 : 		}
; 2119 : 
; 2120 : 	int compare(size_type _Off, size_type _N0,
; 2121 : 		const _Myt& _Right) const
; 2122 : 		{	// compare [_Off, _Off + _N0) with _Right
; 2123 : 		return (compare(_Off, _N0, _Right, 0, npos));
; 2124 : 		}
; 2125 : 
; 2126 : 	int compare(size_type _Off,
; 2127 : 		size_type _N0, const _Myt& _Right,
; 2128 : 		size_type _Roff, size_type _Count) const
; 2129 : 		{	// compare [_Off, _Off + _N0) with _Right [_Roff, _Roff + _Count)
; 2130 : 		if (_Right.size() < _Roff)
; 2131 : 			_Xran();	// _Off off end
; 2132 : 		if (_Right._Mysize - _Roff < _Count)
; 2133 : 			_Count = _Right._Mysize - _Roff;	// trim _Count to size
; 2134 : 		return (compare(_Off, _N0, _Right._Myptr() + _Roff, _Count));
; 2135 : 		}
; 2136 : 
; 2137 : 	int compare(const _Elem *_Ptr) const
; 2138 : 		{	// compare [0, _Mysize) with [_Ptr, <null>)
; 2139 : 		_DEBUG_POINTER(_Ptr);
; 2140 : 		return (compare(0, this->_Mysize, _Ptr, _Traits::length(_Ptr)));
; 2141 : 		}
; 2142 : 
; 2143 : 	int compare(size_type _Off, size_type _N0, const _Elem *_Ptr) const
; 2144 : 		{	// compare [_Off, _Off + _N0) with [_Ptr, <null>)
; 2145 : 		_DEBUG_POINTER(_Ptr);
; 2146 : 		return (compare(_Off, _N0, _Ptr, _Traits::length(_Ptr)));
; 2147 : 		}
; 2148 : 
; 2149 : 	int compare(size_type _Off,
; 2150 : 		size_type _N0, const _Elem *_Ptr, size_type _Count) const
; 2151 : 		{	// compare [_Off, _Off + _N0) with [_Ptr, _Ptr + _Count)
; 2152 :  #if _ITERATOR_DEBUG_LEVEL == 2
; 2153 : 		if (_Count != 0)
; 2154 : 			_DEBUG_POINTER(_Ptr);
; 2155 :  #endif /* _ITERATOR_DEBUG_LEVEL == 2 */
; 2156 : 
; 2157 : 		if (this->_Mysize < _Off)
; 2158 : 			_Xran();	// _Off off end
; 2159 : 		if (this->_Mysize - _Off < _N0)
; 2160 : 			_N0 = this->_Mysize - _Off;	// trim _N0 to size
; 2161 : 
; 2162 : 		size_type _Ans = _Traits::compare(this->_Myptr() + _Off, _Ptr,
; 2163 : 			_N0 < _Count ? _N0 : _Count);
; 2164 : 		return (_Ans != 0 ? (int)_Ans : _N0 < _Count ? -1
; 2165 : 			: _N0 == _Count ? 0 : +1);
; 2166 : 		}
; 2167 : 
; 2168 : 	allocator_type get_allocator() const _NOEXCEPT
; 2169 : 		{	// return allocator object for values
; 2170 : 		return (this->_Getal());
; 2171 : 		}
; 2172 : 
; 2173 : 	void _Chassign(size_type _Off, size_type _Count, _Elem _Ch)
; 2174 : 		{	// assign _Count copies of _Ch beginning at _Off
; 2175 : 		if (_Count == 1)
; 2176 : 			_Traits::assign(*(this->_Myptr() + _Off), _Ch);
; 2177 : 		else
; 2178 : 			_Traits::assign(this->_Myptr() + _Off, _Count, _Ch);
; 2179 : 		}
; 2180 : 
; 2181 : 	void _Copy(size_type _Newsize, size_type _Oldlen)
; 2182 : 		{	// copy _Oldlen elements to newly allocated buffer
; 2183 : 		size_type _Newres = _Newsize | this->_ALLOC_MASK;
; 2184 : 		if (max_size() < _Newres)
; 2185 : 			_Newres = _Newsize;	// undo roundup if too big
; 2186 : 		else if (this->_Myres / 2 <= _Newres / 3)
; 2187 : 			;
; 2188 : 		else if (this->_Myres <= max_size() - this->_Myres / 2)
; 2189 : 			_Newres = this->_Myres
; 2190 : 				+ this->_Myres / 2;	// grow exponentially if possible
; 2191 : 		else
; 2192 : 			_Newres = max_size();	// settle for max_size()
; 2193 : 
; 2194 : 		_Elem *_Ptr;
; 2195 : 		_TRY_BEGIN
; 2196 : 			_Ptr = this->_Getal().allocate(_Newres + 1);
; 2197 : 		_CATCH_ALL
; 2198 : 			_Newres = _Newsize;	// allocation failed, undo roundup and retry
; 2199 : 			_TRY_BEGIN
; 2200 : 				_Ptr = this->_Getal().allocate(_Newres + 1);
; 2201 : 			_CATCH_ALL
; 2202 : 			_Tidy(true);	// failed again, discard storage and reraise
; 2203 : 			_RERAISE;
; 2204 : 			_CATCH_END
; 2205 : 		_CATCH_END
; 2206 : 
; 2207 : 		if (0 < _Oldlen)
; 2208 : 			_Traits::copy(_Ptr, this->_Myptr(),
; 2209 : 				_Oldlen);	// copy existing elements
; 2210 : 		_Tidy(true);
; 2211 : 		this->_Getal().construct(&this->_Bx._Ptr, _Ptr);
; 2212 : 		this->_Myres = _Newres;
; 2213 : 		_Eos(_Oldlen);
; 2214 : 		}
; 2215 : 
; 2216 : 	void _Eos(size_type _Newsize)
; 2217 : 		{	// set new length and null terminator
; 2218 : 		_Traits::assign(this->_Myptr()[this->_Mysize = _Newsize], _Elem());

  00010	c7 46 10 00 00
	00 00		 mov	 DWORD PTR [esi+16], 0
; File c:\program files (x86)\microsoft visual studio 11.0\vc\include\iosfwd

; 564  : 		_Left = _Right;

  00017	c6 06 00	 mov	 BYTE PTR [esi], 0

; 523  : 			: _CSTD strlen(_First));

  0001a	80 39 00	 cmp	 BYTE PTR [ecx], 0
  0001d	75 12		 jne	 SHORT $LN43@basic_stri
  0001f	33 d2		 xor	 edx, edx
; File c:\program files (x86)\microsoft visual studio 11.0\vc\include\xstring

; 1144 : 		return (assign(_Ptr, _Traits::length(_Ptr)));

  00021	52		 push	 edx
  00022	51		 push	 ecx
  00023	8b ce		 mov	 ecx, esi
  00025	e8 00 00 00 00	 call	 ?assign@?$basic_string@DU?$char_traits@D@std@@V?$allocator@D@2@@std@@QAEAAV12@PBDI@Z ; std::basic_string<char,std::char_traits<char>,std::allocator<char> >::assign

; 792  : 		_Tidy();
; 793  : 		assign(_Ptr);
; 794  : 		}

  0002a	8b c6		 mov	 eax, esi
  0002c	5e		 pop	 esi
  0002d	5d		 pop	 ebp
  0002e	c2 04 00	 ret	 4
$LN43@basic_stri:
; File c:\program files (x86)\microsoft visual studio 11.0\vc\include\iosfwd

; 523  : 			: _CSTD strlen(_First));

  00031	8b d1		 mov	 edx, ecx
  00033	57		 push	 edi
  00034	8d 7a 01	 lea	 edi, DWORD PTR [edx+1]
$LL45@basic_stri:
  00037	8a 02		 mov	 al, BYTE PTR [edx]
  00039	42		 inc	 edx
  0003a	84 c0		 test	 al, al
  0003c	75 f9		 jne	 SHORT $LL45@basic_stri
  0003e	2b d7		 sub	 edx, edi
  00040	5f		 pop	 edi
; File c:\program files (x86)\microsoft visual studio 11.0\vc\include\xstring

; 1144 : 		return (assign(_Ptr, _Traits::length(_Ptr)));

  00041	52		 push	 edx
  00042	51		 push	 ecx
  00043	8b ce		 mov	 ecx, esi
  00045	e8 00 00 00 00	 call	 ?assign@?$basic_string@DU?$char_traits@D@std@@V?$allocator@D@2@@std@@QAEAAV12@PBDI@Z ; std::basic_string<char,std::char_traits<char>,std::allocator<char> >::assign

; 792  : 		_Tidy();
; 793  : 		assign(_Ptr);
; 794  : 		}

  0004a	8b c6		 mov	 eax, esi
  0004c	5e		 pop	 esi
  0004d	5d		 pop	 ebp
  0004e	c2 04 00	 ret	 4
??0?$basic_string@DU?$char_traits@D@std@@V?$allocator@D@2@@std@@QAE@PBD@Z ENDP ; std::basic_string<char,std::char_traits<char>,std::allocator<char> >::basic_string<char,std::char_traits<char>,std::allocator<char> >
_TEXT	ENDS
; Function compile flags: /Ogtp
; File c:\program files (x86)\microsoft visual studio 11.0\vc\include\xstring
; File c:\program files (x86)\microsoft visual studio 11.0\vc\include\xmemory0
; File c:\program files (x86)\microsoft visual studio 11.0\vc\include\xstring
; File c:\program files (x86)\microsoft visual studio 11.0\vc\include\iosfwd
; File c:\program files (x86)\microsoft visual studio 11.0\vc\include\xstring
;	COMDAT ??1?$basic_string@DU?$char_traits@D@std@@V?$allocator@D@2@@std@@QAE@XZ
_TEXT	SEGMENT
??1?$basic_string@DU?$char_traits@D@std@@V?$allocator@D@2@@std@@QAE@XZ PROC ; std::basic_string<char,std::char_traits<char>,std::allocator<char> >::~basic_string<char,std::char_traits<char>,std::allocator<char> >, COMDAT
; _this$ = ecx

; 963  : 		{	// destroy the string

  00000	56		 push	 esi
  00001	8b f1		 mov	 esi, ecx

; 2219 : 		}
; 2220 : 
; 2221 : 	bool _Grow(size_type _Newsize,
; 2222 : 		bool _Trim = false)
; 2223 : 		{	// ensure buffer is big enough, trim to size if _Trim is true
; 2224 : 		if (max_size() < _Newsize)
; 2225 : 			_Xlen();	// result too long
; 2226 : 		if (this->_Myres < _Newsize)
; 2227 : 			_Copy(_Newsize, this->_Mysize);	// reallocate to grow
; 2228 : 		else if (_Trim && _Newsize < this->_BUF_SIZE)
; 2229 : 			_Tidy(true,	// copy and deallocate if trimming to small string
; 2230 : 				_Newsize < this->_Mysize ? _Newsize : this->_Mysize);
; 2231 : 		else if (_Newsize == 0)
; 2232 : 			_Eos(0);	// new size is zero, just null terminate
; 2233 : 		return (0 < _Newsize);	// return true only if more work to do
; 2234 : 		}
; 2235 : 
; 2236 : 	bool _Inside(const _Elem *_Ptr)
; 2237 : 		{	// test if _Ptr points inside string
; 2238 : 		if (_Ptr == 0 || _Ptr < this->_Myptr()
; 2239 : 			|| this->_Myptr() + this->_Mysize <= _Ptr)
; 2240 : 			return (false);	// don't ask
; 2241 : 		else
; 2242 : 			return (true);
; 2243 : 		}
; 2244 : 
; 2245 : 	static size_type _Pdif(const_iterator _P2,
; 2246 : 		const_iterator _P1)
; 2247 : 		{	// compute safe iterator difference
; 2248 : 		return (_STRING_ITER_BASE(_P2) == 0 ? 0 : _P2 - _P1);
; 2249 : 		}
; 2250 : 
; 2251 : 	void _Tidy(bool _Built = false,
; 2252 : 		size_type _Newsize = 0)
; 2253 : 		{	// initialize buffer, deallocating any storage
; 2254 : 		if (!_Built)
; 2255 : 			;
; 2256 : 		else if (this->_BUF_SIZE <= this->_Myres)

  00003	83 7e 14 10	 cmp	 DWORD PTR [esi+20], 16	; 00000010H
  00007	72 0b		 jb	 SHORT $LN21@basic_stri
; File c:\program files (x86)\microsoft visual studio 11.0\vc\include\xmemory0

; 586  : 		::operator delete(_Ptr);

  00009	ff 36		 push	 DWORD PTR [esi]
  0000b	ff 15 00 00 00
	00		 call	 DWORD PTR __imp_??3@YAXPAX@Z
  00011	83 c4 04	 add	 esp, 4
$LN21@basic_stri:
; File c:\program files (x86)\microsoft visual studio 11.0\vc\include\xstring

; 2265 : 		this->_Myres = this->_BUF_SIZE - 1;

  00014	c7 46 14 0f 00
	00 00		 mov	 DWORD PTR [esi+20], 15	; 0000000fH

; 966  : 
; 967  : 	_PGLOBAL static const size_type npos;	// bad/missing length/position
; 968  : 
; 969  : 	_Myt& operator=(const _Myt& _Right)
; 970  : 		{	// assign _Right
; 971  : 		if (this != &_Right)
; 972  : 			{	// different, assign it
; 973  :  #if _HAS_CPP0X
; 974  : 			if (this->_Getal() != _Right._Getal()
; 975  : 				&& _Alty::propagate_on_container_copy_assignment::value)
; 976  : 				{	// change allocator before copying
; 977  : 				_Tidy(true);
; 978  : 				this->_Change_alloc(_Right._Getal());
; 979  : 				}
; 980  :  #endif /* _HAS_CPP0X */
; 981  : 
; 982  : 			assign(_Right);
; 983  : 			}
; 984  : 		return (*this);
; 985  : 		}
; 986  : 
; 987  : 	_Myt& operator=(const _Elem *_Ptr)
; 988  : 		{	// assign [_Ptr, <null>)
; 989  : 		return (assign(_Ptr));
; 990  : 		}
; 991  : 
; 992  : 	_Myt& operator=(_Elem _Ch)
; 993  : 		{	// assign 1 * _Ch
; 994  : 		return (assign(1, _Ch));
; 995  : 		}
; 996  : 
; 997  : 	_Myt& operator+=(const _Myt& _Right)
; 998  : 		{	// append _Right
; 999  : 		return (append(_Right));
; 1000 : 		}
; 1001 : 
; 1002 : 	_Myt& operator+=(const _Elem *_Ptr)
; 1003 : 		{	// append [_Ptr, <null>)
; 1004 : 		return (append(_Ptr));
; 1005 : 		}
; 1006 : 
; 1007 : 	_Myt& operator+=(_Elem _Ch)
; 1008 : 		{	// append 1 * _Ch
; 1009 : 		return (append((size_type)1, _Ch));
; 1010 : 		}
; 1011 : 
; 1012 : 	_Myt& append(const _Myt& _Right)
; 1013 : 		{	// append _Right
; 1014 : 		return (append(_Right, 0, npos));
; 1015 : 		}
; 1016 : 
; 1017 : 	_Myt& append(const _Myt& _Right,
; 1018 : 		size_type _Roff, size_type _Count)
; 1019 : 		{	// append _Right [_Roff, _Roff + _Count)
; 1020 : 		if (_Right.size() < _Roff)
; 1021 : 			_Xran();	// _Roff off end
; 1022 : 		size_type _Num = _Right.size() - _Roff;
; 1023 : 		if (_Num < _Count)
; 1024 : 			_Count = _Num;	// trim _Count to size
; 1025 : 		if (npos - this->_Mysize <= _Count)
; 1026 : 			_Xlen();	// result too long
; 1027 : 
; 1028 : 		if (0 < _Count && _Grow(_Num = this->_Mysize + _Count))
; 1029 : 			{	// make room and append new stuff
; 1030 : 			_Traits::copy(this->_Myptr() + this->_Mysize,
; 1031 : 				_Right._Myptr() + _Roff, _Count);
; 1032 : 			_Eos(_Num);
; 1033 : 			}
; 1034 : 		return (*this);
; 1035 : 		}
; 1036 : 
; 1037 : 	_Myt& append(const _Elem *_Ptr, size_type _Count)
; 1038 : 		{	// append [_Ptr, _Ptr + _Count)
; 1039 :  #if _ITERATOR_DEBUG_LEVEL == 2
; 1040 : 		if (_Count != 0)
; 1041 : 			_DEBUG_POINTER(_Ptr);
; 1042 :  #endif /* _ITERATOR_DEBUG_LEVEL == 2 */
; 1043 : 
; 1044 : 		if (_Inside(_Ptr))
; 1045 : 			return (append(*this,
; 1046 : 				_Ptr - this->_Myptr(), _Count));	// substring
; 1047 : 		if (npos - this->_Mysize <= _Count)
; 1048 : 			_Xlen();	// result too long
; 1049 : 
; 1050 : 		size_type _Num;
; 1051 : 		if (0 < _Count && _Grow(_Num = this->_Mysize + _Count))
; 1052 : 			{	// make room and append new stuff
; 1053 : 			_Traits::copy(this->_Myptr() + this->_Mysize, _Ptr, _Count);
; 1054 : 			_Eos(_Num);
; 1055 : 			}
; 1056 : 		return (*this);
; 1057 : 		}
; 1058 : 
; 1059 : 	_Myt& append(const _Elem *_Ptr)
; 1060 : 		{	// append [_Ptr, <null>)
; 1061 : 		_DEBUG_POINTER(_Ptr);
; 1062 : 		return (append(_Ptr, _Traits::length(_Ptr)));
; 1063 : 		}
; 1064 : 
; 1065 : 	_Myt& append(size_type _Count, _Elem _Ch)
; 1066 : 		{	// append _Count * _Ch
; 1067 : 		if (npos - this->_Mysize <= _Count)
; 1068 : 			_Xlen();	// result too long
; 1069 : 
; 1070 : 		size_type _Num;
; 1071 : 		if (0 < _Count && _Grow(_Num = this->_Mysize + _Count))
; 1072 : 			{	// make room and append new stuff using assign
; 1073 : 			_Chassign(this->_Mysize, _Count, _Ch);
; 1074 : 			_Eos(_Num);
; 1075 : 			}
; 1076 : 		return (*this);
; 1077 : 		}
; 1078 : 
; 1079 : 	template<class _Iter>
; 1080 : 		typename enable_if<_Is_iterator<_Iter>::value,
; 1081 : 			_Myt&>::type
; 1082 : 		append(_Iter _First, _Iter _Last)
; 1083 : 		{	// append [_First, _Last), input iterators
; 1084 : 		return (replace(end(), end(), _First, _Last));
; 1085 : 		}
; 1086 : 
; 1087 : 	_Myt& append(const_pointer _First, const_pointer _Last)
; 1088 : 		{	// append [_First, _Last), const pointers
; 1089 : 		return (replace(end(), end(), _First, _Last));
; 1090 : 		}
; 1091 : 
; 1092 : 	_Myt& append(const_iterator _First, const_iterator _Last)
; 1093 : 		{	// append [_First, _Last), const_iterators
; 1094 : 		return (replace(end(), end(), _First, _Last));
; 1095 : 		}
; 1096 : 
; 1097 : 	_Myt& assign(const _Myt& _Right)
; 1098 : 		{	// assign _Right
; 1099 : 		return (assign(_Right, 0, npos));
; 1100 : 		}
; 1101 : 
; 1102 : 	_Myt& assign(const _Myt& _Right,
; 1103 : 		size_type _Roff, size_type _Count)
; 1104 : 		{	// assign _Right [_Roff, _Roff + _Count)
; 1105 : 		if (_Right.size() < _Roff)
; 1106 : 			_Xran();	// _Roff off end
; 1107 : 		size_type _Num = _Right.size() - _Roff;
; 1108 : 		if (_Count < _Num)
; 1109 : 			_Num = _Count;	// trim _Num to size
; 1110 : 
; 1111 : 		if (this == &_Right)
; 1112 : 			erase((size_type)(_Roff + _Num)), erase(0, _Roff);	// substring
; 1113 : 		else if (_Grow(_Num))
; 1114 : 			{	// make room and assign new stuff
; 1115 : 			_Traits::copy(this->_Myptr(),
; 1116 : 				_Right._Myptr() + _Roff, _Num);
; 1117 : 			_Eos(_Num);
; 1118 : 			}
; 1119 : 		return (*this);
; 1120 : 		}
; 1121 : 
; 1122 : 	_Myt& assign(const _Elem *_Ptr, size_type _Count)
; 1123 : 		{	// assign [_Ptr, _Ptr + _Count)
; 1124 :  #if _ITERATOR_DEBUG_LEVEL == 2
; 1125 : 		if (_Count != 0)
; 1126 : 			_DEBUG_POINTER(_Ptr);
; 1127 :  #endif /* _ITERATOR_DEBUG_LEVEL == 2 */
; 1128 : 
; 1129 : 		if (_Inside(_Ptr))
; 1130 : 			return (assign(*this,
; 1131 : 				_Ptr - this->_Myptr(), _Count));	// substring
; 1132 : 
; 1133 : 		if (_Grow(_Count))
; 1134 : 			{	// make room and assign new stuff
; 1135 : 			_Traits::copy(this->_Myptr(), _Ptr, _Count);
; 1136 : 			_Eos(_Count);
; 1137 : 			}
; 1138 : 		return (*this);
; 1139 : 		}
; 1140 : 
; 1141 : 	_Myt& assign(const _Elem *_Ptr)
; 1142 : 		{	// assign [_Ptr, <null>)
; 1143 : 		_DEBUG_POINTER(_Ptr);
; 1144 : 		return (assign(_Ptr, _Traits::length(_Ptr)));
; 1145 : 		}
; 1146 : 
; 1147 : 	_Myt& assign(size_type _Count, _Elem _Ch)
; 1148 : 		{	// assign _Count * _Ch
; 1149 : 		if (_Count == npos)
; 1150 : 			_Xlen();	// result too long
; 1151 : 
; 1152 : 		if (_Grow(_Count))
; 1153 : 			{	// make room and assign new stuff
; 1154 : 			_Chassign(0, _Count, _Ch);
; 1155 : 			_Eos(_Count);
; 1156 : 			}
; 1157 : 		return (*this);
; 1158 : 		}
; 1159 : 
; 1160 : 	template<class _Iter>
; 1161 : 		typename enable_if<_Is_iterator<_Iter>::value,
; 1162 : 			_Myt&>::type
; 1163 : 		assign(_Iter _First, _Iter _Last)
; 1164 : 		{	// assign [First, _Last), input iterators
; 1165 : 		return (replace(begin(), end(), _First, _Last));
; 1166 : 		}
; 1167 : 
; 1168 : 	_Myt& assign(const_pointer _First, const_pointer _Last)
; 1169 : 		{	// assign [First, _Last), const pointers
; 1170 : 		return (replace(begin(), end(), _First, _Last));
; 1171 : 		}
; 1172 : 
; 1173 : 	_Myt& assign(const_iterator _First, const_iterator _Last)
; 1174 : 		{	// assign [First, _Last), const_iterators
; 1175 : 		return (replace(begin(), end(), _First, _Last));
; 1176 : 		}
; 1177 : 
; 1178 : 	_Myt& insert(size_type _Off, const _Myt& _Right)
; 1179 : 		{	// insert _Right at _Off
; 1180 : 		return (insert(_Off, _Right, 0, npos));
; 1181 : 		}
; 1182 : 
; 1183 : 	_Myt& insert(size_type _Off,
; 1184 : 		const _Myt& _Right, size_type _Roff, size_type _Count)
; 1185 : 		{	// insert _Right [_Roff, _Roff + _Count) at _Off
; 1186 : 		if (this->_Mysize < _Off || _Right.size() < _Roff)
; 1187 : 			_Xran();	// _Off or _Roff off end
; 1188 : 		size_type _Num = _Right.size() - _Roff;
; 1189 : 		if (_Num < _Count)
; 1190 : 			_Count = _Num;	// trim _Count to size
; 1191 : 		if (npos - this->_Mysize <= _Count)
; 1192 : 			_Xlen();	// result too long
; 1193 : 
; 1194 : 		if (0 < _Count && _Grow(_Num = this->_Mysize + _Count))
; 1195 : 			{	// make room and insert new stuff
; 1196 : 			_Traits::move(this->_Myptr() + _Off + _Count,
; 1197 : 				this->_Myptr() + _Off,
; 1198 : 				this->_Mysize - _Off);	// empty out hole
; 1199 : 			if (this == &_Right)
; 1200 : 				_Traits::move(this->_Myptr() + _Off,
; 1201 : 					this->_Myptr() + (_Off < _Roff ? _Roff + _Count : _Roff),
; 1202 : 						_Count);	// substring
; 1203 : 			else
; 1204 : 				_Traits::copy(this->_Myptr() + _Off,
; 1205 : 					_Right._Myptr() + _Roff, _Count);	// fill hole
; 1206 : 			_Eos(_Num);
; 1207 : 			}
; 1208 : 		return (*this);
; 1209 : 		}
; 1210 : 
; 1211 : 	_Myt& insert(size_type _Off,
; 1212 : 		const _Elem *_Ptr, size_type _Count)
; 1213 : 		{	// insert [_Ptr, _Ptr + _Count) at _Off
; 1214 :  #if _ITERATOR_DEBUG_LEVEL == 2
; 1215 : 		if (_Count != 0)
; 1216 : 			_DEBUG_POINTER(_Ptr);
; 1217 :  #endif /* _ITERATOR_DEBUG_LEVEL == 2 */
; 1218 : 
; 1219 : 		if (_Inside(_Ptr))
; 1220 : 			return (insert(_Off, *this,
; 1221 : 				_Ptr - this->_Myptr(), _Count));	// substring
; 1222 : 		if (this->_Mysize < _Off)
; 1223 : 			_Xran();	// _Off off end
; 1224 : 		if (npos - this->_Mysize <= _Count)
; 1225 : 			_Xlen();	// result too long
; 1226 : 		size_type _Num;
; 1227 : 		if (0 < _Count && _Grow(_Num = this->_Mysize + _Count))
; 1228 : 			{	// make room and insert new stuff
; 1229 : 			_Traits::move(this->_Myptr() + _Off + _Count,
; 1230 : 				this->_Myptr() + _Off,
; 1231 : 				this->_Mysize - _Off);	// empty out hole
; 1232 : 			_Traits::copy(this->_Myptr() + _Off, _Ptr, _Count);	// fill hole
; 1233 : 			_Eos(_Num);
; 1234 : 			}
; 1235 : 		return (*this);
; 1236 : 		}
; 1237 : 
; 1238 : 	_Myt& insert(size_type _Off, const _Elem *_Ptr)
; 1239 : 		{	// insert [_Ptr, <null>) at _Off
; 1240 : 		_DEBUG_POINTER(_Ptr);
; 1241 : 		return (insert(_Off, _Ptr, _Traits::length(_Ptr)));
; 1242 : 		}
; 1243 : 
; 1244 : 	_Myt& insert(size_type _Off,
; 1245 : 		size_type _Count, _Elem _Ch)
; 1246 : 		{	// insert _Count * _Ch at _Off
; 1247 : 		if (this->_Mysize < _Off)
; 1248 : 			_Xran();	// _Off off end
; 1249 : 		if (npos - this->_Mysize <= _Count)
; 1250 : 			_Xlen();	// result too long
; 1251 : 		size_type _Num;
; 1252 : 		if (0 < _Count && _Grow(_Num = this->_Mysize + _Count))
; 1253 : 			{	// make room and insert new stuff
; 1254 : 			_Traits::move(this->_Myptr() + _Off + _Count,
; 1255 : 				this->_Myptr() + _Off,
; 1256 : 				this->_Mysize - _Off);	// empty out hole
; 1257 : 			_Chassign(_Off, _Count, _Ch);	// fill hole
; 1258 : 			_Eos(_Num);
; 1259 : 			}
; 1260 : 		return (*this);
; 1261 : 		}
; 1262 : 
; 1263 : 	iterator insert(const_iterator _Where)
; 1264 : 		{	// insert <null> at _Where
; 1265 : 		return (insert(_Where, _Elem()));
; 1266 : 		}
; 1267 : 
; 1268 : 	iterator insert(const_iterator _Where, _Elem _Ch)
; 1269 : 		{	// insert _Ch at _Where
; 1270 : 		size_type _Off = _Pdif(_Where, begin());
; 1271 : 		insert(_Off, 1, _Ch);
; 1272 : 		return (begin() + _Off);
; 1273 : 		}
; 1274 : 
; 1275 : 	iterator insert(const_iterator _Where, size_type _Count, _Elem _Ch)
; 1276 : 		{	// insert _Count * _Elem at _Where
; 1277 : 		size_type _Off = _Pdif(_Where, begin());
; 1278 : 		insert(_Off, _Count, _Ch);
; 1279 : 		return (begin() + _Off);
; 1280 : 		}
; 1281 : 
; 1282 : 	template<class _Iter>
; 1283 : 		typename enable_if<_Is_iterator<_Iter>::value,
; 1284 : 			iterator>::type
; 1285 : 		insert(const_iterator _Where, _Iter _First, _Iter _Last)
; 1286 : 		{	// insert [_First, _Last) at _Where, input iterators
; 1287 : 		size_type _Off = _Pdif(_Where, begin());
; 1288 : 		replace(_Where, _Where, _First, _Last);
; 1289 : 		return (begin() + _Off);
; 1290 : 		}
; 1291 : 
; 1292 : 	iterator insert(const_iterator _Where,
; 1293 : 		const_pointer _First, const_pointer _Last)
; 1294 : 		{	// insert [_First, _Last) at _Where, const pointers
; 1295 : 		size_type _Off = _Pdif(_Where, begin());
; 1296 : 		replace(_Where, _Where, _First, _Last);
; 1297 : 		return (begin() + _Off);
; 1298 : 		}
; 1299 : 
; 1300 : 	iterator insert(const_iterator _Where,
; 1301 : 		const_iterator _First, const_iterator _Last)
; 1302 : 		{	// insert [_First, _Last) at _Where, const_iterators
; 1303 : 		size_type _Off = _Pdif(_Where, begin());
; 1304 : 		replace(_Where, _Where, _First, _Last);
; 1305 : 		return (begin() + _Off);
; 1306 : 		}
; 1307 : 
; 1308 : 	_Myt& erase(size_type _Off = 0)
; 1309 : 		{	// erase elements [_Off, ...)
; 1310 : 		if (this->_Mysize < _Off)
; 1311 : 			_Xran();	// _Off off end
; 1312 : 		_Eos(_Off);
; 1313 : 		return (*this);
; 1314 : 		}
; 1315 : 
; 1316 : 	_Myt& erase(size_type _Off, size_type _Count)
; 1317 : 		{	// erase elements [_Off, _Off + _Count)
; 1318 : 		if (this->_Mysize < _Off)
; 1319 : 			_Xran();	// _Off off end
; 1320 : 		if (this->_Mysize - _Off <= _Count)
; 1321 : 			_Eos(_Off);	// erase elements [_Off, ...)
; 1322 : 		else if (0 < _Count)
; 1323 : 			{	// move elements down
; 1324 : 			value_type *_Ptr = this->_Myptr() + _Off;
; 1325 : 			size_type _Newsize = this->_Mysize - _Count;
; 1326 : 			_Traits::move(_Ptr, _Ptr + _Count, _Newsize - _Off);
; 1327 : 			_Eos(_Newsize);
; 1328 : 			}
; 1329 : 		return (*this);
; 1330 : 		}
; 1331 : 
; 1332 : 	iterator erase(const_iterator _Where)
; 1333 : 		{	// erase element at _Where
; 1334 : 		size_type _Count = _Pdif(_Where, begin());
; 1335 : 		erase(_Count, 1);
; 1336 : 		return (_STRING_ITERATOR(this->_Myptr() + _Count));
; 1337 : 		}
; 1338 : 
; 1339 : 	iterator erase(const_iterator _First, const_iterator _Last)
; 1340 : 		{	// erase substring [_First, _Last)
; 1341 : 		_DEBUG_RANGE(_First, _Last);
; 1342 : 		size_type _Count = _Pdif(_First, begin());
; 1343 : 		erase(_Count, _Pdif(_Last, _First));
; 1344 : 		return (_STRING_ITERATOR(this->_Myptr() + _Count));
; 1345 : 		}
; 1346 : 
; 1347 : 	void clear() _NOEXCEPT
; 1348 : 		{	// erase all
; 1349 : 		_Eos(0);
; 1350 : 		}
; 1351 : 
; 1352 : 	_Myt& replace(size_type _Off, size_type _N0, const _Myt& _Right)
; 1353 : 		{	// replace [_Off, _Off + _N0) with _Right
; 1354 : 		return (replace(_Off, _N0, _Right, 0, npos));
; 1355 : 		}
; 1356 : 
; 1357 : 	_Myt& replace(size_type _Off,
; 1358 : 		size_type _N0, const _Myt& _Right, size_type _Roff, size_type _Count)
; 1359 : 		{	// replace [_Off, _Off + _N0) with _Right [_Roff, _Roff + _Count)
; 1360 : 		if (this->_Mysize < _Off || _Right.size() < _Roff)
; 1361 : 			_Xran();	// _Off or _Roff off end
; 1362 : 		if (this->_Mysize - _Off < _N0)
; 1363 : 			_N0 = this->_Mysize - _Off;	// trim _N0 to size
; 1364 : 		size_type _Num = _Right.size() - _Roff;
; 1365 : 		if (_Num < _Count)
; 1366 : 			_Count = _Num;	// trim _Count to size
; 1367 : 		if (npos - _Count <= this->_Mysize - _N0)
; 1368 : 			_Xlen();	// result too long
; 1369 : 
; 1370 : 		size_type _Nm = this->_Mysize - _N0 - _Off;	// length of kept tail
; 1371 : 		size_type _Newsize = this->_Mysize + _Count - _N0;
; 1372 : 		if (this->_Mysize < _Newsize)
; 1373 : 			_Grow(_Newsize);
; 1374 : 
; 1375 : 		if (this != &_Right)
; 1376 : 			{	// no overlap, just move down and copy in new stuff
; 1377 : 			_Traits::move(this->_Myptr() + _Off + _Count,
; 1378 : 				this->_Myptr() + _Off + _N0, _Nm);	// empty hole
; 1379 : 			_Traits::copy(this->_Myptr() + _Off,
; 1380 : 				_Right._Myptr() + _Roff, _Count);	// fill hole
; 1381 : 			}
; 1382 : 		else if (_Count <= _N0)
; 1383 : 			{	// hole doesn't get larger, just copy in substring
; 1384 : 			_Traits::move(this->_Myptr() + _Off,
; 1385 : 				this->_Myptr() + _Roff, _Count);	// fill hole
; 1386 : 			_Traits::move(this->_Myptr() + _Off + _Count,
; 1387 : 				this->_Myptr() + _Off + _N0, _Nm);	// move tail down
; 1388 : 			}
; 1389 : 		else if (_Roff <= _Off)
; 1390 : 			{	// hole gets larger, substring begins before hole
; 1391 : 			_Traits::move(this->_Myptr() + _Off + _Count,
; 1392 : 				this->_Myptr() + _Off + _N0, _Nm);	// move tail down
; 1393 : 			_Traits::move(this->_Myptr() + _Off,
; 1394 : 				this->_Myptr() + _Roff, _Count);	// fill hole
; 1395 : 			}
; 1396 : 		else if (_Off + _N0 <= _Roff)
; 1397 : 			{	// hole gets larger, substring begins after hole
; 1398 : 			_Traits::move(this->_Myptr() + _Off + _Count,
; 1399 : 				this->_Myptr() + _Off + _N0, _Nm);	// move tail down
; 1400 : 			_Traits::move(this->_Myptr() + _Off,
; 1401 : 				this->_Myptr() + (_Roff + _Count - _N0),
; 1402 : 				_Count);	// fill hole
; 1403 : 			}
; 1404 : 		else
; 1405 : 			{	// hole gets larger, substring begins in hole
; 1406 : 			_Traits::move(this->_Myptr() + _Off,
; 1407 : 				this->_Myptr() + _Roff, _N0);	// fill old hole
; 1408 : 			_Traits::move(this->_Myptr() + _Off + _Count,
; 1409 : 				this->_Myptr() + _Off + _N0, _Nm);	// move tail down
; 1410 : 			_Traits::move(this->_Myptr() + _Off + _N0,
; 1411 : 				this->_Myptr() + _Roff + _Count,
; 1412 : 				_Count - _N0);	// fill rest of new hole
; 1413 : 			}
; 1414 : 
; 1415 : 		_Eos(_Newsize);
; 1416 : 		return (*this);
; 1417 : 		}
; 1418 : 
; 1419 : 	_Myt& replace(size_type _Off,
; 1420 : 		size_type _N0, const _Elem *_Ptr, size_type _Count)
; 1421 : 		{	// replace [_Off, _Off + _N0) with [_Ptr, _Ptr + _Count)
; 1422 :  #if _ITERATOR_DEBUG_LEVEL == 2
; 1423 : 		if (_Count != 0)
; 1424 : 			_DEBUG_POINTER(_Ptr);
; 1425 :  #endif /* _ITERATOR_DEBUG_LEVEL == 2 */
; 1426 : 
; 1427 : 		if (_Inside(_Ptr))
; 1428 : 			return (replace(_Off, _N0, *this,
; 1429 : 				_Ptr - this->_Myptr(),
; 1430 : 				_Count));	// substring, replace carefully
; 1431 : 		if (this->_Mysize < _Off)
; 1432 : 			_Xran();	// _Off off end
; 1433 : 		if (this->_Mysize - _Off < _N0)
; 1434 : 			_N0 = this->_Mysize - _Off;	// trim _N0 to size
; 1435 : 		if (npos - _Count <= this->_Mysize - _N0)
; 1436 : 			_Xlen();	// result too long
; 1437 : 		size_type _Nm = this->_Mysize - _N0 - _Off;
; 1438 : 
; 1439 : 		if (_Count < _N0)
; 1440 : 			_Traits::move(this->_Myptr() + _Off + _Count,
; 1441 : 				this->_Myptr() + _Off + _N0,
; 1442 : 				_Nm);	// smaller hole, move tail up
; 1443 : 		size_type _Num;
; 1444 : 		if ((0 < _Count || 0 < _N0)
; 1445 : 			&& _Grow(_Num = this->_Mysize + _Count - _N0))
; 1446 : 			{	// make room and rearrange
; 1447 : 			if (_N0 < _Count)
; 1448 : 				_Traits::move(this->_Myptr() + _Off + _Count,
; 1449 : 					this->_Myptr() + _Off + _N0, _Nm);	// move tail down
; 1450 : 			_Traits::copy(this->_Myptr() + _Off, _Ptr, _Count);	// fill hole
; 1451 : 			_Eos(_Num);
; 1452 : 			}
; 1453 : 		return (*this);
; 1454 : 		}
; 1455 : 
; 1456 : 	_Myt& replace(size_type _Off, size_type _N0, const _Elem *_Ptr)
; 1457 : 		{	// replace [_Off, _Off + _N0) with [_Ptr, <null>)
; 1458 : 		_DEBUG_POINTER(_Ptr);
; 1459 : 		return (replace(_Off, _N0, _Ptr, _Traits::length(_Ptr)));
; 1460 : 		}
; 1461 : 
; 1462 : 	_Myt& replace(size_type _Off,
; 1463 : 		size_type _N0, size_type _Count, _Elem _Ch)
; 1464 : 		{	// replace [_Off, _Off + _N0) with _Count * _Ch
; 1465 : 		if (this->_Mysize < _Off)
; 1466 : 			_Xran();	// _Off off end
; 1467 : 		if (this->_Mysize - _Off < _N0)
; 1468 : 			_N0 = this->_Mysize - _Off;	// trim _N0 to size
; 1469 : 		if (npos - _Count <= this->_Mysize - _N0)
; 1470 : 			_Xlen();	// result too long
; 1471 : 		size_type _Nm = this->_Mysize - _N0 - _Off;
; 1472 : 
; 1473 : 		if (_Count < _N0)
; 1474 : 			_Traits::move(this->_Myptr() + _Off + _Count,
; 1475 : 				this->_Myptr() + _Off + _N0,
; 1476 : 				_Nm);	// smaller hole, move tail up
; 1477 : 		size_type _Num;
; 1478 : 		if ((0 < _Count || 0 < _N0)
; 1479 : 			&& _Grow(_Num = this->_Mysize + _Count - _N0))
; 1480 : 			{	// make room and rearrange
; 1481 : 			if (_N0 < _Count)
; 1482 : 				_Traits::move(this->_Myptr() + _Off + _Count,
; 1483 : 					this->_Myptr() + _Off + _N0, _Nm);	// move tail down
; 1484 : 			_Chassign(_Off, _Count, _Ch);	// fill hole
; 1485 : 			_Eos(_Num);
; 1486 : 			}
; 1487 : 		return (*this);
; 1488 : 		}
; 1489 : 
; 1490 : 	_Myt& replace(const_iterator _First, const_iterator _Last,
; 1491 : 		const _Myt& _Right)
; 1492 : 		{	// replace [_First, _Last) with _Right
; 1493 : 		return (replace(
; 1494 : 			_Pdif(_First, begin()), _Pdif(_Last, _First), _Right));
; 1495 : 		}
; 1496 : 
; 1497 : 	_Myt& replace(const_iterator _First, const_iterator _Last,
; 1498 : 		const _Elem *_Ptr, size_type _Count)
; 1499 : 		{	// replace [_First, _Last) with [_Ptr, _Ptr + _Count)
; 1500 : 		return (replace(
; 1501 : 			_Pdif(_First, begin()), _Pdif(_Last, _First), _Ptr, _Count));
; 1502 : 		}
; 1503 : 
; 1504 : 	_Myt& replace(const_iterator _First, const_iterator _Last,
; 1505 : 		const _Elem *_Ptr)
; 1506 : 		{	// replace [_First, _Last) with [_Ptr, <null>)
; 1507 : 		return (replace(
; 1508 : 			_Pdif(_First, begin()), _Pdif(_Last, _First), _Ptr));
; 1509 : 		}
; 1510 : 
; 1511 : 	_Myt& replace(const_iterator _First, const_iterator _Last,
; 1512 : 		size_type _Count, _Elem _Ch)
; 1513 : 		{	// replace [_First, _Last) with _Count * _Ch
; 1514 : 		return (replace(
; 1515 : 			_Pdif(_First, begin()), _Pdif(_Last, _First), _Count, _Ch));
; 1516 : 		}
; 1517 : 
; 1518 : 	template<class _Iter>
; 1519 : 		typename enable_if<_Is_iterator<_Iter>::value,
; 1520 : 			_Myt&>::type
; 1521 : 		replace(const_iterator _First, const_iterator _Last,
; 1522 : 			_Iter _First2, _Iter _Last2)
; 1523 : 		{	// replace [_First, _Last) with [_First2, _Last2), input iterators
; 1524 : 		_Myt _Right(_First2, _Last2);
; 1525 : 		replace(_First, _Last, _Right);
; 1526 : 		return (*this);
; 1527 : 		}
; 1528 : 
; 1529 : 	_Myt& replace(const_iterator _First, const_iterator _Last,
; 1530 : 		const_pointer _First2, const_pointer _Last2)
; 1531 : 		{	// replace [_First, _Last) with [_First2, _Last2), const pointers
; 1532 : 		if (_First2 == _Last2)
; 1533 : 			erase(_Pdif(_First, begin()), _Pdif(_Last, _First));
; 1534 : 		else
; 1535 : 			replace(_Pdif(_First, begin()), _Pdif(_Last, _First),
; 1536 : 				&*_First2, _Last2 - _First2);
; 1537 : 		return (*this);
; 1538 : 		}
; 1539 : 
; 1540 : 	_Myt& replace(const_iterator _First, const_iterator _Last,
; 1541 : 		pointer _First2, pointer _Last2)
; 1542 : 		{	// replace [_First, _Last) with [_First2, _Last2), const pointers
; 1543 : 		if (_First2 == _Last2)
; 1544 : 			erase(_Pdif(_First, begin()), _Pdif(_Last, _First));
; 1545 : 		else
; 1546 : 			replace(_Pdif(_First, begin()), _Pdif(_Last, _First),
; 1547 : 				&*_First2, _Last2 - _First2);
; 1548 : 		return (*this);
; 1549 : 		}
; 1550 : 
; 1551 : 	_Myt& replace(const_iterator _First, const_iterator _Last,
; 1552 : 		const_iterator _First2, const_iterator _Last2)
; 1553 : 		{	// replace [_First, _Last) with [_First2, _Last2), const_iterators
; 1554 : 		if (_First2 == _Last2)
; 1555 : 			erase(_Pdif(_First, begin()), _Pdif(_Last, _First));
; 1556 : 		else
; 1557 : 			replace(_Pdif(_First, begin()), _Pdif(_Last, _First),
; 1558 : 				&*_First2, _Last2 - _First2);
; 1559 : 		return (*this);
; 1560 : 		}
; 1561 : 
; 1562 : 	_Myt& replace(const_iterator _First, const_iterator _Last,
; 1563 : 		iterator _First2, iterator _Last2)
; 1564 : 		{	// replace [_First, _Last) with [_First2, _Last2), const_iterators
; 1565 : 		if (_First2 == _Last2)
; 1566 : 			erase(_Pdif(_First, begin()), _Pdif(_Last, _First));
; 1567 : 		else
; 1568 : 			replace(_Pdif(_First, begin()), _Pdif(_Last, _First),
; 1569 : 				&*_First2, _Last2 - _First2);
; 1570 : 		return (*this);
; 1571 : 		}
; 1572 : 
; 1573 : 	iterator begin() _NOEXCEPT
; 1574 : 		{	// return iterator for beginning of mutable sequence
; 1575 : 		return (_STRING_ITERATOR(this->_Myptr()));
; 1576 : 		}
; 1577 : 
; 1578 : 	const_iterator begin() const _NOEXCEPT
; 1579 : 		{	// return iterator for beginning of nonmutable sequence
; 1580 : 		return (_STRING_CONST_ITERATOR(this->_Myptr()));
; 1581 : 		}
; 1582 : 
; 1583 : 	iterator end() _NOEXCEPT
; 1584 : 		{	// return iterator for end of mutable sequence
; 1585 : 		return (_STRING_ITERATOR(this->_Myptr() + this->_Mysize));
; 1586 : 		}
; 1587 : 
; 1588 : 	const_iterator end() const _NOEXCEPT
; 1589 : 		{	// return iterator for end of nonmutable sequence
; 1590 : 		return (_STRING_CONST_ITERATOR(this->_Myptr() + this->_Mysize));
; 1591 : 		}
; 1592 : 
; 1593 : 	reverse_iterator rbegin() _NOEXCEPT
; 1594 : 		{	// return iterator for beginning of reversed mutable sequence
; 1595 : 		return (reverse_iterator(end()));
; 1596 : 		}
; 1597 : 
; 1598 : 	const_reverse_iterator rbegin() const _NOEXCEPT
; 1599 : 		{	// return iterator for beginning of reversed nonmutable sequence
; 1600 : 		return (const_reverse_iterator(end()));
; 1601 : 		}
; 1602 : 
; 1603 : 	reverse_iterator rend() _NOEXCEPT
; 1604 : 		{	// return iterator for end of reversed mutable sequence
; 1605 : 		return (reverse_iterator(begin()));
; 1606 : 		}
; 1607 : 
; 1608 : 	const_reverse_iterator rend() const _NOEXCEPT
; 1609 : 		{	// return iterator for end of reversed nonmutable sequence
; 1610 : 		return (const_reverse_iterator(begin()));
; 1611 : 		}
; 1612 : 
; 1613 :  #if _HAS_CPP0X
; 1614 : 	const_iterator cbegin() const _NOEXCEPT
; 1615 : 		{	// return iterator for beginning of nonmutable sequence
; 1616 : 		return (((const _Myt *)this)->begin());
; 1617 : 		}
; 1618 : 
; 1619 : 	const_iterator cend() const _NOEXCEPT
; 1620 : 		{	// return iterator for end of nonmutable sequence
; 1621 : 		return (((const _Myt *)this)->end());
; 1622 : 		}
; 1623 : 
; 1624 : 	const_reverse_iterator crbegin() const _NOEXCEPT
; 1625 : 		{	// return iterator for beginning of reversed nonmutable sequence
; 1626 : 		return (((const _Myt *)this)->rbegin());
; 1627 : 		}
; 1628 : 
; 1629 : 	const_reverse_iterator crend() const _NOEXCEPT
; 1630 : 		{	// return iterator for end of reversed nonmutable sequence
; 1631 : 		return (((const _Myt *)this)->rend());
; 1632 : 		}
; 1633 : 
; 1634 : 	void shrink_to_fit()
; 1635 : 		{	// reduce capacity
; 1636 : 		if ((size() | this->_ALLOC_MASK) < capacity())
; 1637 : 			{	// worth shrinking, do it
; 1638 : 			_Myt _Tmp(*this);
; 1639 : 			swap(_Tmp);
; 1640 : 			}
; 1641 : 		}
; 1642 :  #endif /* _HAS_CPP0X */
; 1643 : 
; 1644 : 	reference at(size_type _Off)
; 1645 : 		{	// subscript mutable sequence with checking
; 1646 : 		if (this->_Mysize <= _Off)
; 1647 : 			_Xran();	// _Off off end
; 1648 : 		return (this->_Myptr()[_Off]);
; 1649 : 		}
; 1650 : 
; 1651 : 	const_reference at(size_type _Off) const
; 1652 : 		{	// subscript nonmutable sequence with checking
; 1653 : 		if (this->_Mysize <= _Off)
; 1654 : 			_Xran();	// _Off off end
; 1655 : 		return (this->_Myptr()[_Off]);
; 1656 : 		}
; 1657 : 
; 1658 : 	reference operator[](size_type _Off)
; 1659 : 		{	// subscript mutable sequence
; 1660 :  #if _ITERATOR_DEBUG_LEVEL == 2
; 1661 : 		if (this->_Mysize < _Off)	// sic
; 1662 : 			_DEBUG_ERROR("string subscript out of range");
; 1663 : 
; 1664 :  #elif _ITERATOR_DEBUG_LEVEL == 1
; 1665 : 		_SCL_SECURE_VALIDATE_RANGE(_Off <= this->_Mysize);	// sic
; 1666 :  #endif /* _ITERATOR_DEBUG_LEVEL == 2 */
; 1667 : 
; 1668 : 		return (this->_Myptr()[_Off]);
; 1669 : 		}
; 1670 : 
; 1671 : 	const_reference operator[](size_type _Off) const
; 1672 : 		{	// subscript nonmutable sequence
; 1673 :  #if _ITERATOR_DEBUG_LEVEL == 2
; 1674 : 		if (this->_Mysize < _Off)	// sic
; 1675 : 			_DEBUG_ERROR("string subscript out of range");
; 1676 : 
; 1677 :  #elif _ITERATOR_DEBUG_LEVEL == 1
; 1678 : 		_SCL_SECURE_VALIDATE_RANGE(_Off <= this->_Mysize);	// sic
; 1679 :  #endif /* _ITERATOR_DEBUG_LEVEL == 2 */
; 1680 : 
; 1681 : 		return (this->_Myptr()[_Off]);
; 1682 : 		}
; 1683 : 
; 1684 : 	void push_back(_Elem _Ch)
; 1685 : 		{	// insert element at end
; 1686 : 		insert(end(), _Ch);
; 1687 : 		}
; 1688 : 
; 1689 :  #if _HAS_CPP0X
; 1690 : 	void pop_back()
; 1691 : 		{	// erase element at end
; 1692 : 		erase(this->_Mysize - 1);	// throws if _Mysize == 0
; 1693 : 		}
; 1694 : 
; 1695 : 	reference front()
; 1696 : 		{	// return first element of mutable sequence
; 1697 : 		return (*begin());
; 1698 : 		}
; 1699 : 
; 1700 : 	const_reference front() const
; 1701 : 		{	// return first element of nonmutable sequence
; 1702 : 		return (*begin());
; 1703 : 		}
; 1704 : 
; 1705 : 	reference back()
; 1706 : 		{	// return last element of mutable sequence
; 1707 : 		return (*(end() - 1));
; 1708 : 		}
; 1709 : 
; 1710 : 	const_reference back() const
; 1711 : 		{	// return last element of nonmutable sequence
; 1712 : 		return (*(end() - 1));
; 1713 : 		}
; 1714 :  #endif /* _HAS_CPP0X */
; 1715 : 
; 1716 : 	const _Elem *c_str() const _NOEXCEPT
; 1717 : 		{	// return pointer to null-terminated nonmutable array
; 1718 : 		return (this->_Myptr());
; 1719 : 		}
; 1720 : 
; 1721 : 	const _Elem *data() const _NOEXCEPT
; 1722 : 		{	// return pointer to nonmutable array
; 1723 : 		return (c_str());
; 1724 : 		}
; 1725 : 
; 1726 : 	size_type length() const _NOEXCEPT
; 1727 : 		{	// return length of sequence
; 1728 : 		return (this->_Mysize);
; 1729 : 		}
; 1730 : 
; 1731 : 	size_type size() const _NOEXCEPT
; 1732 : 		{	// return length of sequence
; 1733 : 		return (this->_Mysize);
; 1734 : 		}
; 1735 : 
; 1736 : 	size_type max_size() const _NOEXCEPT
; 1737 : 		{	// return maximum possible length of sequence
; 1738 : 		size_type _Num = this->_Getal().max_size();
; 1739 : 		return (_Num <= 1 ? 1 : _Num - 1);
; 1740 : 		}
; 1741 : 
; 1742 : 	void resize(size_type _Newsize)
; 1743 : 		{	// determine new length, padding with null elements as needed
; 1744 : 		resize(_Newsize, _Elem());
; 1745 : 		}
; 1746 : 
; 1747 : 	void resize(size_type _Newsize, _Elem _Ch)
; 1748 : 		{	// determine new length, padding with _Ch elements as needed
; 1749 : 		if (_Newsize <= this->_Mysize)
; 1750 : 			_Eos(_Newsize);
; 1751 : 		else
; 1752 : 			append(_Newsize - this->_Mysize, _Ch);
; 1753 : 		}
; 1754 : 
; 1755 : 	size_type capacity() const _NOEXCEPT
; 1756 : 		{	// return current length of allocated storage
; 1757 : 		return (this->_Myres);
; 1758 : 		}
; 1759 : 
; 1760 : 	void reserve(size_type _Newcap = 0)
; 1761 : 		{	// determine new minimum length of allocated storage
; 1762 : 		if (this->_Mysize <= _Newcap && this->_Myres != _Newcap)
; 1763 : 			{	// change reservation
; 1764 : 			size_type _Size = this->_Mysize;
; 1765 : 			if (_Grow(_Newcap, true))
; 1766 : 				_Eos(_Size);
; 1767 : 			}
; 1768 : 		}
; 1769 : 
; 1770 : 	bool empty() const _NOEXCEPT
; 1771 : 		{	// test if sequence is empty
; 1772 : 		return (this->_Mysize == 0);
; 1773 : 		}
; 1774 : 
; 1775 : 	_SCL_INSECURE_DEPRECATE
; 1776 : 
; 1777 : 	size_type copy(_Elem *_Ptr,
; 1778 : 		size_type _Count, size_type _Off = 0) const
; 1779 : 		{	// copy [_Off, _Off + _Count) to [_Ptr, _Ptr + _Count)
; 1780 :  #if _ITERATOR_DEBUG_LEVEL == 2
; 1781 : 		if (_Count != 0)
; 1782 : 			_DEBUG_POINTER(_Ptr);
; 1783 :  #endif /* _ITERATOR_DEBUG_LEVEL == 2 */
; 1784 : 
; 1785 : 		if (this->_Mysize < _Off)
; 1786 : 			_Xran();	// _Off off end
; 1787 : 		if (this->_Mysize - _Off < _Count)
; 1788 : 			_Count = this->_Mysize - _Off;
; 1789 : 		_Traits::copy(_Ptr, this->_Myptr() + _Off, _Count);
; 1790 : 		return (_Count);
; 1791 : 		}
; 1792 : 
; 1793 : 	size_type _Copy_s(_Elem *_Dest, size_type _Dest_size,
; 1794 : 		size_type _Count, size_type _Off = 0) const
; 1795 : 		{	// copy [_Off, _Off + _Count) to [_Dest, _Dest + _Count)
; 1796 :  #if _ITERATOR_DEBUG_LEVEL == 2
; 1797 : 		if (_Count != 0)
; 1798 : 			_DEBUG_POINTER(_Dest);
; 1799 :  #endif /* _ITERATOR_DEBUG_LEVEL == 2 */
; 1800 : 
; 1801 : 		if (this->_Mysize < _Off)
; 1802 : 			_Xran();	// _Off off end
; 1803 : 		if (this->_Mysize - _Off < _Count)
; 1804 : 			_Count = this->_Mysize - _Off;
; 1805 : 		_Traits::_Copy_s(_Dest, _Dest_size, this->_Myptr() + _Off, _Count);
; 1806 : 		return (_Count);
; 1807 : 		}
; 1808 : 
; 1809 : 	void _Swap_bx(_Myt& _Right)
; 1810 : 		{	// exchange _Bx with _Right._Bx
; 1811 : 		if (this->_BUF_SIZE <= this->_Myres)
; 1812 : 			if (this->_BUF_SIZE <= _Right._Myres)
; 1813 : 				_Swap_adl(this->_Bx._Ptr, _Right._Bx._Ptr);
; 1814 : 			else
; 1815 : 				{	// swap large with small
; 1816 : 				pointer _Ptr = this->_Bx._Ptr;
; 1817 : 				this->_Getal().destroy(&this->_Bx._Ptr);
; 1818 : 				_Traits::copy(this->_Bx._Buf,
; 1819 : 					_Right._Bx._Buf, _Right._Mysize + 1);
; 1820 : 				this->_Getal().construct(&_Right._Bx._Ptr, _Ptr);
; 1821 : 				}
; 1822 : 		else
; 1823 : 			if (_Right._Myres < this->_BUF_SIZE)
; 1824 : 				_STD swap(this->_Bx._Buf, _Right._Bx._Buf);
; 1825 : 			else
; 1826 : 				{	// swap small with large
; 1827 : 				pointer _Ptr = _Right._Bx._Ptr;
; 1828 : 				this->_Getal().destroy(&_Right._Bx._Ptr);
; 1829 : 				_Traits::copy(_Right._Bx._Buf,
; 1830 : 					this->_Bx._Buf, this->_Mysize + 1);
; 1831 : 				this->_Getal().construct(&this->_Bx._Ptr, _Ptr);
; 1832 : 				}
; 1833 : 		}
; 1834 : 
; 1835 : 	void swap(_Myt& _Right)
; 1836 : 		{	// exchange contents with _Right
; 1837 : 		if (this == &_Right)
; 1838 : 			;	// same object, do nothing
; 1839 : 		else if (this->_Getal() == _Right._Getal())
; 1840 : 			{	// same allocator, swap control information
; 1841 : 			this->_Swap_all(_Right);
; 1842 : 			_Swap_bx(_Right);
; 1843 : 			_STD swap(this->_Mysize, _Right._Mysize);
; 1844 : 			_STD swap(this->_Myres, _Right._Myres);
; 1845 : 			}
; 1846 : 
; 1847 :  #if _HAS_CPP0X
; 1848 : 		else if (_Alty::propagate_on_container_swap::value)
; 1849 : 			{	// swap allocators and control information
; 1850 : 			this->_Swap_alloc(_Right);
; 1851 : 			_Swap_bx(_Right);
; 1852 : 			_STD swap(this->_Bx, _Right._Bx);	// pointer bitwise copyable?
; 1853 : 			_STD swap(this->_Mysize, _Right._Mysize);
; 1854 : 			_STD swap(this->_Myres, _Right._Myres);
; 1855 : 			}
; 1856 :  #endif /* _HAS_CPP0X */
; 1857 : 
; 1858 : 		else
; 1859 : 			{	// different allocator, do multiple assigns
; 1860 : 			_Myt _Tmp = *this;
; 1861 : 
; 1862 : 			*this = _Right;
; 1863 : 			_Right = _Tmp;
; 1864 : 			}
; 1865 : 		}
; 1866 : 
; 1867 : 	size_type find(const _Myt& _Right, size_type _Off = 0) const _NOEXCEPT
; 1868 : 		{	// look for _Right beginning at or after _Off
; 1869 : 		return (find(_Right._Myptr(), _Off, _Right.size()));
; 1870 : 		}
; 1871 : 
; 1872 : 	size_type find(const _Elem *_Ptr,
; 1873 : 		size_type _Off, size_type _Count) const
; 1874 : 		{	// look for [_Ptr, _Ptr + _Count) beginning at or after _Off
; 1875 :  #if _ITERATOR_DEBUG_LEVEL == 2
; 1876 : 		if (_Count != 0)
; 1877 : 			_DEBUG_POINTER(_Ptr);
; 1878 :  #endif /* _ITERATOR_DEBUG_LEVEL == 2 */
; 1879 : 
; 1880 : 		if (_Count == 0 && _Off <= this->_Mysize)
; 1881 : 			return (_Off);	// null string always matches (if inside string)
; 1882 : 
; 1883 : 		size_type _Nm;
; 1884 : 		if (_Off < this->_Mysize && _Count <= (_Nm = this->_Mysize - _Off))
; 1885 : 			{	// room for match, look for it
; 1886 : 			const _Elem *_Uptr, *_Vptr;
; 1887 : 			for (_Nm -= _Count - 1, _Vptr = this->_Myptr() + _Off;
; 1888 : 				(_Uptr = _Traits::find(_Vptr, _Nm, *_Ptr)) != 0;
; 1889 : 				_Nm -= _Uptr - _Vptr + 1, _Vptr = _Uptr + 1)
; 1890 : 				if (_Traits::compare(_Uptr, _Ptr, _Count) == 0)
; 1891 : 					return (_Uptr - this->_Myptr());	// found a match
; 1892 : 			}
; 1893 : 
; 1894 : 		return (npos);	// no match
; 1895 : 		}
; 1896 : 
; 1897 : 	size_type find(const _Elem *_Ptr, size_type _Off = 0) const
; 1898 : 		{	// look for [_Ptr, <null>) beginning at or after _Off
; 1899 : 		_DEBUG_POINTER(_Ptr);
; 1900 : 		return (find(_Ptr, _Off, _Traits::length(_Ptr)));
; 1901 : 		}
; 1902 : 
; 1903 : 	size_type find(_Elem _Ch, size_type _Off = 0) const
; 1904 : 		{	// look for _Ch at or after _Off
; 1905 : 		return (find((const _Elem *)&_Ch, _Off, 1));
; 1906 : 		}
; 1907 : 
; 1908 : 	size_type rfind(const _Myt& _Right, size_type _Off = npos) const _NOEXCEPT
; 1909 : 		{	// look for _Right beginning before _Off
; 1910 : 		return (rfind(_Right._Myptr(), _Off, _Right.size()));
; 1911 : 		}
; 1912 : 
; 1913 : 	size_type rfind(const _Elem *_Ptr,
; 1914 : 		size_type _Off, size_type _Count) const
; 1915 : 		{	// look for [_Ptr, _Ptr + _Count) beginning before _Off
; 1916 :  #if _ITERATOR_DEBUG_LEVEL == 2
; 1917 : 		if (_Count != 0)
; 1918 : 			_DEBUG_POINTER(_Ptr);
; 1919 :  #endif /* _ITERATOR_DEBUG_LEVEL == 2 */
; 1920 : 
; 1921 : 		if (_Count == 0)
; 1922 : 			return (_Off < this->_Mysize ? _Off
; 1923 : 				: this->_Mysize);	// null always matches
; 1924 : 		if (_Count <= this->_Mysize)
; 1925 : 			{	// room for match, look for it
; 1926 : 			const _Elem *_Uptr = this->_Myptr() +
; 1927 : 				(_Off < this->_Mysize - _Count ? _Off
; 1928 : 					: this->_Mysize - _Count);
; 1929 : 			for (; ; --_Uptr)
; 1930 : 				if (_Traits::eq(*_Uptr, *_Ptr)
; 1931 : 					&& _Traits::compare(_Uptr, _Ptr, _Count) == 0)
; 1932 : 					return (_Uptr - this->_Myptr());	// found a match
; 1933 : 				else if (_Uptr == this->_Myptr())
; 1934 : 					break;	// at beginning, no more chance for match
; 1935 : 			}
; 1936 : 
; 1937 : 		return (npos);	// no match
; 1938 : 		}
; 1939 : 
; 1940 : 	size_type rfind(const _Elem *_Ptr, size_type _Off = npos) const
; 1941 : 		{	// look for [_Ptr, <null>) beginning before _Off
; 1942 : 		_DEBUG_POINTER(_Ptr);
; 1943 : 		return (rfind(_Ptr, _Off, _Traits::length(_Ptr)));
; 1944 : 		}
; 1945 : 
; 1946 : 	size_type rfind(_Elem _Ch, size_type _Off = npos) const
; 1947 : 		{	// look for _Ch before _Off
; 1948 : 		return (rfind((const _Elem *)&_Ch, _Off, 1));
; 1949 : 		}
; 1950 : 
; 1951 : 	size_type find_first_of(const _Myt& _Right,
; 1952 : 		size_type _Off = 0) const _NOEXCEPT
; 1953 : 		{	// look for one of _Right at or after _Off
; 1954 : 		return (find_first_of(_Right._Myptr(), _Off, _Right.size()));
; 1955 : 		}
; 1956 : 
; 1957 : 	size_type find_first_of(const _Elem *_Ptr,
; 1958 : 		size_type _Off, size_type _Count) const
; 1959 : 		{	// look for one of [_Ptr, _Ptr + _Count) at or after _Off
; 1960 :  #if _ITERATOR_DEBUG_LEVEL == 2
; 1961 : 		if (_Count != 0)
; 1962 : 			_DEBUG_POINTER(_Ptr);
; 1963 :  #endif /* _ITERATOR_DEBUG_LEVEL == 2 */
; 1964 : 
; 1965 : 		if (0 < _Count && _Off < this->_Mysize)
; 1966 : 			{	// room for match, look for it
; 1967 : 			const _Elem *const _Vptr = this->_Myptr() + this->_Mysize;
; 1968 : 			for (const _Elem *_Uptr = this->_Myptr() + _Off;
; 1969 : 				_Uptr < _Vptr; ++_Uptr)
; 1970 : 				if (_Traits::find(_Ptr, _Count, *_Uptr) != 0)
; 1971 : 					return (_Uptr - this->_Myptr());	// found a match
; 1972 : 			}
; 1973 : 
; 1974 : 		return (npos);	// no match
; 1975 : 		}
; 1976 : 
; 1977 : 	size_type find_first_of(const _Elem *_Ptr,
; 1978 : 		size_type _Off = 0) const
; 1979 : 		{	// look for one of [_Ptr, <null>) at or after _Off
; 1980 : 		_DEBUG_POINTER(_Ptr);
; 1981 : 		return (find_first_of(_Ptr, _Off, _Traits::length(_Ptr)));
; 1982 : 		}
; 1983 : 
; 1984 : 	size_type find_first_of(_Elem _Ch,
; 1985 : 		size_type _Off = 0) const
; 1986 : 		{	// look for _Ch at or after _Off
; 1987 : 		return (find((const _Elem *)&_Ch, _Off, 1));
; 1988 : 		}
; 1989 : 
; 1990 : 	size_type find_last_of(const _Myt& _Right,
; 1991 : 		size_type _Off = npos) const _NOEXCEPT
; 1992 : 		{	// look for one of _Right before _Off
; 1993 : 		return (find_last_of(_Right._Myptr(), _Off, _Right.size()));
; 1994 : 		}
; 1995 : 
; 1996 : 	size_type find_last_of(const _Elem *_Ptr,
; 1997 : 		size_type _Off, size_type _Count) const
; 1998 : 		{	// look for one of [_Ptr, _Ptr + _Count) before _Off
; 1999 :  #if _ITERATOR_DEBUG_LEVEL == 2
; 2000 : 		if (_Count != 0)
; 2001 : 			_DEBUG_POINTER(_Ptr);
; 2002 :  #endif /* _ITERATOR_DEBUG_LEVEL == 2 */
; 2003 : 
; 2004 : 		if (0 < _Count && 0 < this->_Mysize)
; 2005 : 			{	// worth searching, do it
; 2006 : 			const _Elem *_Uptr = this->_Myptr()
; 2007 : 				+ (_Off < this->_Mysize ? _Off : this->_Mysize - 1);
; 2008 : 			for (; ; --_Uptr)
; 2009 : 				if (_Traits::find(_Ptr, _Count, *_Uptr) != 0)
; 2010 : 					return (_Uptr - this->_Myptr());	// found a match
; 2011 : 				else if (_Uptr == this->_Myptr())
; 2012 : 					break;	// at beginning, no more chance for match
; 2013 : 			}
; 2014 : 
; 2015 : 		return (npos);	// no match
; 2016 : 		}
; 2017 : 
; 2018 : 	size_type find_last_of(const _Elem *_Ptr,
; 2019 : 		size_type _Off = npos) const
; 2020 : 		{	// look for one of [_Ptr, <null>) before _Off
; 2021 : 		_DEBUG_POINTER(_Ptr);
; 2022 : 		return (find_last_of(_Ptr, _Off, _Traits::length(_Ptr)));
; 2023 : 		}
; 2024 : 
; 2025 : 	size_type find_last_of(_Elem _Ch,
; 2026 : 		size_type _Off = npos) const
; 2027 : 		{	// look for _Ch before _Off
; 2028 : 		return (rfind((const _Elem *)&_Ch, _Off, 1));
; 2029 : 		}
; 2030 : 
; 2031 : 	size_type find_first_not_of(const _Myt& _Right,
; 2032 : 		size_type _Off = 0) const _NOEXCEPT
; 2033 : 		{	// look for none of _Right at or after _Off
; 2034 : 		return (find_first_not_of(_Right._Myptr(), _Off,
; 2035 : 			_Right.size()));
; 2036 : 		}
; 2037 : 
; 2038 : 	size_type find_first_not_of(const _Elem *_Ptr,
; 2039 : 		size_type _Off, size_type _Count) const
; 2040 : 		{	// look for none of [_Ptr, _Ptr + _Count) at or after _Off
; 2041 :  #if _ITERATOR_DEBUG_LEVEL == 2
; 2042 : 		if (_Count != 0)
; 2043 : 			_DEBUG_POINTER(_Ptr);
; 2044 :  #endif /* _ITERATOR_DEBUG_LEVEL == 2 */
; 2045 : 
; 2046 : 		if (_Off < this->_Mysize)
; 2047 : 			{	// room for match, look for it
; 2048 : 			const _Elem *const _Vptr = this->_Myptr() + this->_Mysize;
; 2049 : 			for (const _Elem *_Uptr = this->_Myptr() + _Off;
; 2050 : 				_Uptr < _Vptr; ++_Uptr)
; 2051 : 				if (_Traits::find(_Ptr, _Count, *_Uptr) == 0)
; 2052 : 					return (_Uptr - this->_Myptr());
; 2053 : 			}
; 2054 : 		return (npos);
; 2055 : 		}
; 2056 : 
; 2057 : 	size_type find_first_not_of(const _Elem *_Ptr,
; 2058 : 		size_type _Off = 0) const
; 2059 : 		{	// look for one of [_Ptr, <null>) at or after _Off
; 2060 : 		_DEBUG_POINTER(_Ptr);
; 2061 : 		return (find_first_not_of(_Ptr, _Off, _Traits::length(_Ptr)));
; 2062 : 		}
; 2063 : 
; 2064 : 	size_type find_first_not_of(_Elem _Ch,
; 2065 : 		size_type _Off = 0) const
; 2066 : 		{	// look for non _Ch at or after _Off
; 2067 : 		return (find_first_not_of((const _Elem *)&_Ch, _Off, 1));
; 2068 : 		}
; 2069 : 
; 2070 : 	size_type find_last_not_of(const _Myt& _Right,
; 2071 : 		size_type _Off = npos) const _NOEXCEPT
; 2072 : 		{	// look for none of _Right before _Off
; 2073 : 		return (find_last_not_of(_Right._Myptr(), _Off, _Right.size()));
; 2074 : 		}
; 2075 : 
; 2076 : 	size_type find_last_not_of(const _Elem *_Ptr,
; 2077 : 		size_type _Off, size_type _Count) const
; 2078 : 		{	// look for none of [_Ptr, _Ptr + _Count) before _Off
; 2079 :  #if _ITERATOR_DEBUG_LEVEL == 2
; 2080 : 		if (_Count != 0)
; 2081 : 			_DEBUG_POINTER(_Ptr);
; 2082 :  #endif /* _ITERATOR_DEBUG_LEVEL == 2 */
; 2083 : 
; 2084 : 		if (0 < this->_Mysize)
; 2085 : 			{	// worth searching, do it
; 2086 : 			const _Elem *_Uptr = this->_Myptr()
; 2087 : 				+ (_Off < this->_Mysize ? _Off : this->_Mysize - 1);
; 2088 : 			for (; ; --_Uptr)
; 2089 : 				if (_Traits::find(_Ptr, _Count, *_Uptr) == 0)
; 2090 : 					return (_Uptr - this->_Myptr());
; 2091 : 				else if (_Uptr == this->_Myptr())
; 2092 : 					break;
; 2093 : 			}
; 2094 : 		return (npos);
; 2095 : 		}
; 2096 : 
; 2097 : 	size_type find_last_not_of(const _Elem *_Ptr,
; 2098 : 		size_type _Off = npos) const
; 2099 : 		{	// look for none of [_Ptr, <null>) before _Off
; 2100 : 		_DEBUG_POINTER(_Ptr);
; 2101 : 		return (find_last_not_of(_Ptr, _Off, _Traits::length(_Ptr)));
; 2102 : 		}
; 2103 : 
; 2104 : 	size_type find_last_not_of(_Elem _Ch,
; 2105 : 		size_type _Off = npos) const
; 2106 : 		{	// look for non _Ch before _Off
; 2107 : 		return (find_last_not_of((const _Elem *)&_Ch, _Off, 1));
; 2108 : 		}
; 2109 : 
; 2110 : 	_Myt substr(size_type _Off = 0, size_type _Count = npos) const
; 2111 : 		{	// return [_Off, _Off + _Count) as new string
; 2112 : 		return (_Myt(*this, _Off, _Count, get_allocator()));
; 2113 : 		}
; 2114 : 
; 2115 : 	int compare(const _Myt& _Right) const _NOEXCEPT
; 2116 : 		{	// compare [0, _Mysize) with _Right
; 2117 : 		return (compare(0, this->_Mysize, _Right._Myptr(), _Right.size()));
; 2118 : 		}
; 2119 : 
; 2120 : 	int compare(size_type _Off, size_type _N0,
; 2121 : 		const _Myt& _Right) const
; 2122 : 		{	// compare [_Off, _Off + _N0) with _Right
; 2123 : 		return (compare(_Off, _N0, _Right, 0, npos));
; 2124 : 		}
; 2125 : 
; 2126 : 	int compare(size_type _Off,
; 2127 : 		size_type _N0, const _Myt& _Right,
; 2128 : 		size_type _Roff, size_type _Count) const
; 2129 : 		{	// compare [_Off, _Off + _N0) with _Right [_Roff, _Roff + _Count)
; 2130 : 		if (_Right.size() < _Roff)
; 2131 : 			_Xran();	// _Off off end
; 2132 : 		if (_Right._Mysize - _Roff < _Count)
; 2133 : 			_Count = _Right._Mysize - _Roff;	// trim _Count to size
; 2134 : 		return (compare(_Off, _N0, _Right._Myptr() + _Roff, _Count));
; 2135 : 		}
; 2136 : 
; 2137 : 	int compare(const _Elem *_Ptr) const
; 2138 : 		{	// compare [0, _Mysize) with [_Ptr, <null>)
; 2139 : 		_DEBUG_POINTER(_Ptr);
; 2140 : 		return (compare(0, this->_Mysize, _Ptr, _Traits::length(_Ptr)));
; 2141 : 		}
; 2142 : 
; 2143 : 	int compare(size_type _Off, size_type _N0, const _Elem *_Ptr) const
; 2144 : 		{	// compare [_Off, _Off + _N0) with [_Ptr, <null>)
; 2145 : 		_DEBUG_POINTER(_Ptr);
; 2146 : 		return (compare(_Off, _N0, _Ptr, _Traits::length(_Ptr)));
; 2147 : 		}
; 2148 : 
; 2149 : 	int compare(size_type _Off,
; 2150 : 		size_type _N0, const _Elem *_Ptr, size_type _Count) const
; 2151 : 		{	// compare [_Off, _Off + _N0) with [_Ptr, _Ptr + _Count)
; 2152 :  #if _ITERATOR_DEBUG_LEVEL == 2
; 2153 : 		if (_Count != 0)
; 2154 : 			_DEBUG_POINTER(_Ptr);
; 2155 :  #endif /* _ITERATOR_DEBUG_LEVEL == 2 */
; 2156 : 
; 2157 : 		if (this->_Mysize < _Off)
; 2158 : 			_Xran();	// _Off off end
; 2159 : 		if (this->_Mysize - _Off < _N0)
; 2160 : 			_N0 = this->_Mysize - _Off;	// trim _N0 to size
; 2161 : 
; 2162 : 		size_type _Ans = _Traits::compare(this->_Myptr() + _Off, _Ptr,
; 2163 : 			_N0 < _Count ? _N0 : _Count);
; 2164 : 		return (_Ans != 0 ? (int)_Ans : _N0 < _Count ? -1
; 2165 : 			: _N0 == _Count ? 0 : +1);
; 2166 : 		}
; 2167 : 
; 2168 : 	allocator_type get_allocator() const _NOEXCEPT
; 2169 : 		{	// return allocator object for values
; 2170 : 		return (this->_Getal());
; 2171 : 		}
; 2172 : 
; 2173 : 	void _Chassign(size_type _Off, size_type _Count, _Elem _Ch)
; 2174 : 		{	// assign _Count copies of _Ch beginning at _Off
; 2175 : 		if (_Count == 1)
; 2176 : 			_Traits::assign(*(this->_Myptr() + _Off), _Ch);
; 2177 : 		else
; 2178 : 			_Traits::assign(this->_Myptr() + _Off, _Count, _Ch);
; 2179 : 		}
; 2180 : 
; 2181 : 	void _Copy(size_type _Newsize, size_type _Oldlen)
; 2182 : 		{	// copy _Oldlen elements to newly allocated buffer
; 2183 : 		size_type _Newres = _Newsize | this->_ALLOC_MASK;
; 2184 : 		if (max_size() < _Newres)
; 2185 : 			_Newres = _Newsize;	// undo roundup if too big
; 2186 : 		else if (this->_Myres / 2 <= _Newres / 3)
; 2187 : 			;
; 2188 : 		else if (this->_Myres <= max_size() - this->_Myres / 2)
; 2189 : 			_Newres = this->_Myres
; 2190 : 				+ this->_Myres / 2;	// grow exponentially if possible
; 2191 : 		else
; 2192 : 			_Newres = max_size();	// settle for max_size()
; 2193 : 
; 2194 : 		_Elem *_Ptr;
; 2195 : 		_TRY_BEGIN
; 2196 : 			_Ptr = this->_Getal().allocate(_Newres + 1);
; 2197 : 		_CATCH_ALL
; 2198 : 			_Newres = _Newsize;	// allocation failed, undo roundup and retry
; 2199 : 			_TRY_BEGIN
; 2200 : 				_Ptr = this->_Getal().allocate(_Newres + 1);
; 2201 : 			_CATCH_ALL
; 2202 : 			_Tidy(true);	// failed again, discard storage and reraise
; 2203 : 			_RERAISE;
; 2204 : 			_CATCH_END
; 2205 : 		_CATCH_END
; 2206 : 
; 2207 : 		if (0 < _Oldlen)
; 2208 : 			_Traits::copy(_Ptr, this->_Myptr(),
; 2209 : 				_Oldlen);	// copy existing elements
; 2210 : 		_Tidy(true);
; 2211 : 		this->_Getal().construct(&this->_Bx._Ptr, _Ptr);
; 2212 : 		this->_Myres = _Newres;
; 2213 : 		_Eos(_Oldlen);
; 2214 : 		}
; 2215 : 
; 2216 : 	void _Eos(size_type _Newsize)
; 2217 : 		{	// set new length and null terminator
; 2218 : 		_Traits::assign(this->_Myptr()[this->_Mysize = _Newsize], _Elem());

  0001b	c7 46 10 00 00
	00 00		 mov	 DWORD PTR [esi+16], 0
; File c:\program files (x86)\microsoft visual studio 11.0\vc\include\iosfwd

; 564  : 		_Left = _Right;

  00022	c6 06 00	 mov	 BYTE PTR [esi], 0
  00025	5e		 pop	 esi
; File c:\program files (x86)\microsoft visual studio 11.0\vc\include\xstring

; 965  : 		}

  00026	c3		 ret	 0
??1?$basic_string@DU?$char_traits@D@std@@V?$allocator@D@2@@std@@QAE@XZ ENDP ; std::basic_string<char,std::char_traits<char>,std::allocator<char> >::~basic_string<char,std::char_traits<char>,std::allocator<char> >
_TEXT	ENDS
; Function compile flags: /Ogtp
; File c:\program files (x86)\microsoft visual studio 11.0\vc\include\xstring
; File c:\program files (x86)\microsoft visual studio 11.0\vc\include\iosfwd
; File c:\program files (x86)\microsoft visual studio 11.0\vc\include\xstring
; File c:\program files (x86)\microsoft visual studio 11.0\vc\include\iosfwd
; File c:\program files (x86)\microsoft visual studio 11.0\vc\include\xstring
;	COMDAT ?assign@?$basic_string@DU?$char_traits@D@std@@V?$allocator@D@2@@std@@QAEAAV12@PBD@Z
_TEXT	SEGMENT
__Ptr$ = 8						; size = 4
?assign@?$basic_string@DU?$char_traits@D@std@@V?$allocator@D@2@@std@@QAEAAV12@PBD@Z PROC ; std::basic_string<char,std::char_traits<char>,std::allocator<char> >::assign, COMDAT
; _this$ = ecx

; 1142 : 		{	// assign [_Ptr, <null>)

  00000	55		 push	 ebp
  00001	8b ec		 mov	 ebp, esp
  00003	56		 push	 esi
; File c:\program files (x86)\microsoft visual studio 11.0\vc\include\iosfwd

; 523  : 			: _CSTD strlen(_First));

  00004	8b 75 08	 mov	 esi, DWORD PTR __Ptr$[ebp]
  00007	80 3e 00	 cmp	 BYTE PTR [esi], 0
  0000a	75 0e		 jne	 SHORT $LN5@assign
  0000c	33 d2		 xor	 edx, edx
; File c:\program files (x86)\microsoft visual studio 11.0\vc\include\xstring

; 1144 : 		return (assign(_Ptr, _Traits::length(_Ptr)));

  0000e	52		 push	 edx
  0000f	56		 push	 esi
  00010	e8 00 00 00 00	 call	 ?assign@?$basic_string@DU?$char_traits@D@std@@V?$allocator@D@2@@std@@QAEAAV12@PBDI@Z ; std::basic_string<char,std::char_traits<char>,std::allocator<char> >::assign
  00015	5e		 pop	 esi

; 1145 : 		}

  00016	5d		 pop	 ebp
  00017	c2 04 00	 ret	 4
$LN5@assign:
; File c:\program files (x86)\microsoft visual studio 11.0\vc\include\iosfwd

; 523  : 			: _CSTD strlen(_First));

  0001a	8b d6		 mov	 edx, esi
  0001c	57		 push	 edi
  0001d	8d 7a 01	 lea	 edi, DWORD PTR [edx+1]
$LL7@assign:
  00020	8a 02		 mov	 al, BYTE PTR [edx]
  00022	42		 inc	 edx
  00023	84 c0		 test	 al, al
  00025	75 f9		 jne	 SHORT $LL7@assign
  00027	2b d7		 sub	 edx, edi
  00029	5f		 pop	 edi
; File c:\program files (x86)\microsoft visual studio 11.0\vc\include\xstring

; 1144 : 		return (assign(_Ptr, _Traits::length(_Ptr)));

  0002a	52		 push	 edx
  0002b	56		 push	 esi
  0002c	e8 00 00 00 00	 call	 ?assign@?$basic_string@DU?$char_traits@D@std@@V?$allocator@D@2@@std@@QAEAAV12@PBDI@Z ; std::basic_string<char,std::char_traits<char>,std::allocator<char> >::assign
  00031	5e		 pop	 esi

; 1145 : 		}

  00032	5d		 pop	 ebp
  00033	c2 04 00	 ret	 4
?assign@?$basic_string@DU?$char_traits@D@std@@V?$allocator@D@2@@std@@QAEAAV12@PBD@Z ENDP ; std::basic_string<char,std::char_traits<char>,std::allocator<char> >::assign
_TEXT	ENDS
; Function compile flags: /Ogtp
; File c:\program files (x86)\microsoft visual studio 11.0\vc\include\xstring
;	COMDAT ?size@?$basic_string@DU?$char_traits@D@std@@V?$allocator@D@2@@std@@QBEIXZ
_TEXT	SEGMENT
?size@?$basic_string@DU?$char_traits@D@std@@V?$allocator@D@2@@std@@QBEIXZ PROC ; std::basic_string<char,std::char_traits<char>,std::allocator<char> >::size, COMDAT
; _this$ = ecx

; 1733 : 		return (this->_Mysize);

  00000	8b 41 10	 mov	 eax, DWORD PTR [ecx+16]

; 1734 : 		}

  00003	c3		 ret	 0
?size@?$basic_string@DU?$char_traits@D@std@@V?$allocator@D@2@@std@@QBEIXZ ENDP ; std::basic_string<char,std::char_traits<char>,std::allocator<char> >::size
_TEXT	ENDS
; Function compile flags: /Ogtp
; File c:\program files (x86)\microsoft visual studio 11.0\vc\include\xstring
; File c:\program files (x86)\microsoft visual studio 11.0\vc\include\iosfwd
; File c:\program files (x86)\microsoft visual studio 11.0\vc\include\xmemory0
; File c:\program files (x86)\microsoft visual studio 11.0\vc\include\xstring
; File c:\program files (x86)\microsoft visual studio 11.0\vc\include\iosfwd
; File c:\program files (x86)\microsoft visual studio 11.0\vc\include\xstring
;	COMDAT ?_Tidy@?$basic_string@DU?$char_traits@D@std@@V?$allocator@D@2@@std@@QAEX_NI@Z
_TEXT	SEGMENT
__Built$ = 8						; size = 1
__Newsize$ = 12						; size = 4
?_Tidy@?$basic_string@DU?$char_traits@D@std@@V?$allocator@D@2@@std@@QAEX_NI@Z PROC ; std::basic_string<char,std::char_traits<char>,std::allocator<char> >::_Tidy, COMDAT
; _this$ = ecx

; 2253 : 		{	// initialize buffer, deallocating any storage

  00000	55		 push	 ebp
  00001	8b ec		 mov	 ebp, esp

; 2254 : 		if (!_Built)

  00003	80 7d 08 00	 cmp	 BYTE PTR __Built$[ebp], 0
  00007	56		 push	 esi
  00008	57		 push	 edi
  00009	8b 7d 0c	 mov	 edi, DWORD PTR __Newsize$[ebp]
  0000c	8b f1		 mov	 esi, ecx
  0000e	74 23		 je	 SHORT $LN19@Tidy

; 2255 : 			;
; 2256 : 		else if (this->_BUF_SIZE <= this->_Myres)

  00010	83 7e 14 10	 cmp	 DWORD PTR [esi+20], 16	; 00000010H
  00014	72 1d		 jb	 SHORT $LN19@Tidy

; 2257 : 			{	// copy any leftovers to small buffer and deallocate
; 2258 : 			pointer _Ptr = this->_Bx._Ptr;

  00016	53		 push	 ebx
  00017	8b 1e		 mov	 ebx, DWORD PTR [esi]

; 2259 : 			this->_Getal().destroy(&this->_Bx._Ptr);
; 2260 : 			if (0 < _Newsize)

  00019	85 ff		 test	 edi, edi
  0001b	74 0b		 je	 SHORT $LN14@Tidy
; File c:\program files (x86)\microsoft visual studio 11.0\vc\include\iosfwd

; 530  : 			: (_Elem *)_CSTD memcpy(_First1, _First2, _Count));

  0001d	57		 push	 edi
  0001e	53		 push	 ebx
  0001f	56		 push	 esi
  00020	e8 00 00 00 00	 call	 _memcpy
  00025	83 c4 0c	 add	 esp, 12			; 0000000cH
$LN14@Tidy:
; File c:\program files (x86)\microsoft visual studio 11.0\vc\include\xmemory0

; 586  : 		::operator delete(_Ptr);

  00028	53		 push	 ebx
  00029	ff 15 00 00 00
	00		 call	 DWORD PTR __imp_??3@YAXPAX@Z
  0002f	83 c4 04	 add	 esp, 4
  00032	5b		 pop	 ebx
$LN19@Tidy:
; File c:\program files (x86)\microsoft visual studio 11.0\vc\include\xstring

; 2218 : 		_Traits::assign(this->_Myptr()[this->_Mysize = _Newsize], _Elem());

  00033	89 7e 10	 mov	 DWORD PTR [esi+16], edi

; 2261 : 				_Traits::copy(this->_Bx._Buf,
; 2262 : 					_STD addressof(*_Ptr), _Newsize);
; 2263 : 			this->_Getal().deallocate(_Ptr, this->_Myres + 1);
; 2264 : 			}
; 2265 : 		this->_Myres = this->_BUF_SIZE - 1;

  00036	c7 46 14 0f 00
	00 00		 mov	 DWORD PTR [esi+20], 15	; 0000000fH
; File c:\program files (x86)\microsoft visual studio 11.0\vc\include\iosfwd

; 564  : 		_Left = _Right;

  0003d	c6 04 37 00	 mov	 BYTE PTR [edi+esi], 0
  00041	5f		 pop	 edi
  00042	5e		 pop	 esi
; File c:\program files (x86)\microsoft visual studio 11.0\vc\include\xstring

; 2267 : 		}

  00043	5d		 pop	 ebp
  00044	c2 08 00	 ret	 8
?_Tidy@?$basic_string@DU?$char_traits@D@std@@V?$allocator@D@2@@std@@QAEX_NI@Z ENDP ; std::basic_string<char,std::char_traits<char>,std::allocator<char> >::_Tidy
_TEXT	ENDS
; Function compile flags: /Ogtp
; File c:\program files (x86)\microsoft visual studio 11.0\vc\include\xmemory0
;	COMDAT ??0?$allocator@D@std@@QAE@XZ
_TEXT	SEGMENT
??0?$allocator@D@std@@QAE@XZ PROC			; std::allocator<char>::allocator<char>, COMDAT
; _this$ = ecx

; 566  : 		{	// construct default allocator (do nothing)
; 567  : 		}

  00000	8b c1		 mov	 eax, ecx
  00002	c3		 ret	 0
??0?$allocator@D@std@@QAE@XZ ENDP			; std::allocator<char>::allocator<char>
_TEXT	ENDS
; Function compile flags: /Ogtp
; File c:\program files (x86)\microsoft visual studio 11.0\vc\include\xstring
;	COMDAT ??0?$_String_alloc@$0A@U?$_String_base_types@DV?$allocator@D@std@@@std@@@std@@QAE@ABV?$allocator@D@1@@Z
_TEXT	SEGMENT
___formal$dead$ = 8					; size = 4
??0?$_String_alloc@$0A@U?$_String_base_types@DV?$allocator@D@std@@@std@@@std@@QAE@ABV?$allocator@D@1@@Z PROC ; std::_String_alloc<0,std::_String_base_types<char,std::allocator<char> > >::_String_alloc<0,std::_String_base_types<char,std::allocator<char> > >, COMDAT
; _this$ = ecx

; 498  : 		_Mysize = 0;

  00000	c7 41 10 00 00
	00 00		 mov	 DWORD PTR [ecx+16], 0

; 499  : 		_Myres = 0;

  00007	c7 41 14 00 00
	00 00		 mov	 DWORD PTR [ecx+20], 0

; 636  : 		{	// construct allocator from _Al
; 637  : 		}

  0000e	8b c1		 mov	 eax, ecx
  00010	c2 04 00	 ret	 4
??0?$_String_alloc@$0A@U?$_String_base_types@DV?$allocator@D@std@@@std@@@std@@QAE@ABV?$allocator@D@1@@Z ENDP ; std::_String_alloc<0,std::_String_base_types<char,std::allocator<char> > >::_String_alloc<0,std::_String_base_types<char,std::allocator<char> > >
_TEXT	ENDS
; Function compile flags: /Ogtp
; File c:\program files (x86)\microsoft visual studio 11.0\vc\include\xstring
;	COMDAT ?_Getal@?$_String_alloc@$0A@U?$_String_base_types@DV?$allocator@D@std@@@std@@@std@@QBE?AU?$_Wrap_alloc@V?$allocator@D@std@@@2@XZ
_TEXT	SEGMENT
___$ReturnUdt$ = 8					; size = 4
?_Getal@?$_String_alloc@$0A@U?$_String_base_types@DV?$allocator@D@std@@@std@@@std@@QBE?AU?$_Wrap_alloc@V?$allocator@D@std@@@2@XZ PROC ; std::_String_alloc<0,std::_String_base_types<char,std::allocator<char> > >::_Getal, COMDAT
; _this$dead$ = ecx

; 688  : 		{	// get reference to allocator

  00000	55		 push	 ebp
  00001	8b ec		 mov	 ebp, esp

; 689  : 		return (_Alty());

  00003	8b 45 08	 mov	 eax, DWORD PTR ___$ReturnUdt$[ebp]

; 690  : 		}

  00006	5d		 pop	 ebp
  00007	c2 04 00	 ret	 4
?_Getal@?$_String_alloc@$0A@U?$_String_base_types@DV?$allocator@D@std@@@std@@@std@@QBE?AU?$_Wrap_alloc@V?$allocator@D@std@@@2@XZ ENDP ; std::_String_alloc<0,std::_String_base_types<char,std::allocator<char> > >::_Getal
_TEXT	ENDS
; Function compile flags: /Ogtp
; File c:\program files (x86)\microsoft visual studio 11.0\vc\include\xstring
;	COMDAT ?_Myptr@?$_String_val@U?$_Simple_types@D@std@@@std@@QBEPBDXZ
_TEXT	SEGMENT
?_Myptr@?$_String_val@U?$_Simple_types@D@std@@@std@@QBEPBDXZ PROC ; std::_String_val<std::_Simple_types<char> >::_Myptr, COMDAT
; _this$ = ecx

; 522  : 		return (this->_BUF_SIZE <= this->_Myres
; 523  : 			? _STD addressof(*this->_Bx._Ptr)
; 524  : 			: this->_Bx._Buf);

  00000	83 79 14 10	 cmp	 DWORD PTR [ecx+20], 16	; 00000010H
  00004	72 03		 jb	 SHORT $LN3@Myptr
  00006	8b 01		 mov	 eax, DWORD PTR [ecx]

; 525  : 		}

  00008	c3		 ret	 0
$LN3@Myptr:

; 522  : 		return (this->_BUF_SIZE <= this->_Myres
; 523  : 			? _STD addressof(*this->_Bx._Ptr)
; 524  : 			: this->_Bx._Buf);

  00009	8b c1		 mov	 eax, ecx

; 525  : 		}

  0000b	c3		 ret	 0
?_Myptr@?$_String_val@U?$_Simple_types@D@std@@@std@@QBEPBDXZ ENDP ; std::_String_val<std::_Simple_types<char> >::_Myptr
_TEXT	ENDS
; Function compile flags: /Ogtp
; File c:\program files (x86)\microsoft visual studio 11.0\vc\include\ostream
; File c:\program files (x86)\microsoft visual studio 11.0\vc\include\ios
; File c:\program files (x86)\microsoft visual studio 11.0\vc\include\ostream
; File c:\program files (x86)\microsoft visual studio 11.0\vc\include\xiosbase
; File c:\program files (x86)\microsoft visual studio 11.0\vc\include\ostream
; File c:\program files (x86)\microsoft visual studio 11.0\vc\include\xiosbase
; File c:\program files (x86)\microsoft visual studio 11.0\vc\include\ostream
;	COMDAT ??0sentry@?$basic_ostream@DU?$char_traits@D@std@@@std@@QAE@AAV12@@Z
_TEXT	SEGMENT
_this$ = -16						; size = 4
__$EHRec$ = -12						; size = 12
__Ostr$ = 8						; size = 4
??0sentry@?$basic_ostream@DU?$char_traits@D@std@@@std@@QAE@AAV12@@Z PROC ; std::basic_ostream<char,std::char_traits<char> >::sentry::sentry, COMDAT
; _this$ = ecx

; 126  : 			{	// construct locking and testing stream

  00000	55		 push	 ebp
  00001	8b ec		 mov	 ebp, esp
  00003	6a ff		 push	 -1
  00005	68 00 00 00 00	 push	 __ehhandler$??0sentry@?$basic_ostream@DU?$char_traits@D@std@@@std@@QAE@AAV12@@Z
  0000a	64 a1 00 00 00
	00		 mov	 eax, DWORD PTR fs:0
  00010	50		 push	 eax
  00011	51		 push	 ecx
  00012	56		 push	 esi
  00013	57		 push	 edi
  00014	a1 00 00 00 00	 mov	 eax, DWORD PTR ___security_cookie
  00019	33 c5		 xor	 eax, ebp
  0001b	50		 push	 eax
  0001c	8d 45 f4	 lea	 eax, DWORD PTR __$EHRec$[ebp]
  0001f	64 a3 00 00 00
	00		 mov	 DWORD PTR fs:0, eax
  00025	8b f9		 mov	 edi, ecx
  00027	89 7d f0	 mov	 DWORD PTR _this$[ebp], edi

; 103  : 			{	// lock the stream buffer, if there

  0002a	8b 75 08	 mov	 esi, DWORD PTR __Ostr$[ebp]
  0002d	89 37		 mov	 DWORD PTR [edi], esi
; File c:\program files (x86)\microsoft visual studio 11.0\vc\include\ios

; 96   : 		return (_Mystrbuf);

  0002f	8b 06		 mov	 eax, DWORD PTR [esi]
  00031	8b 40 04	 mov	 eax, DWORD PTR [eax+4]
  00034	8b 4c 30 38	 mov	 ecx, DWORD PTR [eax+esi+56]
; File c:\program files (x86)\microsoft visual studio 11.0\vc\include\ostream

; 104  : 			if (_Myostr.rdbuf() != 0)

  00038	85 c9		 test	 ecx, ecx
  0003a	74 05		 je	 SHORT $LN5@sentry

; 105  : 				_Myostr.rdbuf()->_Lock();

  0003c	8b 01		 mov	 eax, DWORD PTR [ecx]
  0003e	ff 50 04	 call	 DWORD PTR [eax+4]
$LN5@sentry:

; 126  : 			{	// construct locking and testing stream

  00041	c7 45 fc 00 00
	00 00		 mov	 DWORD PTR __$EHRec$[ebp+8], 0
; File c:\program files (x86)\microsoft visual studio 11.0\vc\include\xiosbase

; 327  : 		return (_Mystate);

  00048	8b 06		 mov	 eax, DWORD PTR [esi]
  0004a	8b 40 04	 mov	 eax, DWORD PTR [eax+4]

; 349  : 		return (rdstate() == goodbit);

  0004d	83 7c 30 0c 00	 cmp	 DWORD PTR [eax+esi+12], 0
; File c:\program files (x86)\microsoft visual studio 11.0\vc\include\ostream

; 127  : 			if (_Ostr.good() && _Ostr.tie() != 0)

  00052	75 0e		 jne	 SHORT $LN1@sentry
  00054	8b 4c 30 3c	 mov	 ecx, DWORD PTR [eax+esi+60]
  00058	85 c9		 test	 ecx, ecx
  0005a	74 06		 je	 SHORT $LN1@sentry

; 128  : 				_Ostr.tie()->flush();

  0005c	ff 15 00 00 00
	00		 call	 DWORD PTR __imp_?flush@?$basic_ostream@DU?$char_traits@D@std@@@std@@QAEAAV12@XZ
$LN1@sentry:
; File c:\program files (x86)\microsoft visual studio 11.0\vc\include\xiosbase

; 349  : 		return (rdstate() == goodbit);

  00062	8b 06		 mov	 eax, DWORD PTR [esi]
  00064	8b 40 04	 mov	 eax, DWORD PTR [eax+4]
  00067	83 7c 30 0c 00	 cmp	 DWORD PTR [eax+esi+12], 0
  0006c	0f 94 c0	 sete	 al
; File c:\program files (x86)\microsoft visual studio 11.0\vc\include\ostream

; 129  : 			_Ok = _Ostr.good();	// store test only after flushing tie

  0006f	88 47 04	 mov	 BYTE PTR [edi+4], al

; 130  : 			}

  00072	8b c7		 mov	 eax, edi
  00074	8b 4d f4	 mov	 ecx, DWORD PTR __$EHRec$[ebp]
  00077	64 89 0d 00 00
	00 00		 mov	 DWORD PTR fs:0, ecx
  0007e	59		 pop	 ecx
  0007f	5f		 pop	 edi
  00080	5e		 pop	 esi
  00081	8b e5		 mov	 esp, ebp
  00083	5d		 pop	 ebp
  00084	c2 04 00	 ret	 4
_TEXT	ENDS
;	COMDAT text$x
text$x	SEGMENT
__unwindfunclet$??0sentry@?$basic_ostream@DU?$char_traits@D@std@@@std@@QAE@AAV12@@Z$0:
  00000	8b 4d f0	 mov	 ecx, DWORD PTR _this$[ebp]
  00003	e9 00 00 00 00	 jmp	 ??1_Sentry_base@?$basic_ostream@DU?$char_traits@D@std@@@std@@QAE@XZ ; std::basic_ostream<char,std::char_traits<char> >::_Sentry_base::~_Sentry_base
__ehhandler$??0sentry@?$basic_ostream@DU?$char_traits@D@std@@@std@@QAE@AAV12@@Z:
  00008	8b 54 24 08	 mov	 edx, DWORD PTR [esp+8]
  0000c	8d 42 0c	 lea	 eax, DWORD PTR [edx+12]
  0000f	8b 4a f0	 mov	 ecx, DWORD PTR [edx-16]
  00012	33 c8		 xor	 ecx, eax
  00014	e8 00 00 00 00	 call	 @__security_check_cookie@4
  00019	b8 00 00 00 00	 mov	 eax, OFFSET __ehfuncinfo$??0sentry@?$basic_ostream@DU?$char_traits@D@std@@@std@@QAE@AAV12@@Z
  0001e	e9 00 00 00 00	 jmp	 ___CxxFrameHandler3
text$x	ENDS
??0sentry@?$basic_ostream@DU?$char_traits@D@std@@@std@@QAE@AAV12@@Z ENDP ; std::basic_ostream<char,std::char_traits<char> >::sentry::sentry
; Function compile flags: /Ogtp
; File c:\program files (x86)\microsoft visual studio 11.0\vc\include\ostream
;	COMDAT ??1sentry@?$basic_ostream@DU?$char_traits@D@std@@@std@@QAE@XZ
_TEXT	SEGMENT
??1sentry@?$basic_ostream@DU?$char_traits@D@std@@@std@@QAE@XZ PROC ; std::basic_ostream<char,std::char_traits<char> >::sentry::~sentry, COMDAT
; _this$ = ecx

; 133  : 			{	// destroy the object

  00000	56		 push	 esi
  00001	8b f1		 mov	 esi, ecx

; 134  :  #if _HAS_EXCEPTIONS
; 135  : 			if (!_XSTD uncaught_exception())

  00003	ff 15 00 00 00
	00		 call	 DWORD PTR __imp_?uncaught_exception@std@@YA_NXZ
  00009	84 c0		 test	 al, al
  0000b	75 08		 jne	 SHORT $LN1@sentry

; 136  : 				this->_Myostr._Osfx();

  0000d	8b 0e		 mov	 ecx, DWORD PTR [esi]
  0000f	ff 15 00 00 00
	00		 call	 DWORD PTR __imp_?_Osfx@?$basic_ostream@DU?$char_traits@D@std@@@std@@QAEXXZ
$LN1@sentry:

; 110  : 			if (_Myostr.rdbuf() != 0)

  00015	8b 0e		 mov	 ecx, DWORD PTR [esi]
  00017	5e		 pop	 esi
  00018	8b 01		 mov	 eax, DWORD PTR [ecx]
  0001a	8b 40 04	 mov	 eax, DWORD PTR [eax+4]
  0001d	8b 4c 08 38	 mov	 ecx, DWORD PTR [eax+ecx+56]
  00021	85 c9		 test	 ecx, ecx
  00023	74 05		 je	 SHORT $LN4@sentry

; 111  : 				_Myostr.rdbuf()->_Unlock();

  00025	8b 01		 mov	 eax, DWORD PTR [ecx]
  00027	ff 60 08	 jmp	 DWORD PTR [eax+8]
$LN4@sentry:

; 137  : 
; 138  :  #else /* _HAS_EXCEPTIONS */
; 139  : 			this->_Myostr._Osfx();
; 140  :  #endif /* _HAS_EXCEPTIONS */
; 141  : 			}

  0002a	c3		 ret	 0
??1sentry@?$basic_ostream@DU?$char_traits@D@std@@@std@@QAE@XZ ENDP ; std::basic_ostream<char,std::char_traits<char> >::sentry::~sentry
_TEXT	ENDS
; Function compile flags: /Ogtp
; File c:\program files (x86)\microsoft visual studio 11.0\vc\include\ostream
;	COMDAT ??Bsentry@?$basic_ostream@DU?$char_traits@D@std@@@std@@QBEPQ?$_Bool_struct@V?$basic_ostream@DU?$char_traits@D@std@@@std@@@2@HXZ
_TEXT	SEGMENT
??Bsentry@?$basic_ostream@DU?$char_traits@D@std@@@std@@QBEPQ?$_Bool_struct@V?$basic_ostream@DU?$char_traits@D@std@@@std@@@2@HXZ PROC ; std::basic_ostream<char,std::char_traits<char> >::sentry::operator int std::_Bool_struct<std::basic_ostream<char,std::char_traits<char> > >::*, COMDAT
; _this$ = ecx

; 147  : 			return (_Ok ? _CONVERTIBLE_TO_TRUE : 0);

  00000	33 c0		 xor	 eax, eax
  00002	38 41 04	 cmp	 BYTE PTR [ecx+4], al
  00005	0f 95 c0	 setne	 al
  00008	48		 dec	 eax

; 148  : 			}

  00009	c3		 ret	 0
??Bsentry@?$basic_ostream@DU?$char_traits@D@std@@@std@@QBEPQ?$_Bool_struct@V?$basic_ostream@DU?$char_traits@D@std@@@std@@@2@HXZ ENDP ; std::basic_ostream<char,std::char_traits<char> >::sentry::operator int std::_Bool_struct<std::basic_ostream<char,std::char_traits<char> > >::*
_TEXT	ENDS
; Function compile flags: /Ogtp
; File c:\program files (x86)\microsoft visual studio 11.0\vc\include\xstring
; File c:\program files (x86)\microsoft visual studio 11.0\vc\include\xstddef
; File c:\program files (x86)\microsoft visual studio 11.0\vc\include\xstring
; File c:\program files (x86)\microsoft visual studio 11.0\vc\include\xstddef
; File c:\program files (x86)\microsoft visual studio 11.0\vc\include\xstring
; File c:\program files (x86)\microsoft visual studio 11.0\vc\include\xstddef
; File c:\program files (x86)\microsoft visual studio 11.0\vc\include\xstring
; File c:\program files (x86)\microsoft visual studio 11.0\vc\include\xstddef
; File c:\program files (x86)\microsoft visual studio 11.0\vc\include\xstring
; File c:\program files (x86)\microsoft visual studio 11.0\vc\include\xstddef
; File c:\program files (x86)\microsoft visual studio 11.0\vc\include\iosfwd
; File c:\program files (x86)\microsoft visual studio 11.0\vc\include\xstring
; File c:\program files (x86)\microsoft visual studio 11.0\vc\include\iosfwd
; File c:\program files (x86)\microsoft visual studio 11.0\vc\include\xstring
; File c:\program files (x86)\microsoft visual studio 11.0\vc\include\iosfwd
; File c:\program files (x86)\microsoft visual studio 11.0\vc\include\xstring
; File c:\program files (x86)\microsoft visual studio 11.0\vc\include\xstddef
; File c:\program files (x86)\microsoft visual studio 11.0\vc\include\iosfwd
; File c:\program files (x86)\microsoft visual studio 11.0\vc\include\xstring
; File c:\program files (x86)\microsoft visual studio 11.0\vc\include\iosfwd
; File c:\program files (x86)\microsoft visual studio 11.0\vc\include\xstring
;	COMDAT ?assign@?$basic_string@DU?$char_traits@D@std@@V?$allocator@D@2@@std@@QAEAAV12@PBDI@Z
_TEXT	SEGMENT
__Ptr$ = 8						; size = 4
__Count$ = 12						; size = 4
?assign@?$basic_string@DU?$char_traits@D@std@@V?$allocator@D@2@@std@@QAEAAV12@PBDI@Z PROC ; std::basic_string<char,std::char_traits<char>,std::allocator<char> >::assign, COMDAT
; _this$ = ecx

; 1123 : 		{	// assign [_Ptr, _Ptr + _Count)

  00000	55		 push	 ebp
  00001	8b ec		 mov	 ebp, esp
  00003	53		 push	 ebx

; 2234 : 		}
; 2235 : 
; 2236 : 	bool _Inside(const _Elem *_Ptr)
; 2237 : 		{	// test if _Ptr points inside string
; 2238 : 		if (_Ptr == 0 || _Ptr < this->_Myptr()
; 2239 : 			|| this->_Myptr() + this->_Mysize <= _Ptr)

  00004	8b 5d 08	 mov	 ebx, DWORD PTR __Ptr$[ebp]
  00007	56		 push	 esi

; 1123 : 		{	// assign [_Ptr, _Ptr + _Count)

  00008	8b f1		 mov	 esi, ecx

; 2234 : 		}
; 2235 : 
; 2236 : 	bool _Inside(const _Elem *_Ptr)
; 2237 : 		{	// test if _Ptr points inside string
; 2238 : 		if (_Ptr == 0 || _Ptr < this->_Myptr()
; 2239 : 			|| this->_Myptr() + this->_Mysize <= _Ptr)

  0000a	85 db		 test	 ebx, ebx
  0000c	74 57		 je	 SHORT $LN2@assign

; 517  : 			: this->_Bx._Buf);

  0000e	8b 4e 14	 mov	 ecx, DWORD PTR [esi+20]
  00011	83 f9 10	 cmp	 ecx, 16			; 00000010H
  00014	72 04		 jb	 SHORT $LN12@assign
; File c:\program files (x86)\microsoft visual studio 11.0\vc\include\xstddef

; 88   : 		reinterpret_cast<const volatile char&>(_Val)))));

  00016	8b 06		 mov	 eax, DWORD PTR [esi]
; File c:\program files (x86)\microsoft visual studio 11.0\vc\include\xstring

; 517  : 			: this->_Bx._Buf);

  00018	eb 02		 jmp	 SHORT $LN13@assign
$LN12@assign:
  0001a	8b c6		 mov	 eax, esi
$LN13@assign:

; 2234 : 		}
; 2235 : 
; 2236 : 	bool _Inside(const _Elem *_Ptr)
; 2237 : 		{	// test if _Ptr points inside string
; 2238 : 		if (_Ptr == 0 || _Ptr < this->_Myptr()
; 2239 : 			|| this->_Myptr() + this->_Mysize <= _Ptr)

  0001c	3b d8		 cmp	 ebx, eax
  0001e	72 45		 jb	 SHORT $LN2@assign

; 517  : 			: this->_Bx._Buf);

  00020	83 f9 10	 cmp	 ecx, 16			; 00000010H
  00023	72 04		 jb	 SHORT $LN18@assign
; File c:\program files (x86)\microsoft visual studio 11.0\vc\include\xstddef

; 88   : 		reinterpret_cast<const volatile char&>(_Val)))));

  00025	8b 16		 mov	 edx, DWORD PTR [esi]
; File c:\program files (x86)\microsoft visual studio 11.0\vc\include\xstring

; 517  : 			: this->_Bx._Buf);

  00027	eb 02		 jmp	 SHORT $LN19@assign
$LN18@assign:
  00029	8b d6		 mov	 edx, esi
$LN19@assign:

; 2234 : 		}
; 2235 : 
; 2236 : 	bool _Inside(const _Elem *_Ptr)
; 2237 : 		{	// test if _Ptr points inside string
; 2238 : 		if (_Ptr == 0 || _Ptr < this->_Myptr()
; 2239 : 			|| this->_Myptr() + this->_Mysize <= _Ptr)

  0002b	8b 46 10	 mov	 eax, DWORD PTR [esi+16]
  0002e	03 c2		 add	 eax, edx
  00030	3b c3		 cmp	 eax, ebx
  00032	76 31		 jbe	 SHORT $LN2@assign

; 517  : 			: this->_Bx._Buf);

  00034	83 f9 10	 cmp	 ecx, 16			; 00000010H
  00037	72 16		 jb	 SHORT $LN24@assign
; File c:\program files (x86)\microsoft visual studio 11.0\vc\include\xstddef

; 88   : 		reinterpret_cast<const volatile char&>(_Val)))));

  00039	8b 06		 mov	 eax, DWORD PTR [esi]
; File c:\program files (x86)\microsoft visual studio 11.0\vc\include\xstring

; 1131 : 				_Ptr - this->_Myptr(), _Count));	// substring

  0003b	ff 75 0c	 push	 DWORD PTR __Count$[ebp]
  0003e	2b d8		 sub	 ebx, eax
  00040	53		 push	 ebx
  00041	56		 push	 esi
  00042	8b ce		 mov	 ecx, esi
  00044	e8 00 00 00 00	 call	 ?assign@?$basic_string@DU?$char_traits@D@std@@V?$allocator@D@2@@std@@QAEAAV12@ABV12@II@Z ; std::basic_string<char,std::char_traits<char>,std::allocator<char> >::assign
  00049	5e		 pop	 esi
  0004a	5b		 pop	 ebx

; 1139 : 		}

  0004b	5d		 pop	 ebp
  0004c	c2 08 00	 ret	 8
$LN24@assign:

; 1131 : 				_Ptr - this->_Myptr(), _Count));	// substring

  0004f	ff 75 0c	 push	 DWORD PTR __Count$[ebp]

; 517  : 			: this->_Bx._Buf);

  00052	8b c6		 mov	 eax, esi

; 1131 : 				_Ptr - this->_Myptr(), _Count));	// substring

  00054	2b d8		 sub	 ebx, eax
  00056	53		 push	 ebx
  00057	56		 push	 esi
  00058	8b ce		 mov	 ecx, esi
  0005a	e8 00 00 00 00	 call	 ?assign@?$basic_string@DU?$char_traits@D@std@@V?$allocator@D@2@@std@@QAEAAV12@ABV12@II@Z ; std::basic_string<char,std::char_traits<char>,std::allocator<char> >::assign
  0005f	5e		 pop	 esi
  00060	5b		 pop	 ebx

; 1139 : 		}

  00061	5d		 pop	 ebp
  00062	c2 08 00	 ret	 8
$LN2@assign:
  00065	57		 push	 edi

; 2219 : 		}
; 2220 : 
; 2221 : 	bool _Grow(size_type _Newsize,
; 2222 : 		bool _Trim = false)
; 2223 : 		{	// ensure buffer is big enough, trim to size if _Trim is true
; 2224 : 		if (max_size() < _Newsize)

  00066	8b 7d 0c	 mov	 edi, DWORD PTR __Count$[ebp]
  00069	83 ff fe	 cmp	 edi, -2			; fffffffeH
  0006c	76 0b		 jbe	 SHORT $LN33@assign

; 2240 : 			return (false);	// don't ask
; 2241 : 		else
; 2242 : 			return (true);
; 2243 : 		}
; 2244 : 
; 2245 : 	static size_type _Pdif(const_iterator _P2,
; 2246 : 		const_iterator _P1)
; 2247 : 		{	// compute safe iterator difference
; 2248 : 		return (_STRING_ITER_BASE(_P2) == 0 ? 0 : _P2 - _P1);
; 2249 : 		}
; 2250 : 
; 2251 : 	void _Tidy(bool _Built = false,
; 2252 : 		size_type _Newsize = 0)
; 2253 : 		{	// initialize buffer, deallocating any storage
; 2254 : 		if (!_Built)
; 2255 : 			;
; 2256 : 		else if (this->_BUF_SIZE <= this->_Myres)
; 2257 : 			{	// copy any leftovers to small buffer and deallocate
; 2258 : 			pointer _Ptr = this->_Bx._Ptr;
; 2259 : 			this->_Getal().destroy(&this->_Bx._Ptr);
; 2260 : 			if (0 < _Newsize)
; 2261 : 				_Traits::copy(this->_Bx._Buf,
; 2262 : 					_STD addressof(*_Ptr), _Newsize);
; 2263 : 			this->_Getal().deallocate(_Ptr, this->_Myres + 1);
; 2264 : 			}
; 2265 : 		this->_Myres = this->_BUF_SIZE - 1;
; 2266 : 		_Eos(_Newsize);
; 2267 : 		}
; 2268 : 
; 2269 : 	__declspec(noreturn) void _Xlen() const
; 2270 : 		{	// report a length_error
; 2271 : 		_Xlength_error("string too long");

  0006e	68 00 00 00 00	 push	 OFFSET ??_C@_0BA@JFNIOLAK@string?5too?5long?$AA@
  00073	ff 15 00 00 00
	00		 call	 DWORD PTR __imp_?_Xlength_error@std@@YAXPBD@Z
$LN119@assign:
$LN33@assign:

; 2225 : 			_Xlen();	// result too long
; 2226 : 		if (this->_Myres < _Newsize)

  00079	8b 46 14	 mov	 eax, DWORD PTR [esi+20]
  0007c	3b c7		 cmp	 eax, edi
  0007e	73 19		 jae	 SHORT $LN32@assign

; 2227 : 			_Copy(_Newsize, this->_Mysize);	// reallocate to grow

  00080	ff 76 10	 push	 DWORD PTR [esi+16]
  00083	8b ce		 mov	 ecx, esi
  00085	57		 push	 edi
  00086	e8 00 00 00 00	 call	 ?_Copy@?$basic_string@DU?$char_traits@D@std@@V?$allocator@D@2@@std@@QAEXII@Z ; std::basic_string<char,std::char_traits<char>,std::allocator<char> >::_Copy

; 2232 : 			_Eos(0);	// new size is zero, just null terminate
; 2233 : 		return (0 < _Newsize);	// return true only if more work to do

  0008b	85 ff		 test	 edi, edi

; 1132 : 
; 1133 : 		if (_Grow(_Count))

  0008d	74 5f		 je	 SHORT $LN112@assign
$LN117@assign:

; 517  : 			: this->_Bx._Buf);

  0008f	83 7e 14 10	 cmp	 DWORD PTR [esi+20], 16	; 00000010H
  00093	72 2a		 jb	 SHORT $LN96@assign
; File c:\program files (x86)\microsoft visual studio 11.0\vc\include\xstddef

; 88   : 		reinterpret_cast<const volatile char&>(_Val)))));

  00095	8b 06		 mov	 eax, DWORD PTR [esi]
; File c:\program files (x86)\microsoft visual studio 11.0\vc\include\xstring

; 517  : 			: this->_Bx._Buf);

  00097	eb 28		 jmp	 SHORT $LN97@assign
$LN32@assign:

; 2228 : 		else if (_Trim && _Newsize < this->_BUF_SIZE)
; 2229 : 			_Tidy(true,	// copy and deallocate if trimming to small string
; 2230 : 				_Newsize < this->_Mysize ? _Newsize : this->_Mysize);
; 2231 : 		else if (_Newsize == 0)

  00099	85 ff		 test	 edi, edi
  0009b	75 f2		 jne	 SHORT $LN117@assign

; 1140 : 
; 1141 : 	_Myt& assign(const _Elem *_Ptr)
; 1142 : 		{	// assign [_Ptr, <null>)
; 1143 : 		_DEBUG_POINTER(_Ptr);
; 1144 : 		return (assign(_Ptr, _Traits::length(_Ptr)));
; 1145 : 		}
; 1146 : 
; 1147 : 	_Myt& assign(size_type _Count, _Elem _Ch)
; 1148 : 		{	// assign _Count * _Ch
; 1149 : 		if (_Count == npos)
; 1150 : 			_Xlen();	// result too long
; 1151 : 
; 1152 : 		if (_Grow(_Count))
; 1153 : 			{	// make room and assign new stuff
; 1154 : 			_Chassign(0, _Count, _Ch);
; 1155 : 			_Eos(_Count);
; 1156 : 			}
; 1157 : 		return (*this);
; 1158 : 		}
; 1159 : 
; 1160 : 	template<class _Iter>
; 1161 : 		typename enable_if<_Is_iterator<_Iter>::value,
; 1162 : 			_Myt&>::type
; 1163 : 		assign(_Iter _First, _Iter _Last)
; 1164 : 		{	// assign [First, _Last), input iterators
; 1165 : 		return (replace(begin(), end(), _First, _Last));
; 1166 : 		}
; 1167 : 
; 1168 : 	_Myt& assign(const_pointer _First, const_pointer _Last)
; 1169 : 		{	// assign [First, _Last), const pointers
; 1170 : 		return (replace(begin(), end(), _First, _Last));
; 1171 : 		}
; 1172 : 
; 1173 : 	_Myt& assign(const_iterator _First, const_iterator _Last)
; 1174 : 		{	// assign [First, _Last), const_iterators
; 1175 : 		return (replace(begin(), end(), _First, _Last));
; 1176 : 		}
; 1177 : 
; 1178 : 	_Myt& insert(size_type _Off, const _Myt& _Right)
; 1179 : 		{	// insert _Right at _Off
; 1180 : 		return (insert(_Off, _Right, 0, npos));
; 1181 : 		}
; 1182 : 
; 1183 : 	_Myt& insert(size_type _Off,
; 1184 : 		const _Myt& _Right, size_type _Roff, size_type _Count)
; 1185 : 		{	// insert _Right [_Roff, _Roff + _Count) at _Off
; 1186 : 		if (this->_Mysize < _Off || _Right.size() < _Roff)
; 1187 : 			_Xran();	// _Off or _Roff off end
; 1188 : 		size_type _Num = _Right.size() - _Roff;
; 1189 : 		if (_Num < _Count)
; 1190 : 			_Count = _Num;	// trim _Count to size
; 1191 : 		if (npos - this->_Mysize <= _Count)
; 1192 : 			_Xlen();	// result too long
; 1193 : 
; 1194 : 		if (0 < _Count && _Grow(_Num = this->_Mysize + _Count))
; 1195 : 			{	// make room and insert new stuff
; 1196 : 			_Traits::move(this->_Myptr() + _Off + _Count,
; 1197 : 				this->_Myptr() + _Off,
; 1198 : 				this->_Mysize - _Off);	// empty out hole
; 1199 : 			if (this == &_Right)
; 1200 : 				_Traits::move(this->_Myptr() + _Off,
; 1201 : 					this->_Myptr() + (_Off < _Roff ? _Roff + _Count : _Roff),
; 1202 : 						_Count);	// substring
; 1203 : 			else
; 1204 : 				_Traits::copy(this->_Myptr() + _Off,
; 1205 : 					_Right._Myptr() + _Roff, _Count);	// fill hole
; 1206 : 			_Eos(_Num);
; 1207 : 			}
; 1208 : 		return (*this);
; 1209 : 		}
; 1210 : 
; 1211 : 	_Myt& insert(size_type _Off,
; 1212 : 		const _Elem *_Ptr, size_type _Count)
; 1213 : 		{	// insert [_Ptr, _Ptr + _Count) at _Off
; 1214 :  #if _ITERATOR_DEBUG_LEVEL == 2
; 1215 : 		if (_Count != 0)
; 1216 : 			_DEBUG_POINTER(_Ptr);
; 1217 :  #endif /* _ITERATOR_DEBUG_LEVEL == 2 */
; 1218 : 
; 1219 : 		if (_Inside(_Ptr))
; 1220 : 			return (insert(_Off, *this,
; 1221 : 				_Ptr - this->_Myptr(), _Count));	// substring
; 1222 : 		if (this->_Mysize < _Off)
; 1223 : 			_Xran();	// _Off off end
; 1224 : 		if (npos - this->_Mysize <= _Count)
; 1225 : 			_Xlen();	// result too long
; 1226 : 		size_type _Num;
; 1227 : 		if (0 < _Count && _Grow(_Num = this->_Mysize + _Count))
; 1228 : 			{	// make room and insert new stuff
; 1229 : 			_Traits::move(this->_Myptr() + _Off + _Count,
; 1230 : 				this->_Myptr() + _Off,
; 1231 : 				this->_Mysize - _Off);	// empty out hole
; 1232 : 			_Traits::copy(this->_Myptr() + _Off, _Ptr, _Count);	// fill hole
; 1233 : 			_Eos(_Num);
; 1234 : 			}
; 1235 : 		return (*this);
; 1236 : 		}
; 1237 : 
; 1238 : 	_Myt& insert(size_type _Off, const _Elem *_Ptr)
; 1239 : 		{	// insert [_Ptr, <null>) at _Off
; 1240 : 		_DEBUG_POINTER(_Ptr);
; 1241 : 		return (insert(_Off, _Ptr, _Traits::length(_Ptr)));
; 1242 : 		}
; 1243 : 
; 1244 : 	_Myt& insert(size_type _Off,
; 1245 : 		size_type _Count, _Elem _Ch)
; 1246 : 		{	// insert _Count * _Ch at _Off
; 1247 : 		if (this->_Mysize < _Off)
; 1248 : 			_Xran();	// _Off off end
; 1249 : 		if (npos - this->_Mysize <= _Count)
; 1250 : 			_Xlen();	// result too long
; 1251 : 		size_type _Num;
; 1252 : 		if (0 < _Count && _Grow(_Num = this->_Mysize + _Count))
; 1253 : 			{	// make room and insert new stuff
; 1254 : 			_Traits::move(this->_Myptr() + _Off + _Count,
; 1255 : 				this->_Myptr() + _Off,
; 1256 : 				this->_Mysize - _Off);	// empty out hole
; 1257 : 			_Chassign(_Off, _Count, _Ch);	// fill hole
; 1258 : 			_Eos(_Num);
; 1259 : 			}
; 1260 : 		return (*this);
; 1261 : 		}
; 1262 : 
; 1263 : 	iterator insert(const_iterator _Where)
; 1264 : 		{	// insert <null> at _Where
; 1265 : 		return (insert(_Where, _Elem()));
; 1266 : 		}
; 1267 : 
; 1268 : 	iterator insert(const_iterator _Where, _Elem _Ch)
; 1269 : 		{	// insert _Ch at _Where
; 1270 : 		size_type _Off = _Pdif(_Where, begin());
; 1271 : 		insert(_Off, 1, _Ch);
; 1272 : 		return (begin() + _Off);
; 1273 : 		}
; 1274 : 
; 1275 : 	iterator insert(const_iterator _Where, size_type _Count, _Elem _Ch)
; 1276 : 		{	// insert _Count * _Elem at _Where
; 1277 : 		size_type _Off = _Pdif(_Where, begin());
; 1278 : 		insert(_Off, _Count, _Ch);
; 1279 : 		return (begin() + _Off);
; 1280 : 		}
; 1281 : 
; 1282 : 	template<class _Iter>
; 1283 : 		typename enable_if<_Is_iterator<_Iter>::value,
; 1284 : 			iterator>::type
; 1285 : 		insert(const_iterator _Where, _Iter _First, _Iter _Last)
; 1286 : 		{	// insert [_First, _Last) at _Where, input iterators
; 1287 : 		size_type _Off = _Pdif(_Where, begin());
; 1288 : 		replace(_Where, _Where, _First, _Last);
; 1289 : 		return (begin() + _Off);
; 1290 : 		}
; 1291 : 
; 1292 : 	iterator insert(const_iterator _Where,
; 1293 : 		const_pointer _First, const_pointer _Last)
; 1294 : 		{	// insert [_First, _Last) at _Where, const pointers
; 1295 : 		size_type _Off = _Pdif(_Where, begin());
; 1296 : 		replace(_Where, _Where, _First, _Last);
; 1297 : 		return (begin() + _Off);
; 1298 : 		}
; 1299 : 
; 1300 : 	iterator insert(const_iterator _Where,
; 1301 : 		const_iterator _First, const_iterator _Last)
; 1302 : 		{	// insert [_First, _Last) at _Where, const_iterators
; 1303 : 		size_type _Off = _Pdif(_Where, begin());
; 1304 : 		replace(_Where, _Where, _First, _Last);
; 1305 : 		return (begin() + _Off);
; 1306 : 		}
; 1307 : 
; 1308 : 	_Myt& erase(size_type _Off = 0)
; 1309 : 		{	// erase elements [_Off, ...)
; 1310 : 		if (this->_Mysize < _Off)
; 1311 : 			_Xran();	// _Off off end
; 1312 : 		_Eos(_Off);
; 1313 : 		return (*this);
; 1314 : 		}
; 1315 : 
; 1316 : 	_Myt& erase(size_type _Off, size_type _Count)
; 1317 : 		{	// erase elements [_Off, _Off + _Count)
; 1318 : 		if (this->_Mysize < _Off)
; 1319 : 			_Xran();	// _Off off end
; 1320 : 		if (this->_Mysize - _Off <= _Count)
; 1321 : 			_Eos(_Off);	// erase elements [_Off, ...)
; 1322 : 		else if (0 < _Count)
; 1323 : 			{	// move elements down
; 1324 : 			value_type *_Ptr = this->_Myptr() + _Off;
; 1325 : 			size_type _Newsize = this->_Mysize - _Count;
; 1326 : 			_Traits::move(_Ptr, _Ptr + _Count, _Newsize - _Off);
; 1327 : 			_Eos(_Newsize);
; 1328 : 			}
; 1329 : 		return (*this);
; 1330 : 		}
; 1331 : 
; 1332 : 	iterator erase(const_iterator _Where)
; 1333 : 		{	// erase element at _Where
; 1334 : 		size_type _Count = _Pdif(_Where, begin());
; 1335 : 		erase(_Count, 1);
; 1336 : 		return (_STRING_ITERATOR(this->_Myptr() + _Count));
; 1337 : 		}
; 1338 : 
; 1339 : 	iterator erase(const_iterator _First, const_iterator _Last)
; 1340 : 		{	// erase substring [_First, _Last)
; 1341 : 		_DEBUG_RANGE(_First, _Last);
; 1342 : 		size_type _Count = _Pdif(_First, begin());
; 1343 : 		erase(_Count, _Pdif(_Last, _First));
; 1344 : 		return (_STRING_ITERATOR(this->_Myptr() + _Count));
; 1345 : 		}
; 1346 : 
; 1347 : 	void clear() _NOEXCEPT
; 1348 : 		{	// erase all
; 1349 : 		_Eos(0);
; 1350 : 		}
; 1351 : 
; 1352 : 	_Myt& replace(size_type _Off, size_type _N0, const _Myt& _Right)
; 1353 : 		{	// replace [_Off, _Off + _N0) with _Right
; 1354 : 		return (replace(_Off, _N0, _Right, 0, npos));
; 1355 : 		}
; 1356 : 
; 1357 : 	_Myt& replace(size_type _Off,
; 1358 : 		size_type _N0, const _Myt& _Right, size_type _Roff, size_type _Count)
; 1359 : 		{	// replace [_Off, _Off + _N0) with _Right [_Roff, _Roff + _Count)
; 1360 : 		if (this->_Mysize < _Off || _Right.size() < _Roff)
; 1361 : 			_Xran();	// _Off or _Roff off end
; 1362 : 		if (this->_Mysize - _Off < _N0)
; 1363 : 			_N0 = this->_Mysize - _Off;	// trim _N0 to size
; 1364 : 		size_type _Num = _Right.size() - _Roff;
; 1365 : 		if (_Num < _Count)
; 1366 : 			_Count = _Num;	// trim _Count to size
; 1367 : 		if (npos - _Count <= this->_Mysize - _N0)
; 1368 : 			_Xlen();	// result too long
; 1369 : 
; 1370 : 		size_type _Nm = this->_Mysize - _N0 - _Off;	// length of kept tail
; 1371 : 		size_type _Newsize = this->_Mysize + _Count - _N0;
; 1372 : 		if (this->_Mysize < _Newsize)
; 1373 : 			_Grow(_Newsize);
; 1374 : 
; 1375 : 		if (this != &_Right)
; 1376 : 			{	// no overlap, just move down and copy in new stuff
; 1377 : 			_Traits::move(this->_Myptr() + _Off + _Count,
; 1378 : 				this->_Myptr() + _Off + _N0, _Nm);	// empty hole
; 1379 : 			_Traits::copy(this->_Myptr() + _Off,
; 1380 : 				_Right._Myptr() + _Roff, _Count);	// fill hole
; 1381 : 			}
; 1382 : 		else if (_Count <= _N0)
; 1383 : 			{	// hole doesn't get larger, just copy in substring
; 1384 : 			_Traits::move(this->_Myptr() + _Off,
; 1385 : 				this->_Myptr() + _Roff, _Count);	// fill hole
; 1386 : 			_Traits::move(this->_Myptr() + _Off + _Count,
; 1387 : 				this->_Myptr() + _Off + _N0, _Nm);	// move tail down
; 1388 : 			}
; 1389 : 		else if (_Roff <= _Off)
; 1390 : 			{	// hole gets larger, substring begins before hole
; 1391 : 			_Traits::move(this->_Myptr() + _Off + _Count,
; 1392 : 				this->_Myptr() + _Off + _N0, _Nm);	// move tail down
; 1393 : 			_Traits::move(this->_Myptr() + _Off,
; 1394 : 				this->_Myptr() + _Roff, _Count);	// fill hole
; 1395 : 			}
; 1396 : 		else if (_Off + _N0 <= _Roff)
; 1397 : 			{	// hole gets larger, substring begins after hole
; 1398 : 			_Traits::move(this->_Myptr() + _Off + _Count,
; 1399 : 				this->_Myptr() + _Off + _N0, _Nm);	// move tail down
; 1400 : 			_Traits::move(this->_Myptr() + _Off,
; 1401 : 				this->_Myptr() + (_Roff + _Count - _N0),
; 1402 : 				_Count);	// fill hole
; 1403 : 			}
; 1404 : 		else
; 1405 : 			{	// hole gets larger, substring begins in hole
; 1406 : 			_Traits::move(this->_Myptr() + _Off,
; 1407 : 				this->_Myptr() + _Roff, _N0);	// fill old hole
; 1408 : 			_Traits::move(this->_Myptr() + _Off + _Count,
; 1409 : 				this->_Myptr() + _Off + _N0, _Nm);	// move tail down
; 1410 : 			_Traits::move(this->_Myptr() + _Off + _N0,
; 1411 : 				this->_Myptr() + _Roff + _Count,
; 1412 : 				_Count - _N0);	// fill rest of new hole
; 1413 : 			}
; 1414 : 
; 1415 : 		_Eos(_Newsize);
; 1416 : 		return (*this);
; 1417 : 		}
; 1418 : 
; 1419 : 	_Myt& replace(size_type _Off,
; 1420 : 		size_type _N0, const _Elem *_Ptr, size_type _Count)
; 1421 : 		{	// replace [_Off, _Off + _N0) with [_Ptr, _Ptr + _Count)
; 1422 :  #if _ITERATOR_DEBUG_LEVEL == 2
; 1423 : 		if (_Count != 0)
; 1424 : 			_DEBUG_POINTER(_Ptr);
; 1425 :  #endif /* _ITERATOR_DEBUG_LEVEL == 2 */
; 1426 : 
; 1427 : 		if (_Inside(_Ptr))
; 1428 : 			return (replace(_Off, _N0, *this,
; 1429 : 				_Ptr - this->_Myptr(),
; 1430 : 				_Count));	// substring, replace carefully
; 1431 : 		if (this->_Mysize < _Off)
; 1432 : 			_Xran();	// _Off off end
; 1433 : 		if (this->_Mysize - _Off < _N0)
; 1434 : 			_N0 = this->_Mysize - _Off;	// trim _N0 to size
; 1435 : 		if (npos - _Count <= this->_Mysize - _N0)
; 1436 : 			_Xlen();	// result too long
; 1437 : 		size_type _Nm = this->_Mysize - _N0 - _Off;
; 1438 : 
; 1439 : 		if (_Count < _N0)
; 1440 : 			_Traits::move(this->_Myptr() + _Off + _Count,
; 1441 : 				this->_Myptr() + _Off + _N0,
; 1442 : 				_Nm);	// smaller hole, move tail up
; 1443 : 		size_type _Num;
; 1444 : 		if ((0 < _Count || 0 < _N0)
; 1445 : 			&& _Grow(_Num = this->_Mysize + _Count - _N0))
; 1446 : 			{	// make room and rearrange
; 1447 : 			if (_N0 < _Count)
; 1448 : 				_Traits::move(this->_Myptr() + _Off + _Count,
; 1449 : 					this->_Myptr() + _Off + _N0, _Nm);	// move tail down
; 1450 : 			_Traits::copy(this->_Myptr() + _Off, _Ptr, _Count);	// fill hole
; 1451 : 			_Eos(_Num);
; 1452 : 			}
; 1453 : 		return (*this);
; 1454 : 		}
; 1455 : 
; 1456 : 	_Myt& replace(size_type _Off, size_type _N0, const _Elem *_Ptr)
; 1457 : 		{	// replace [_Off, _Off + _N0) with [_Ptr, <null>)
; 1458 : 		_DEBUG_POINTER(_Ptr);
; 1459 : 		return (replace(_Off, _N0, _Ptr, _Traits::length(_Ptr)));
; 1460 : 		}
; 1461 : 
; 1462 : 	_Myt& replace(size_type _Off,
; 1463 : 		size_type _N0, size_type _Count, _Elem _Ch)
; 1464 : 		{	// replace [_Off, _Off + _N0) with _Count * _Ch
; 1465 : 		if (this->_Mysize < _Off)
; 1466 : 			_Xran();	// _Off off end
; 1467 : 		if (this->_Mysize - _Off < _N0)
; 1468 : 			_N0 = this->_Mysize - _Off;	// trim _N0 to size
; 1469 : 		if (npos - _Count <= this->_Mysize - _N0)
; 1470 : 			_Xlen();	// result too long
; 1471 : 		size_type _Nm = this->_Mysize - _N0 - _Off;
; 1472 : 
; 1473 : 		if (_Count < _N0)
; 1474 : 			_Traits::move(this->_Myptr() + _Off + _Count,
; 1475 : 				this->_Myptr() + _Off + _N0,
; 1476 : 				_Nm);	// smaller hole, move tail up
; 1477 : 		size_type _Num;
; 1478 : 		if ((0 < _Count || 0 < _N0)
; 1479 : 			&& _Grow(_Num = this->_Mysize + _Count - _N0))
; 1480 : 			{	// make room and rearrange
; 1481 : 			if (_N0 < _Count)
; 1482 : 				_Traits::move(this->_Myptr() + _Off + _Count,
; 1483 : 					this->_Myptr() + _Off + _N0, _Nm);	// move tail down
; 1484 : 			_Chassign(_Off, _Count, _Ch);	// fill hole
; 1485 : 			_Eos(_Num);
; 1486 : 			}
; 1487 : 		return (*this);
; 1488 : 		}
; 1489 : 
; 1490 : 	_Myt& replace(const_iterator _First, const_iterator _Last,
; 1491 : 		const _Myt& _Right)
; 1492 : 		{	// replace [_First, _Last) with _Right
; 1493 : 		return (replace(
; 1494 : 			_Pdif(_First, begin()), _Pdif(_Last, _First), _Right));
; 1495 : 		}
; 1496 : 
; 1497 : 	_Myt& replace(const_iterator _First, const_iterator _Last,
; 1498 : 		const _Elem *_Ptr, size_type _Count)
; 1499 : 		{	// replace [_First, _Last) with [_Ptr, _Ptr + _Count)
; 1500 : 		return (replace(
; 1501 : 			_Pdif(_First, begin()), _Pdif(_Last, _First), _Ptr, _Count));
; 1502 : 		}
; 1503 : 
; 1504 : 	_Myt& replace(const_iterator _First, const_iterator _Last,
; 1505 : 		const _Elem *_Ptr)
; 1506 : 		{	// replace [_First, _Last) with [_Ptr, <null>)
; 1507 : 		return (replace(
; 1508 : 			_Pdif(_First, begin()), _Pdif(_Last, _First), _Ptr));
; 1509 : 		}
; 1510 : 
; 1511 : 	_Myt& replace(const_iterator _First, const_iterator _Last,
; 1512 : 		size_type _Count, _Elem _Ch)
; 1513 : 		{	// replace [_First, _Last) with _Count * _Ch
; 1514 : 		return (replace(
; 1515 : 			_Pdif(_First, begin()), _Pdif(_Last, _First), _Count, _Ch));
; 1516 : 		}
; 1517 : 
; 1518 : 	template<class _Iter>
; 1519 : 		typename enable_if<_Is_iterator<_Iter>::value,
; 1520 : 			_Myt&>::type
; 1521 : 		replace(const_iterator _First, const_iterator _Last,
; 1522 : 			_Iter _First2, _Iter _Last2)
; 1523 : 		{	// replace [_First, _Last) with [_First2, _Last2), input iterators
; 1524 : 		_Myt _Right(_First2, _Last2);
; 1525 : 		replace(_First, _Last, _Right);
; 1526 : 		return (*this);
; 1527 : 		}
; 1528 : 
; 1529 : 	_Myt& replace(const_iterator _First, const_iterator _Last,
; 1530 : 		const_pointer _First2, const_pointer _Last2)
; 1531 : 		{	// replace [_First, _Last) with [_First2, _Last2), const pointers
; 1532 : 		if (_First2 == _Last2)
; 1533 : 			erase(_Pdif(_First, begin()), _Pdif(_Last, _First));
; 1534 : 		else
; 1535 : 			replace(_Pdif(_First, begin()), _Pdif(_Last, _First),
; 1536 : 				&*_First2, _Last2 - _First2);
; 1537 : 		return (*this);
; 1538 : 		}
; 1539 : 
; 1540 : 	_Myt& replace(const_iterator _First, const_iterator _Last,
; 1541 : 		pointer _First2, pointer _Last2)
; 1542 : 		{	// replace [_First, _Last) with [_First2, _Last2), const pointers
; 1543 : 		if (_First2 == _Last2)
; 1544 : 			erase(_Pdif(_First, begin()), _Pdif(_Last, _First));
; 1545 : 		else
; 1546 : 			replace(_Pdif(_First, begin()), _Pdif(_Last, _First),
; 1547 : 				&*_First2, _Last2 - _First2);
; 1548 : 		return (*this);
; 1549 : 		}
; 1550 : 
; 1551 : 	_Myt& replace(const_iterator _First, const_iterator _Last,
; 1552 : 		const_iterator _First2, const_iterator _Last2)
; 1553 : 		{	// replace [_First, _Last) with [_First2, _Last2), const_iterators
; 1554 : 		if (_First2 == _Last2)
; 1555 : 			erase(_Pdif(_First, begin()), _Pdif(_Last, _First));
; 1556 : 		else
; 1557 : 			replace(_Pdif(_First, begin()), _Pdif(_Last, _First),
; 1558 : 				&*_First2, _Last2 - _First2);
; 1559 : 		return (*this);
; 1560 : 		}
; 1561 : 
; 1562 : 	_Myt& replace(const_iterator _First, const_iterator _Last,
; 1563 : 		iterator _First2, iterator _Last2)
; 1564 : 		{	// replace [_First, _Last) with [_First2, _Last2), const_iterators
; 1565 : 		if (_First2 == _Last2)
; 1566 : 			erase(_Pdif(_First, begin()), _Pdif(_Last, _First));
; 1567 : 		else
; 1568 : 			replace(_Pdif(_First, begin()), _Pdif(_Last, _First),
; 1569 : 				&*_First2, _Last2 - _First2);
; 1570 : 		return (*this);
; 1571 : 		}
; 1572 : 
; 1573 : 	iterator begin() _NOEXCEPT
; 1574 : 		{	// return iterator for beginning of mutable sequence
; 1575 : 		return (_STRING_ITERATOR(this->_Myptr()));
; 1576 : 		}
; 1577 : 
; 1578 : 	const_iterator begin() const _NOEXCEPT
; 1579 : 		{	// return iterator for beginning of nonmutable sequence
; 1580 : 		return (_STRING_CONST_ITERATOR(this->_Myptr()));
; 1581 : 		}
; 1582 : 
; 1583 : 	iterator end() _NOEXCEPT
; 1584 : 		{	// return iterator for end of mutable sequence
; 1585 : 		return (_STRING_ITERATOR(this->_Myptr() + this->_Mysize));
; 1586 : 		}
; 1587 : 
; 1588 : 	const_iterator end() const _NOEXCEPT
; 1589 : 		{	// return iterator for end of nonmutable sequence
; 1590 : 		return (_STRING_CONST_ITERATOR(this->_Myptr() + this->_Mysize));
; 1591 : 		}
; 1592 : 
; 1593 : 	reverse_iterator rbegin() _NOEXCEPT
; 1594 : 		{	// return iterator for beginning of reversed mutable sequence
; 1595 : 		return (reverse_iterator(end()));
; 1596 : 		}
; 1597 : 
; 1598 : 	const_reverse_iterator rbegin() const _NOEXCEPT
; 1599 : 		{	// return iterator for beginning of reversed nonmutable sequence
; 1600 : 		return (const_reverse_iterator(end()));
; 1601 : 		}
; 1602 : 
; 1603 : 	reverse_iterator rend() _NOEXCEPT
; 1604 : 		{	// return iterator for end of reversed mutable sequence
; 1605 : 		return (reverse_iterator(begin()));
; 1606 : 		}
; 1607 : 
; 1608 : 	const_reverse_iterator rend() const _NOEXCEPT
; 1609 : 		{	// return iterator for end of reversed nonmutable sequence
; 1610 : 		return (const_reverse_iterator(begin()));
; 1611 : 		}
; 1612 : 
; 1613 :  #if _HAS_CPP0X
; 1614 : 	const_iterator cbegin() const _NOEXCEPT
; 1615 : 		{	// return iterator for beginning of nonmutable sequence
; 1616 : 		return (((const _Myt *)this)->begin());
; 1617 : 		}
; 1618 : 
; 1619 : 	const_iterator cend() const _NOEXCEPT
; 1620 : 		{	// return iterator for end of nonmutable sequence
; 1621 : 		return (((const _Myt *)this)->end());
; 1622 : 		}
; 1623 : 
; 1624 : 	const_reverse_iterator crbegin() const _NOEXCEPT
; 1625 : 		{	// return iterator for beginning of reversed nonmutable sequence
; 1626 : 		return (((const _Myt *)this)->rbegin());
; 1627 : 		}
; 1628 : 
; 1629 : 	const_reverse_iterator crend() const _NOEXCEPT
; 1630 : 		{	// return iterator for end of reversed nonmutable sequence
; 1631 : 		return (((const _Myt *)this)->rend());
; 1632 : 		}
; 1633 : 
; 1634 : 	void shrink_to_fit()
; 1635 : 		{	// reduce capacity
; 1636 : 		if ((size() | this->_ALLOC_MASK) < capacity())
; 1637 : 			{	// worth shrinking, do it
; 1638 : 			_Myt _Tmp(*this);
; 1639 : 			swap(_Tmp);
; 1640 : 			}
; 1641 : 		}
; 1642 :  #endif /* _HAS_CPP0X */
; 1643 : 
; 1644 : 	reference at(size_type _Off)
; 1645 : 		{	// subscript mutable sequence with checking
; 1646 : 		if (this->_Mysize <= _Off)
; 1647 : 			_Xran();	// _Off off end
; 1648 : 		return (this->_Myptr()[_Off]);
; 1649 : 		}
; 1650 : 
; 1651 : 	const_reference at(size_type _Off) const
; 1652 : 		{	// subscript nonmutable sequence with checking
; 1653 : 		if (this->_Mysize <= _Off)
; 1654 : 			_Xran();	// _Off off end
; 1655 : 		return (this->_Myptr()[_Off]);
; 1656 : 		}
; 1657 : 
; 1658 : 	reference operator[](size_type _Off)
; 1659 : 		{	// subscript mutable sequence
; 1660 :  #if _ITERATOR_DEBUG_LEVEL == 2
; 1661 : 		if (this->_Mysize < _Off)	// sic
; 1662 : 			_DEBUG_ERROR("string subscript out of range");
; 1663 : 
; 1664 :  #elif _ITERATOR_DEBUG_LEVEL == 1
; 1665 : 		_SCL_SECURE_VALIDATE_RANGE(_Off <= this->_Mysize);	// sic
; 1666 :  #endif /* _ITERATOR_DEBUG_LEVEL == 2 */
; 1667 : 
; 1668 : 		return (this->_Myptr()[_Off]);
; 1669 : 		}
; 1670 : 
; 1671 : 	const_reference operator[](size_type _Off) const
; 1672 : 		{	// subscript nonmutable sequence
; 1673 :  #if _ITERATOR_DEBUG_LEVEL == 2
; 1674 : 		if (this->_Mysize < _Off)	// sic
; 1675 : 			_DEBUG_ERROR("string subscript out of range");
; 1676 : 
; 1677 :  #elif _ITERATOR_DEBUG_LEVEL == 1
; 1678 : 		_SCL_SECURE_VALIDATE_RANGE(_Off <= this->_Mysize);	// sic
; 1679 :  #endif /* _ITERATOR_DEBUG_LEVEL == 2 */
; 1680 : 
; 1681 : 		return (this->_Myptr()[_Off]);
; 1682 : 		}
; 1683 : 
; 1684 : 	void push_back(_Elem _Ch)
; 1685 : 		{	// insert element at end
; 1686 : 		insert(end(), _Ch);
; 1687 : 		}
; 1688 : 
; 1689 :  #if _HAS_CPP0X
; 1690 : 	void pop_back()
; 1691 : 		{	// erase element at end
; 1692 : 		erase(this->_Mysize - 1);	// throws if _Mysize == 0
; 1693 : 		}
; 1694 : 
; 1695 : 	reference front()
; 1696 : 		{	// return first element of mutable sequence
; 1697 : 		return (*begin());
; 1698 : 		}
; 1699 : 
; 1700 : 	const_reference front() const
; 1701 : 		{	// return first element of nonmutable sequence
; 1702 : 		return (*begin());
; 1703 : 		}
; 1704 : 
; 1705 : 	reference back()
; 1706 : 		{	// return last element of mutable sequence
; 1707 : 		return (*(end() - 1));
; 1708 : 		}
; 1709 : 
; 1710 : 	const_reference back() const
; 1711 : 		{	// return last element of nonmutable sequence
; 1712 : 		return (*(end() - 1));
; 1713 : 		}
; 1714 :  #endif /* _HAS_CPP0X */
; 1715 : 
; 1716 : 	const _Elem *c_str() const _NOEXCEPT
; 1717 : 		{	// return pointer to null-terminated nonmutable array
; 1718 : 		return (this->_Myptr());
; 1719 : 		}
; 1720 : 
; 1721 : 	const _Elem *data() const _NOEXCEPT
; 1722 : 		{	// return pointer to nonmutable array
; 1723 : 		return (c_str());
; 1724 : 		}
; 1725 : 
; 1726 : 	size_type length() const _NOEXCEPT
; 1727 : 		{	// return length of sequence
; 1728 : 		return (this->_Mysize);
; 1729 : 		}
; 1730 : 
; 1731 : 	size_type size() const _NOEXCEPT
; 1732 : 		{	// return length of sequence
; 1733 : 		return (this->_Mysize);
; 1734 : 		}
; 1735 : 
; 1736 : 	size_type max_size() const _NOEXCEPT
; 1737 : 		{	// return maximum possible length of sequence
; 1738 : 		size_type _Num = this->_Getal().max_size();
; 1739 : 		return (_Num <= 1 ? 1 : _Num - 1);
; 1740 : 		}
; 1741 : 
; 1742 : 	void resize(size_type _Newsize)
; 1743 : 		{	// determine new length, padding with null elements as needed
; 1744 : 		resize(_Newsize, _Elem());
; 1745 : 		}
; 1746 : 
; 1747 : 	void resize(size_type _Newsize, _Elem _Ch)
; 1748 : 		{	// determine new length, padding with _Ch elements as needed
; 1749 : 		if (_Newsize <= this->_Mysize)
; 1750 : 			_Eos(_Newsize);
; 1751 : 		else
; 1752 : 			append(_Newsize - this->_Mysize, _Ch);
; 1753 : 		}
; 1754 : 
; 1755 : 	size_type capacity() const _NOEXCEPT
; 1756 : 		{	// return current length of allocated storage
; 1757 : 		return (this->_Myres);
; 1758 : 		}
; 1759 : 
; 1760 : 	void reserve(size_type _Newcap = 0)
; 1761 : 		{	// determine new minimum length of allocated storage
; 1762 : 		if (this->_Mysize <= _Newcap && this->_Myres != _Newcap)
; 1763 : 			{	// change reservation
; 1764 : 			size_type _Size = this->_Mysize;
; 1765 : 			if (_Grow(_Newcap, true))
; 1766 : 				_Eos(_Size);
; 1767 : 			}
; 1768 : 		}
; 1769 : 
; 1770 : 	bool empty() const _NOEXCEPT
; 1771 : 		{	// test if sequence is empty
; 1772 : 		return (this->_Mysize == 0);
; 1773 : 		}
; 1774 : 
; 1775 : 	_SCL_INSECURE_DEPRECATE
; 1776 : 
; 1777 : 	size_type copy(_Elem *_Ptr,
; 1778 : 		size_type _Count, size_type _Off = 0) const
; 1779 : 		{	// copy [_Off, _Off + _Count) to [_Ptr, _Ptr + _Count)
; 1780 :  #if _ITERATOR_DEBUG_LEVEL == 2
; 1781 : 		if (_Count != 0)
; 1782 : 			_DEBUG_POINTER(_Ptr);
; 1783 :  #endif /* _ITERATOR_DEBUG_LEVEL == 2 */
; 1784 : 
; 1785 : 		if (this->_Mysize < _Off)
; 1786 : 			_Xran();	// _Off off end
; 1787 : 		if (this->_Mysize - _Off < _Count)
; 1788 : 			_Count = this->_Mysize - _Off;
; 1789 : 		_Traits::copy(_Ptr, this->_Myptr() + _Off, _Count);
; 1790 : 		return (_Count);
; 1791 : 		}
; 1792 : 
; 1793 : 	size_type _Copy_s(_Elem *_Dest, size_type _Dest_size,
; 1794 : 		size_type _Count, size_type _Off = 0) const
; 1795 : 		{	// copy [_Off, _Off + _Count) to [_Dest, _Dest + _Count)
; 1796 :  #if _ITERATOR_DEBUG_LEVEL == 2
; 1797 : 		if (_Count != 0)
; 1798 : 			_DEBUG_POINTER(_Dest);
; 1799 :  #endif /* _ITERATOR_DEBUG_LEVEL == 2 */
; 1800 : 
; 1801 : 		if (this->_Mysize < _Off)
; 1802 : 			_Xran();	// _Off off end
; 1803 : 		if (this->_Mysize - _Off < _Count)
; 1804 : 			_Count = this->_Mysize - _Off;
; 1805 : 		_Traits::_Copy_s(_Dest, _Dest_size, this->_Myptr() + _Off, _Count);
; 1806 : 		return (_Count);
; 1807 : 		}
; 1808 : 
; 1809 : 	void _Swap_bx(_Myt& _Right)
; 1810 : 		{	// exchange _Bx with _Right._Bx
; 1811 : 		if (this->_BUF_SIZE <= this->_Myres)
; 1812 : 			if (this->_BUF_SIZE <= _Right._Myres)
; 1813 : 				_Swap_adl(this->_Bx._Ptr, _Right._Bx._Ptr);
; 1814 : 			else
; 1815 : 				{	// swap large with small
; 1816 : 				pointer _Ptr = this->_Bx._Ptr;
; 1817 : 				this->_Getal().destroy(&this->_Bx._Ptr);
; 1818 : 				_Traits::copy(this->_Bx._Buf,
; 1819 : 					_Right._Bx._Buf, _Right._Mysize + 1);
; 1820 : 				this->_Getal().construct(&_Right._Bx._Ptr, _Ptr);
; 1821 : 				}
; 1822 : 		else
; 1823 : 			if (_Right._Myres < this->_BUF_SIZE)
; 1824 : 				_STD swap(this->_Bx._Buf, _Right._Bx._Buf);
; 1825 : 			else
; 1826 : 				{	// swap small with large
; 1827 : 				pointer _Ptr = _Right._Bx._Ptr;
; 1828 : 				this->_Getal().destroy(&_Right._Bx._Ptr);
; 1829 : 				_Traits::copy(_Right._Bx._Buf,
; 1830 : 					this->_Bx._Buf, this->_Mysize + 1);
; 1831 : 				this->_Getal().construct(&this->_Bx._Ptr, _Ptr);
; 1832 : 				}
; 1833 : 		}
; 1834 : 
; 1835 : 	void swap(_Myt& _Right)
; 1836 : 		{	// exchange contents with _Right
; 1837 : 		if (this == &_Right)
; 1838 : 			;	// same object, do nothing
; 1839 : 		else if (this->_Getal() == _Right._Getal())
; 1840 : 			{	// same allocator, swap control information
; 1841 : 			this->_Swap_all(_Right);
; 1842 : 			_Swap_bx(_Right);
; 1843 : 			_STD swap(this->_Mysize, _Right._Mysize);
; 1844 : 			_STD swap(this->_Myres, _Right._Myres);
; 1845 : 			}
; 1846 : 
; 1847 :  #if _HAS_CPP0X
; 1848 : 		else if (_Alty::propagate_on_container_swap::value)
; 1849 : 			{	// swap allocators and control information
; 1850 : 			this->_Swap_alloc(_Right);
; 1851 : 			_Swap_bx(_Right);
; 1852 : 			_STD swap(this->_Bx, _Right._Bx);	// pointer bitwise copyable?
; 1853 : 			_STD swap(this->_Mysize, _Right._Mysize);
; 1854 : 			_STD swap(this->_Myres, _Right._Myres);
; 1855 : 			}
; 1856 :  #endif /* _HAS_CPP0X */
; 1857 : 
; 1858 : 		else
; 1859 : 			{	// different allocator, do multiple assigns
; 1860 : 			_Myt _Tmp = *this;
; 1861 : 
; 1862 : 			*this = _Right;
; 1863 : 			_Right = _Tmp;
; 1864 : 			}
; 1865 : 		}
; 1866 : 
; 1867 : 	size_type find(const _Myt& _Right, size_type _Off = 0) const _NOEXCEPT
; 1868 : 		{	// look for _Right beginning at or after _Off
; 1869 : 		return (find(_Right._Myptr(), _Off, _Right.size()));
; 1870 : 		}
; 1871 : 
; 1872 : 	size_type find(const _Elem *_Ptr,
; 1873 : 		size_type _Off, size_type _Count) const
; 1874 : 		{	// look for [_Ptr, _Ptr + _Count) beginning at or after _Off
; 1875 :  #if _ITERATOR_DEBUG_LEVEL == 2
; 1876 : 		if (_Count != 0)
; 1877 : 			_DEBUG_POINTER(_Ptr);
; 1878 :  #endif /* _ITERATOR_DEBUG_LEVEL == 2 */
; 1879 : 
; 1880 : 		if (_Count == 0 && _Off <= this->_Mysize)
; 1881 : 			return (_Off);	// null string always matches (if inside string)
; 1882 : 
; 1883 : 		size_type _Nm;
; 1884 : 		if (_Off < this->_Mysize && _Count <= (_Nm = this->_Mysize - _Off))
; 1885 : 			{	// room for match, look for it
; 1886 : 			const _Elem *_Uptr, *_Vptr;
; 1887 : 			for (_Nm -= _Count - 1, _Vptr = this->_Myptr() + _Off;
; 1888 : 				(_Uptr = _Traits::find(_Vptr, _Nm, *_Ptr)) != 0;
; 1889 : 				_Nm -= _Uptr - _Vptr + 1, _Vptr = _Uptr + 1)
; 1890 : 				if (_Traits::compare(_Uptr, _Ptr, _Count) == 0)
; 1891 : 					return (_Uptr - this->_Myptr());	// found a match
; 1892 : 			}
; 1893 : 
; 1894 : 		return (npos);	// no match
; 1895 : 		}
; 1896 : 
; 1897 : 	size_type find(const _Elem *_Ptr, size_type _Off = 0) const
; 1898 : 		{	// look for [_Ptr, <null>) beginning at or after _Off
; 1899 : 		_DEBUG_POINTER(_Ptr);
; 1900 : 		return (find(_Ptr, _Off, _Traits::length(_Ptr)));
; 1901 : 		}
; 1902 : 
; 1903 : 	size_type find(_Elem _Ch, size_type _Off = 0) const
; 1904 : 		{	// look for _Ch at or after _Off
; 1905 : 		return (find((const _Elem *)&_Ch, _Off, 1));
; 1906 : 		}
; 1907 : 
; 1908 : 	size_type rfind(const _Myt& _Right, size_type _Off = npos) const _NOEXCEPT
; 1909 : 		{	// look for _Right beginning before _Off
; 1910 : 		return (rfind(_Right._Myptr(), _Off, _Right.size()));
; 1911 : 		}
; 1912 : 
; 1913 : 	size_type rfind(const _Elem *_Ptr,
; 1914 : 		size_type _Off, size_type _Count) const
; 1915 : 		{	// look for [_Ptr, _Ptr + _Count) beginning before _Off
; 1916 :  #if _ITERATOR_DEBUG_LEVEL == 2
; 1917 : 		if (_Count != 0)
; 1918 : 			_DEBUG_POINTER(_Ptr);
; 1919 :  #endif /* _ITERATOR_DEBUG_LEVEL == 2 */
; 1920 : 
; 1921 : 		if (_Count == 0)
; 1922 : 			return (_Off < this->_Mysize ? _Off
; 1923 : 				: this->_Mysize);	// null always matches
; 1924 : 		if (_Count <= this->_Mysize)
; 1925 : 			{	// room for match, look for it
; 1926 : 			const _Elem *_Uptr = this->_Myptr() +
; 1927 : 				(_Off < this->_Mysize - _Count ? _Off
; 1928 : 					: this->_Mysize - _Count);
; 1929 : 			for (; ; --_Uptr)
; 1930 : 				if (_Traits::eq(*_Uptr, *_Ptr)
; 1931 : 					&& _Traits::compare(_Uptr, _Ptr, _Count) == 0)
; 1932 : 					return (_Uptr - this->_Myptr());	// found a match
; 1933 : 				else if (_Uptr == this->_Myptr())
; 1934 : 					break;	// at beginning, no more chance for match
; 1935 : 			}
; 1936 : 
; 1937 : 		return (npos);	// no match
; 1938 : 		}
; 1939 : 
; 1940 : 	size_type rfind(const _Elem *_Ptr, size_type _Off = npos) const
; 1941 : 		{	// look for [_Ptr, <null>) beginning before _Off
; 1942 : 		_DEBUG_POINTER(_Ptr);
; 1943 : 		return (rfind(_Ptr, _Off, _Traits::length(_Ptr)));
; 1944 : 		}
; 1945 : 
; 1946 : 	size_type rfind(_Elem _Ch, size_type _Off = npos) const
; 1947 : 		{	// look for _Ch before _Off
; 1948 : 		return (rfind((const _Elem *)&_Ch, _Off, 1));
; 1949 : 		}
; 1950 : 
; 1951 : 	size_type find_first_of(const _Myt& _Right,
; 1952 : 		size_type _Off = 0) const _NOEXCEPT
; 1953 : 		{	// look for one of _Right at or after _Off
; 1954 : 		return (find_first_of(_Right._Myptr(), _Off, _Right.size()));
; 1955 : 		}
; 1956 : 
; 1957 : 	size_type find_first_of(const _Elem *_Ptr,
; 1958 : 		size_type _Off, size_type _Count) const
; 1959 : 		{	// look for one of [_Ptr, _Ptr + _Count) at or after _Off
; 1960 :  #if _ITERATOR_DEBUG_LEVEL == 2
; 1961 : 		if (_Count != 0)
; 1962 : 			_DEBUG_POINTER(_Ptr);
; 1963 :  #endif /* _ITERATOR_DEBUG_LEVEL == 2 */
; 1964 : 
; 1965 : 		if (0 < _Count && _Off < this->_Mysize)
; 1966 : 			{	// room for match, look for it
; 1967 : 			const _Elem *const _Vptr = this->_Myptr() + this->_Mysize;
; 1968 : 			for (const _Elem *_Uptr = this->_Myptr() + _Off;
; 1969 : 				_Uptr < _Vptr; ++_Uptr)
; 1970 : 				if (_Traits::find(_Ptr, _Count, *_Uptr) != 0)
; 1971 : 					return (_Uptr - this->_Myptr());	// found a match
; 1972 : 			}
; 1973 : 
; 1974 : 		return (npos);	// no match
; 1975 : 		}
; 1976 : 
; 1977 : 	size_type find_first_of(const _Elem *_Ptr,
; 1978 : 		size_type _Off = 0) const
; 1979 : 		{	// look for one of [_Ptr, <null>) at or after _Off
; 1980 : 		_DEBUG_POINTER(_Ptr);
; 1981 : 		return (find_first_of(_Ptr, _Off, _Traits::length(_Ptr)));
; 1982 : 		}
; 1983 : 
; 1984 : 	size_type find_first_of(_Elem _Ch,
; 1985 : 		size_type _Off = 0) const
; 1986 : 		{	// look for _Ch at or after _Off
; 1987 : 		return (find((const _Elem *)&_Ch, _Off, 1));
; 1988 : 		}
; 1989 : 
; 1990 : 	size_type find_last_of(const _Myt& _Right,
; 1991 : 		size_type _Off = npos) const _NOEXCEPT
; 1992 : 		{	// look for one of _Right before _Off
; 1993 : 		return (find_last_of(_Right._Myptr(), _Off, _Right.size()));
; 1994 : 		}
; 1995 : 
; 1996 : 	size_type find_last_of(const _Elem *_Ptr,
; 1997 : 		size_type _Off, size_type _Count) const
; 1998 : 		{	// look for one of [_Ptr, _Ptr + _Count) before _Off
; 1999 :  #if _ITERATOR_DEBUG_LEVEL == 2
; 2000 : 		if (_Count != 0)
; 2001 : 			_DEBUG_POINTER(_Ptr);
; 2002 :  #endif /* _ITERATOR_DEBUG_LEVEL == 2 */
; 2003 : 
; 2004 : 		if (0 < _Count && 0 < this->_Mysize)
; 2005 : 			{	// worth searching, do it
; 2006 : 			const _Elem *_Uptr = this->_Myptr()
; 2007 : 				+ (_Off < this->_Mysize ? _Off : this->_Mysize - 1);
; 2008 : 			for (; ; --_Uptr)
; 2009 : 				if (_Traits::find(_Ptr, _Count, *_Uptr) != 0)
; 2010 : 					return (_Uptr - this->_Myptr());	// found a match
; 2011 : 				else if (_Uptr == this->_Myptr())
; 2012 : 					break;	// at beginning, no more chance for match
; 2013 : 			}
; 2014 : 
; 2015 : 		return (npos);	// no match
; 2016 : 		}
; 2017 : 
; 2018 : 	size_type find_last_of(const _Elem *_Ptr,
; 2019 : 		size_type _Off = npos) const
; 2020 : 		{	// look for one of [_Ptr, <null>) before _Off
; 2021 : 		_DEBUG_POINTER(_Ptr);
; 2022 : 		return (find_last_of(_Ptr, _Off, _Traits::length(_Ptr)));
; 2023 : 		}
; 2024 : 
; 2025 : 	size_type find_last_of(_Elem _Ch,
; 2026 : 		size_type _Off = npos) const
; 2027 : 		{	// look for _Ch before _Off
; 2028 : 		return (rfind((const _Elem *)&_Ch, _Off, 1));
; 2029 : 		}
; 2030 : 
; 2031 : 	size_type find_first_not_of(const _Myt& _Right,
; 2032 : 		size_type _Off = 0) const _NOEXCEPT
; 2033 : 		{	// look for none of _Right at or after _Off
; 2034 : 		return (find_first_not_of(_Right._Myptr(), _Off,
; 2035 : 			_Right.size()));
; 2036 : 		}
; 2037 : 
; 2038 : 	size_type find_first_not_of(const _Elem *_Ptr,
; 2039 : 		size_type _Off, size_type _Count) const
; 2040 : 		{	// look for none of [_Ptr, _Ptr + _Count) at or after _Off
; 2041 :  #if _ITERATOR_DEBUG_LEVEL == 2
; 2042 : 		if (_Count != 0)
; 2043 : 			_DEBUG_POINTER(_Ptr);
; 2044 :  #endif /* _ITERATOR_DEBUG_LEVEL == 2 */
; 2045 : 
; 2046 : 		if (_Off < this->_Mysize)
; 2047 : 			{	// room for match, look for it
; 2048 : 			const _Elem *const _Vptr = this->_Myptr() + this->_Mysize;
; 2049 : 			for (const _Elem *_Uptr = this->_Myptr() + _Off;
; 2050 : 				_Uptr < _Vptr; ++_Uptr)
; 2051 : 				if (_Traits::find(_Ptr, _Count, *_Uptr) == 0)
; 2052 : 					return (_Uptr - this->_Myptr());
; 2053 : 			}
; 2054 : 		return (npos);
; 2055 : 		}
; 2056 : 
; 2057 : 	size_type find_first_not_of(const _Elem *_Ptr,
; 2058 : 		size_type _Off = 0) const
; 2059 : 		{	// look for one of [_Ptr, <null>) at or after _Off
; 2060 : 		_DEBUG_POINTER(_Ptr);
; 2061 : 		return (find_first_not_of(_Ptr, _Off, _Traits::length(_Ptr)));
; 2062 : 		}
; 2063 : 
; 2064 : 	size_type find_first_not_of(_Elem _Ch,
; 2065 : 		size_type _Off = 0) const
; 2066 : 		{	// look for non _Ch at or after _Off
; 2067 : 		return (find_first_not_of((const _Elem *)&_Ch, _Off, 1));
; 2068 : 		}
; 2069 : 
; 2070 : 	size_type find_last_not_of(const _Myt& _Right,
; 2071 : 		size_type _Off = npos) const _NOEXCEPT
; 2072 : 		{	// look for none of _Right before _Off
; 2073 : 		return (find_last_not_of(_Right._Myptr(), _Off, _Right.size()));
; 2074 : 		}
; 2075 : 
; 2076 : 	size_type find_last_not_of(const _Elem *_Ptr,
; 2077 : 		size_type _Off, size_type _Count) const
; 2078 : 		{	// look for none of [_Ptr, _Ptr + _Count) before _Off
; 2079 :  #if _ITERATOR_DEBUG_LEVEL == 2
; 2080 : 		if (_Count != 0)
; 2081 : 			_DEBUG_POINTER(_Ptr);
; 2082 :  #endif /* _ITERATOR_DEBUG_LEVEL == 2 */
; 2083 : 
; 2084 : 		if (0 < this->_Mysize)
; 2085 : 			{	// worth searching, do it
; 2086 : 			const _Elem *_Uptr = this->_Myptr()
; 2087 : 				+ (_Off < this->_Mysize ? _Off : this->_Mysize - 1);
; 2088 : 			for (; ; --_Uptr)
; 2089 : 				if (_Traits::find(_Ptr, _Count, *_Uptr) == 0)
; 2090 : 					return (_Uptr - this->_Myptr());
; 2091 : 				else if (_Uptr == this->_Myptr())
; 2092 : 					break;
; 2093 : 			}
; 2094 : 		return (npos);
; 2095 : 		}
; 2096 : 
; 2097 : 	size_type find_last_not_of(const _Elem *_Ptr,
; 2098 : 		size_type _Off = npos) const
; 2099 : 		{	// look for none of [_Ptr, <null>) before _Off
; 2100 : 		_DEBUG_POINTER(_Ptr);
; 2101 : 		return (find_last_not_of(_Ptr, _Off, _Traits::length(_Ptr)));
; 2102 : 		}
; 2103 : 
; 2104 : 	size_type find_last_not_of(_Elem _Ch,
; 2105 : 		size_type _Off = npos) const
; 2106 : 		{	// look for non _Ch before _Off
; 2107 : 		return (find_last_not_of((const _Elem *)&_Ch, _Off, 1));
; 2108 : 		}
; 2109 : 
; 2110 : 	_Myt substr(size_type _Off = 0, size_type _Count = npos) const
; 2111 : 		{	// return [_Off, _Off + _Count) as new string
; 2112 : 		return (_Myt(*this, _Off, _Count, get_allocator()));
; 2113 : 		}
; 2114 : 
; 2115 : 	int compare(const _Myt& _Right) const _NOEXCEPT
; 2116 : 		{	// compare [0, _Mysize) with _Right
; 2117 : 		return (compare(0, this->_Mysize, _Right._Myptr(), _Right.size()));
; 2118 : 		}
; 2119 : 
; 2120 : 	int compare(size_type _Off, size_type _N0,
; 2121 : 		const _Myt& _Right) const
; 2122 : 		{	// compare [_Off, _Off + _N0) with _Right
; 2123 : 		return (compare(_Off, _N0, _Right, 0, npos));
; 2124 : 		}
; 2125 : 
; 2126 : 	int compare(size_type _Off,
; 2127 : 		size_type _N0, const _Myt& _Right,
; 2128 : 		size_type _Roff, size_type _Count) const
; 2129 : 		{	// compare [_Off, _Off + _N0) with _Right [_Roff, _Roff + _Count)
; 2130 : 		if (_Right.size() < _Roff)
; 2131 : 			_Xran();	// _Off off end
; 2132 : 		if (_Right._Mysize - _Roff < _Count)
; 2133 : 			_Count = _Right._Mysize - _Roff;	// trim _Count to size
; 2134 : 		return (compare(_Off, _N0, _Right._Myptr() + _Roff, _Count));
; 2135 : 		}
; 2136 : 
; 2137 : 	int compare(const _Elem *_Ptr) const
; 2138 : 		{	// compare [0, _Mysize) with [_Ptr, <null>)
; 2139 : 		_DEBUG_POINTER(_Ptr);
; 2140 : 		return (compare(0, this->_Mysize, _Ptr, _Traits::length(_Ptr)));
; 2141 : 		}
; 2142 : 
; 2143 : 	int compare(size_type _Off, size_type _N0, const _Elem *_Ptr) const
; 2144 : 		{	// compare [_Off, _Off + _N0) with [_Ptr, <null>)
; 2145 : 		_DEBUG_POINTER(_Ptr);
; 2146 : 		return (compare(_Off, _N0, _Ptr, _Traits::length(_Ptr)));
; 2147 : 		}
; 2148 : 
; 2149 : 	int compare(size_type _Off,
; 2150 : 		size_type _N0, const _Elem *_Ptr, size_type _Count) const
; 2151 : 		{	// compare [_Off, _Off + _N0) with [_Ptr, _Ptr + _Count)
; 2152 :  #if _ITERATOR_DEBUG_LEVEL == 2
; 2153 : 		if (_Count != 0)
; 2154 : 			_DEBUG_POINTER(_Ptr);
; 2155 :  #endif /* _ITERATOR_DEBUG_LEVEL == 2 */
; 2156 : 
; 2157 : 		if (this->_Mysize < _Off)
; 2158 : 			_Xran();	// _Off off end
; 2159 : 		if (this->_Mysize - _Off < _N0)
; 2160 : 			_N0 = this->_Mysize - _Off;	// trim _N0 to size
; 2161 : 
; 2162 : 		size_type _Ans = _Traits::compare(this->_Myptr() + _Off, _Ptr,
; 2163 : 			_N0 < _Count ? _N0 : _Count);
; 2164 : 		return (_Ans != 0 ? (int)_Ans : _N0 < _Count ? -1
; 2165 : 			: _N0 == _Count ? 0 : +1);
; 2166 : 		}
; 2167 : 
; 2168 : 	allocator_type get_allocator() const _NOEXCEPT
; 2169 : 		{	// return allocator object for values
; 2170 : 		return (this->_Getal());
; 2171 : 		}
; 2172 : 
; 2173 : 	void _Chassign(size_type _Off, size_type _Count, _Elem _Ch)
; 2174 : 		{	// assign _Count copies of _Ch beginning at _Off
; 2175 : 		if (_Count == 1)
; 2176 : 			_Traits::assign(*(this->_Myptr() + _Off), _Ch);
; 2177 : 		else
; 2178 : 			_Traits::assign(this->_Myptr() + _Off, _Count, _Ch);
; 2179 : 		}
; 2180 : 
; 2181 : 	void _Copy(size_type _Newsize, size_type _Oldlen)
; 2182 : 		{	// copy _Oldlen elements to newly allocated buffer
; 2183 : 		size_type _Newres = _Newsize | this->_ALLOC_MASK;
; 2184 : 		if (max_size() < _Newres)
; 2185 : 			_Newres = _Newsize;	// undo roundup if too big
; 2186 : 		else if (this->_Myres / 2 <= _Newres / 3)
; 2187 : 			;
; 2188 : 		else if (this->_Myres <= max_size() - this->_Myres / 2)
; 2189 : 			_Newres = this->_Myres
; 2190 : 				+ this->_Myres / 2;	// grow exponentially if possible
; 2191 : 		else
; 2192 : 			_Newres = max_size();	// settle for max_size()
; 2193 : 
; 2194 : 		_Elem *_Ptr;
; 2195 : 		_TRY_BEGIN
; 2196 : 			_Ptr = this->_Getal().allocate(_Newres + 1);
; 2197 : 		_CATCH_ALL
; 2198 : 			_Newres = _Newsize;	// allocation failed, undo roundup and retry
; 2199 : 			_TRY_BEGIN
; 2200 : 				_Ptr = this->_Getal().allocate(_Newres + 1);
; 2201 : 			_CATCH_ALL
; 2202 : 			_Tidy(true);	// failed again, discard storage and reraise
; 2203 : 			_RERAISE;
; 2204 : 			_CATCH_END
; 2205 : 		_CATCH_END
; 2206 : 
; 2207 : 		if (0 < _Oldlen)
; 2208 : 			_Traits::copy(_Ptr, this->_Myptr(),
; 2209 : 				_Oldlen);	// copy existing elements
; 2210 : 		_Tidy(true);
; 2211 : 		this->_Getal().construct(&this->_Bx._Ptr, _Ptr);
; 2212 : 		this->_Myres = _Newres;
; 2213 : 		_Eos(_Oldlen);
; 2214 : 		}
; 2215 : 
; 2216 : 	void _Eos(size_type _Newsize)
; 2217 : 		{	// set new length and null terminator
; 2218 : 		_Traits::assign(this->_Myptr()[this->_Mysize = _Newsize], _Elem());

  0009d	89 7e 10	 mov	 DWORD PTR [esi+16], edi

; 517  : 			: this->_Bx._Buf);

  000a0	83 f8 10	 cmp	 eax, 16			; 00000010H
  000a3	72 0e		 jb	 SHORT $LN87@assign
; File c:\program files (x86)\microsoft visual studio 11.0\vc\include\xstddef

; 88   : 		reinterpret_cast<const volatile char&>(_Val)))));

  000a5	8b 06		 mov	 eax, DWORD PTR [esi]
  000a7	5f		 pop	 edi
; File c:\program files (x86)\microsoft visual studio 11.0\vc\include\iosfwd

; 564  : 		_Left = _Right;

  000a8	c6 00 00	 mov	 BYTE PTR [eax], 0
; File c:\program files (x86)\microsoft visual studio 11.0\vc\include\xstring

; 1138 : 		return (*this);

  000ab	8b c6		 mov	 eax, esi
  000ad	5e		 pop	 esi
  000ae	5b		 pop	 ebx

; 1139 : 		}

  000af	5d		 pop	 ebp
  000b0	c2 08 00	 ret	 8
$LN87@assign:
  000b3	5f		 pop	 edi

; 517  : 			: this->_Bx._Buf);

  000b4	8b c6		 mov	 eax, esi
  000b6	5e		 pop	 esi
; File c:\program files (x86)\microsoft visual studio 11.0\vc\include\iosfwd

; 564  : 		_Left = _Right;

  000b7	c6 00 00	 mov	 BYTE PTR [eax], 0
  000ba	5b		 pop	 ebx
; File c:\program files (x86)\microsoft visual studio 11.0\vc\include\xstring

; 1139 : 		}

  000bb	5d		 pop	 ebp
  000bc	c2 08 00	 ret	 8
$LN96@assign:

; 517  : 			: this->_Bx._Buf);

  000bf	8b c6		 mov	 eax, esi
$LN97@assign:
; File c:\program files (x86)\microsoft visual studio 11.0\vc\include\iosfwd

; 530  : 			: (_Elem *)_CSTD memcpy(_First1, _First2, _Count));

  000c1	85 ff		 test	 edi, edi
  000c3	74 0b		 je	 SHORT $LN103@assign
  000c5	57		 push	 edi
  000c6	53		 push	 ebx
  000c7	50		 push	 eax
  000c8	e8 00 00 00 00	 call	 _memcpy
  000cd	83 c4 0c	 add	 esp, 12			; 0000000cH
$LN103@assign:
; File c:\program files (x86)\microsoft visual studio 11.0\vc\include\xstring

; 517  : 			: this->_Bx._Buf);

  000d0	83 7e 14 10	 cmp	 DWORD PTR [esi+20], 16	; 00000010H

; 1140 : 
; 1141 : 	_Myt& assign(const _Elem *_Ptr)
; 1142 : 		{	// assign [_Ptr, <null>)
; 1143 : 		_DEBUG_POINTER(_Ptr);
; 1144 : 		return (assign(_Ptr, _Traits::length(_Ptr)));
; 1145 : 		}
; 1146 : 
; 1147 : 	_Myt& assign(size_type _Count, _Elem _Ch)
; 1148 : 		{	// assign _Count * _Ch
; 1149 : 		if (_Count == npos)
; 1150 : 			_Xlen();	// result too long
; 1151 : 
; 1152 : 		if (_Grow(_Count))
; 1153 : 			{	// make room and assign new stuff
; 1154 : 			_Chassign(0, _Count, _Ch);
; 1155 : 			_Eos(_Count);
; 1156 : 			}
; 1157 : 		return (*this);
; 1158 : 		}
; 1159 : 
; 1160 : 	template<class _Iter>
; 1161 : 		typename enable_if<_Is_iterator<_Iter>::value,
; 1162 : 			_Myt&>::type
; 1163 : 		assign(_Iter _First, _Iter _Last)
; 1164 : 		{	// assign [First, _Last), input iterators
; 1165 : 		return (replace(begin(), end(), _First, _Last));
; 1166 : 		}
; 1167 : 
; 1168 : 	_Myt& assign(const_pointer _First, const_pointer _Last)
; 1169 : 		{	// assign [First, _Last), const pointers
; 1170 : 		return (replace(begin(), end(), _First, _Last));
; 1171 : 		}
; 1172 : 
; 1173 : 	_Myt& assign(const_iterator _First, const_iterator _Last)
; 1174 : 		{	// assign [First, _Last), const_iterators
; 1175 : 		return (replace(begin(), end(), _First, _Last));
; 1176 : 		}
; 1177 : 
; 1178 : 	_Myt& insert(size_type _Off, const _Myt& _Right)
; 1179 : 		{	// insert _Right at _Off
; 1180 : 		return (insert(_Off, _Right, 0, npos));
; 1181 : 		}
; 1182 : 
; 1183 : 	_Myt& insert(size_type _Off,
; 1184 : 		const _Myt& _Right, size_type _Roff, size_type _Count)
; 1185 : 		{	// insert _Right [_Roff, _Roff + _Count) at _Off
; 1186 : 		if (this->_Mysize < _Off || _Right.size() < _Roff)
; 1187 : 			_Xran();	// _Off or _Roff off end
; 1188 : 		size_type _Num = _Right.size() - _Roff;
; 1189 : 		if (_Num < _Count)
; 1190 : 			_Count = _Num;	// trim _Count to size
; 1191 : 		if (npos - this->_Mysize <= _Count)
; 1192 : 			_Xlen();	// result too long
; 1193 : 
; 1194 : 		if (0 < _Count && _Grow(_Num = this->_Mysize + _Count))
; 1195 : 			{	// make room and insert new stuff
; 1196 : 			_Traits::move(this->_Myptr() + _Off + _Count,
; 1197 : 				this->_Myptr() + _Off,
; 1198 : 				this->_Mysize - _Off);	// empty out hole
; 1199 : 			if (this == &_Right)
; 1200 : 				_Traits::move(this->_Myptr() + _Off,
; 1201 : 					this->_Myptr() + (_Off < _Roff ? _Roff + _Count : _Roff),
; 1202 : 						_Count);	// substring
; 1203 : 			else
; 1204 : 				_Traits::copy(this->_Myptr() + _Off,
; 1205 : 					_Right._Myptr() + _Roff, _Count);	// fill hole
; 1206 : 			_Eos(_Num);
; 1207 : 			}
; 1208 : 		return (*this);
; 1209 : 		}
; 1210 : 
; 1211 : 	_Myt& insert(size_type _Off,
; 1212 : 		const _Elem *_Ptr, size_type _Count)
; 1213 : 		{	// insert [_Ptr, _Ptr + _Count) at _Off
; 1214 :  #if _ITERATOR_DEBUG_LEVEL == 2
; 1215 : 		if (_Count != 0)
; 1216 : 			_DEBUG_POINTER(_Ptr);
; 1217 :  #endif /* _ITERATOR_DEBUG_LEVEL == 2 */
; 1218 : 
; 1219 : 		if (_Inside(_Ptr))
; 1220 : 			return (insert(_Off, *this,
; 1221 : 				_Ptr - this->_Myptr(), _Count));	// substring
; 1222 : 		if (this->_Mysize < _Off)
; 1223 : 			_Xran();	// _Off off end
; 1224 : 		if (npos - this->_Mysize <= _Count)
; 1225 : 			_Xlen();	// result too long
; 1226 : 		size_type _Num;
; 1227 : 		if (0 < _Count && _Grow(_Num = this->_Mysize + _Count))
; 1228 : 			{	// make room and insert new stuff
; 1229 : 			_Traits::move(this->_Myptr() + _Off + _Count,
; 1230 : 				this->_Myptr() + _Off,
; 1231 : 				this->_Mysize - _Off);	// empty out hole
; 1232 : 			_Traits::copy(this->_Myptr() + _Off, _Ptr, _Count);	// fill hole
; 1233 : 			_Eos(_Num);
; 1234 : 			}
; 1235 : 		return (*this);
; 1236 : 		}
; 1237 : 
; 1238 : 	_Myt& insert(size_type _Off, const _Elem *_Ptr)
; 1239 : 		{	// insert [_Ptr, <null>) at _Off
; 1240 : 		_DEBUG_POINTER(_Ptr);
; 1241 : 		return (insert(_Off, _Ptr, _Traits::length(_Ptr)));
; 1242 : 		}
; 1243 : 
; 1244 : 	_Myt& insert(size_type _Off,
; 1245 : 		size_type _Count, _Elem _Ch)
; 1246 : 		{	// insert _Count * _Ch at _Off
; 1247 : 		if (this->_Mysize < _Off)
; 1248 : 			_Xran();	// _Off off end
; 1249 : 		if (npos - this->_Mysize <= _Count)
; 1250 : 			_Xlen();	// result too long
; 1251 : 		size_type _Num;
; 1252 : 		if (0 < _Count && _Grow(_Num = this->_Mysize + _Count))
; 1253 : 			{	// make room and insert new stuff
; 1254 : 			_Traits::move(this->_Myptr() + _Off + _Count,
; 1255 : 				this->_Myptr() + _Off,
; 1256 : 				this->_Mysize - _Off);	// empty out hole
; 1257 : 			_Chassign(_Off, _Count, _Ch);	// fill hole
; 1258 : 			_Eos(_Num);
; 1259 : 			}
; 1260 : 		return (*this);
; 1261 : 		}
; 1262 : 
; 1263 : 	iterator insert(const_iterator _Where)
; 1264 : 		{	// insert <null> at _Where
; 1265 : 		return (insert(_Where, _Elem()));
; 1266 : 		}
; 1267 : 
; 1268 : 	iterator insert(const_iterator _Where, _Elem _Ch)
; 1269 : 		{	// insert _Ch at _Where
; 1270 : 		size_type _Off = _Pdif(_Where, begin());
; 1271 : 		insert(_Off, 1, _Ch);
; 1272 : 		return (begin() + _Off);
; 1273 : 		}
; 1274 : 
; 1275 : 	iterator insert(const_iterator _Where, size_type _Count, _Elem _Ch)
; 1276 : 		{	// insert _Count * _Elem at _Where
; 1277 : 		size_type _Off = _Pdif(_Where, begin());
; 1278 : 		insert(_Off, _Count, _Ch);
; 1279 : 		return (begin() + _Off);
; 1280 : 		}
; 1281 : 
; 1282 : 	template<class _Iter>
; 1283 : 		typename enable_if<_Is_iterator<_Iter>::value,
; 1284 : 			iterator>::type
; 1285 : 		insert(const_iterator _Where, _Iter _First, _Iter _Last)
; 1286 : 		{	// insert [_First, _Last) at _Where, input iterators
; 1287 : 		size_type _Off = _Pdif(_Where, begin());
; 1288 : 		replace(_Where, _Where, _First, _Last);
; 1289 : 		return (begin() + _Off);
; 1290 : 		}
; 1291 : 
; 1292 : 	iterator insert(const_iterator _Where,
; 1293 : 		const_pointer _First, const_pointer _Last)
; 1294 : 		{	// insert [_First, _Last) at _Where, const pointers
; 1295 : 		size_type _Off = _Pdif(_Where, begin());
; 1296 : 		replace(_Where, _Where, _First, _Last);
; 1297 : 		return (begin() + _Off);
; 1298 : 		}
; 1299 : 
; 1300 : 	iterator insert(const_iterator _Where,
; 1301 : 		const_iterator _First, const_iterator _Last)
; 1302 : 		{	// insert [_First, _Last) at _Where, const_iterators
; 1303 : 		size_type _Off = _Pdif(_Where, begin());
; 1304 : 		replace(_Where, _Where, _First, _Last);
; 1305 : 		return (begin() + _Off);
; 1306 : 		}
; 1307 : 
; 1308 : 	_Myt& erase(size_type _Off = 0)
; 1309 : 		{	// erase elements [_Off, ...)
; 1310 : 		if (this->_Mysize < _Off)
; 1311 : 			_Xran();	// _Off off end
; 1312 : 		_Eos(_Off);
; 1313 : 		return (*this);
; 1314 : 		}
; 1315 : 
; 1316 : 	_Myt& erase(size_type _Off, size_type _Count)
; 1317 : 		{	// erase elements [_Off, _Off + _Count)
; 1318 : 		if (this->_Mysize < _Off)
; 1319 : 			_Xran();	// _Off off end
; 1320 : 		if (this->_Mysize - _Off <= _Count)
; 1321 : 			_Eos(_Off);	// erase elements [_Off, ...)
; 1322 : 		else if (0 < _Count)
; 1323 : 			{	// move elements down
; 1324 : 			value_type *_Ptr = this->_Myptr() + _Off;
; 1325 : 			size_type _Newsize = this->_Mysize - _Count;
; 1326 : 			_Traits::move(_Ptr, _Ptr + _Count, _Newsize - _Off);
; 1327 : 			_Eos(_Newsize);
; 1328 : 			}
; 1329 : 		return (*this);
; 1330 : 		}
; 1331 : 
; 1332 : 	iterator erase(const_iterator _Where)
; 1333 : 		{	// erase element at _Where
; 1334 : 		size_type _Count = _Pdif(_Where, begin());
; 1335 : 		erase(_Count, 1);
; 1336 : 		return (_STRING_ITERATOR(this->_Myptr() + _Count));
; 1337 : 		}
; 1338 : 
; 1339 : 	iterator erase(const_iterator _First, const_iterator _Last)
; 1340 : 		{	// erase substring [_First, _Last)
; 1341 : 		_DEBUG_RANGE(_First, _Last);
; 1342 : 		size_type _Count = _Pdif(_First, begin());
; 1343 : 		erase(_Count, _Pdif(_Last, _First));
; 1344 : 		return (_STRING_ITERATOR(this->_Myptr() + _Count));
; 1345 : 		}
; 1346 : 
; 1347 : 	void clear() _NOEXCEPT
; 1348 : 		{	// erase all
; 1349 : 		_Eos(0);
; 1350 : 		}
; 1351 : 
; 1352 : 	_Myt& replace(size_type _Off, size_type _N0, const _Myt& _Right)
; 1353 : 		{	// replace [_Off, _Off + _N0) with _Right
; 1354 : 		return (replace(_Off, _N0, _Right, 0, npos));
; 1355 : 		}
; 1356 : 
; 1357 : 	_Myt& replace(size_type _Off,
; 1358 : 		size_type _N0, const _Myt& _Right, size_type _Roff, size_type _Count)
; 1359 : 		{	// replace [_Off, _Off + _N0) with _Right [_Roff, _Roff + _Count)
; 1360 : 		if (this->_Mysize < _Off || _Right.size() < _Roff)
; 1361 : 			_Xran();	// _Off or _Roff off end
; 1362 : 		if (this->_Mysize - _Off < _N0)
; 1363 : 			_N0 = this->_Mysize - _Off;	// trim _N0 to size
; 1364 : 		size_type _Num = _Right.size() - _Roff;
; 1365 : 		if (_Num < _Count)
; 1366 : 			_Count = _Num;	// trim _Count to size
; 1367 : 		if (npos - _Count <= this->_Mysize - _N0)
; 1368 : 			_Xlen();	// result too long
; 1369 : 
; 1370 : 		size_type _Nm = this->_Mysize - _N0 - _Off;	// length of kept tail
; 1371 : 		size_type _Newsize = this->_Mysize + _Count - _N0;
; 1372 : 		if (this->_Mysize < _Newsize)
; 1373 : 			_Grow(_Newsize);
; 1374 : 
; 1375 : 		if (this != &_Right)
; 1376 : 			{	// no overlap, just move down and copy in new stuff
; 1377 : 			_Traits::move(this->_Myptr() + _Off + _Count,
; 1378 : 				this->_Myptr() + _Off + _N0, _Nm);	// empty hole
; 1379 : 			_Traits::copy(this->_Myptr() + _Off,
; 1380 : 				_Right._Myptr() + _Roff, _Count);	// fill hole
; 1381 : 			}
; 1382 : 		else if (_Count <= _N0)
; 1383 : 			{	// hole doesn't get larger, just copy in substring
; 1384 : 			_Traits::move(this->_Myptr() + _Off,
; 1385 : 				this->_Myptr() + _Roff, _Count);	// fill hole
; 1386 : 			_Traits::move(this->_Myptr() + _Off + _Count,
; 1387 : 				this->_Myptr() + _Off + _N0, _Nm);	// move tail down
; 1388 : 			}
; 1389 : 		else if (_Roff <= _Off)
; 1390 : 			{	// hole gets larger, substring begins before hole
; 1391 : 			_Traits::move(this->_Myptr() + _Off + _Count,
; 1392 : 				this->_Myptr() + _Off + _N0, _Nm);	// move tail down
; 1393 : 			_Traits::move(this->_Myptr() + _Off,
; 1394 : 				this->_Myptr() + _Roff, _Count);	// fill hole
; 1395 : 			}
; 1396 : 		else if (_Off + _N0 <= _Roff)
; 1397 : 			{	// hole gets larger, substring begins after hole
; 1398 : 			_Traits::move(this->_Myptr() + _Off + _Count,
; 1399 : 				this->_Myptr() + _Off + _N0, _Nm);	// move tail down
; 1400 : 			_Traits::move(this->_Myptr() + _Off,
; 1401 : 				this->_Myptr() + (_Roff + _Count - _N0),
; 1402 : 				_Count);	// fill hole
; 1403 : 			}
; 1404 : 		else
; 1405 : 			{	// hole gets larger, substring begins in hole
; 1406 : 			_Traits::move(this->_Myptr() + _Off,
; 1407 : 				this->_Myptr() + _Roff, _N0);	// fill old hole
; 1408 : 			_Traits::move(this->_Myptr() + _Off + _Count,
; 1409 : 				this->_Myptr() + _Off + _N0, _Nm);	// move tail down
; 1410 : 			_Traits::move(this->_Myptr() + _Off + _N0,
; 1411 : 				this->_Myptr() + _Roff + _Count,
; 1412 : 				_Count - _N0);	// fill rest of new hole
; 1413 : 			}
; 1414 : 
; 1415 : 		_Eos(_Newsize);
; 1416 : 		return (*this);
; 1417 : 		}
; 1418 : 
; 1419 : 	_Myt& replace(size_type _Off,
; 1420 : 		size_type _N0, const _Elem *_Ptr, size_type _Count)
; 1421 : 		{	// replace [_Off, _Off + _N0) with [_Ptr, _Ptr + _Count)
; 1422 :  #if _ITERATOR_DEBUG_LEVEL == 2
; 1423 : 		if (_Count != 0)
; 1424 : 			_DEBUG_POINTER(_Ptr);
; 1425 :  #endif /* _ITERATOR_DEBUG_LEVEL == 2 */
; 1426 : 
; 1427 : 		if (_Inside(_Ptr))
; 1428 : 			return (replace(_Off, _N0, *this,
; 1429 : 				_Ptr - this->_Myptr(),
; 1430 : 				_Count));	// substring, replace carefully
; 1431 : 		if (this->_Mysize < _Off)
; 1432 : 			_Xran();	// _Off off end
; 1433 : 		if (this->_Mysize - _Off < _N0)
; 1434 : 			_N0 = this->_Mysize - _Off;	// trim _N0 to size
; 1435 : 		if (npos - _Count <= this->_Mysize - _N0)
; 1436 : 			_Xlen();	// result too long
; 1437 : 		size_type _Nm = this->_Mysize - _N0 - _Off;
; 1438 : 
; 1439 : 		if (_Count < _N0)
; 1440 : 			_Traits::move(this->_Myptr() + _Off + _Count,
; 1441 : 				this->_Myptr() + _Off + _N0,
; 1442 : 				_Nm);	// smaller hole, move tail up
; 1443 : 		size_type _Num;
; 1444 : 		if ((0 < _Count || 0 < _N0)
; 1445 : 			&& _Grow(_Num = this->_Mysize + _Count - _N0))
; 1446 : 			{	// make room and rearrange
; 1447 : 			if (_N0 < _Count)
; 1448 : 				_Traits::move(this->_Myptr() + _Off + _Count,
; 1449 : 					this->_Myptr() + _Off + _N0, _Nm);	// move tail down
; 1450 : 			_Traits::copy(this->_Myptr() + _Off, _Ptr, _Count);	// fill hole
; 1451 : 			_Eos(_Num);
; 1452 : 			}
; 1453 : 		return (*this);
; 1454 : 		}
; 1455 : 
; 1456 : 	_Myt& replace(size_type _Off, size_type _N0, const _Elem *_Ptr)
; 1457 : 		{	// replace [_Off, _Off + _N0) with [_Ptr, <null>)
; 1458 : 		_DEBUG_POINTER(_Ptr);
; 1459 : 		return (replace(_Off, _N0, _Ptr, _Traits::length(_Ptr)));
; 1460 : 		}
; 1461 : 
; 1462 : 	_Myt& replace(size_type _Off,
; 1463 : 		size_type _N0, size_type _Count, _Elem _Ch)
; 1464 : 		{	// replace [_Off, _Off + _N0) with _Count * _Ch
; 1465 : 		if (this->_Mysize < _Off)
; 1466 : 			_Xran();	// _Off off end
; 1467 : 		if (this->_Mysize - _Off < _N0)
; 1468 : 			_N0 = this->_Mysize - _Off;	// trim _N0 to size
; 1469 : 		if (npos - _Count <= this->_Mysize - _N0)
; 1470 : 			_Xlen();	// result too long
; 1471 : 		size_type _Nm = this->_Mysize - _N0 - _Off;
; 1472 : 
; 1473 : 		if (_Count < _N0)
; 1474 : 			_Traits::move(this->_Myptr() + _Off + _Count,
; 1475 : 				this->_Myptr() + _Off + _N0,
; 1476 : 				_Nm);	// smaller hole, move tail up
; 1477 : 		size_type _Num;
; 1478 : 		if ((0 < _Count || 0 < _N0)
; 1479 : 			&& _Grow(_Num = this->_Mysize + _Count - _N0))
; 1480 : 			{	// make room and rearrange
; 1481 : 			if (_N0 < _Count)
; 1482 : 				_Traits::move(this->_Myptr() + _Off + _Count,
; 1483 : 					this->_Myptr() + _Off + _N0, _Nm);	// move tail down
; 1484 : 			_Chassign(_Off, _Count, _Ch);	// fill hole
; 1485 : 			_Eos(_Num);
; 1486 : 			}
; 1487 : 		return (*this);
; 1488 : 		}
; 1489 : 
; 1490 : 	_Myt& replace(const_iterator _First, const_iterator _Last,
; 1491 : 		const _Myt& _Right)
; 1492 : 		{	// replace [_First, _Last) with _Right
; 1493 : 		return (replace(
; 1494 : 			_Pdif(_First, begin()), _Pdif(_Last, _First), _Right));
; 1495 : 		}
; 1496 : 
; 1497 : 	_Myt& replace(const_iterator _First, const_iterator _Last,
; 1498 : 		const _Elem *_Ptr, size_type _Count)
; 1499 : 		{	// replace [_First, _Last) with [_Ptr, _Ptr + _Count)
; 1500 : 		return (replace(
; 1501 : 			_Pdif(_First, begin()), _Pdif(_Last, _First), _Ptr, _Count));
; 1502 : 		}
; 1503 : 
; 1504 : 	_Myt& replace(const_iterator _First, const_iterator _Last,
; 1505 : 		const _Elem *_Ptr)
; 1506 : 		{	// replace [_First, _Last) with [_Ptr, <null>)
; 1507 : 		return (replace(
; 1508 : 			_Pdif(_First, begin()), _Pdif(_Last, _First), _Ptr));
; 1509 : 		}
; 1510 : 
; 1511 : 	_Myt& replace(const_iterator _First, const_iterator _Last,
; 1512 : 		size_type _Count, _Elem _Ch)
; 1513 : 		{	// replace [_First, _Last) with _Count * _Ch
; 1514 : 		return (replace(
; 1515 : 			_Pdif(_First, begin()), _Pdif(_Last, _First), _Count, _Ch));
; 1516 : 		}
; 1517 : 
; 1518 : 	template<class _Iter>
; 1519 : 		typename enable_if<_Is_iterator<_Iter>::value,
; 1520 : 			_Myt&>::type
; 1521 : 		replace(const_iterator _First, const_iterator _Last,
; 1522 : 			_Iter _First2, _Iter _Last2)
; 1523 : 		{	// replace [_First, _Last) with [_First2, _Last2), input iterators
; 1524 : 		_Myt _Right(_First2, _Last2);
; 1525 : 		replace(_First, _Last, _Right);
; 1526 : 		return (*this);
; 1527 : 		}
; 1528 : 
; 1529 : 	_Myt& replace(const_iterator _First, const_iterator _Last,
; 1530 : 		const_pointer _First2, const_pointer _Last2)
; 1531 : 		{	// replace [_First, _Last) with [_First2, _Last2), const pointers
; 1532 : 		if (_First2 == _Last2)
; 1533 : 			erase(_Pdif(_First, begin()), _Pdif(_Last, _First));
; 1534 : 		else
; 1535 : 			replace(_Pdif(_First, begin()), _Pdif(_Last, _First),
; 1536 : 				&*_First2, _Last2 - _First2);
; 1537 : 		return (*this);
; 1538 : 		}
; 1539 : 
; 1540 : 	_Myt& replace(const_iterator _First, const_iterator _Last,
; 1541 : 		pointer _First2, pointer _Last2)
; 1542 : 		{	// replace [_First, _Last) with [_First2, _Last2), const pointers
; 1543 : 		if (_First2 == _Last2)
; 1544 : 			erase(_Pdif(_First, begin()), _Pdif(_Last, _First));
; 1545 : 		else
; 1546 : 			replace(_Pdif(_First, begin()), _Pdif(_Last, _First),
; 1547 : 				&*_First2, _Last2 - _First2);
; 1548 : 		return (*this);
; 1549 : 		}
; 1550 : 
; 1551 : 	_Myt& replace(const_iterator _First, const_iterator _Last,
; 1552 : 		const_iterator _First2, const_iterator _Last2)
; 1553 : 		{	// replace [_First, _Last) with [_First2, _Last2), const_iterators
; 1554 : 		if (_First2 == _Last2)
; 1555 : 			erase(_Pdif(_First, begin()), _Pdif(_Last, _First));
; 1556 : 		else
; 1557 : 			replace(_Pdif(_First, begin()), _Pdif(_Last, _First),
; 1558 : 				&*_First2, _Last2 - _First2);
; 1559 : 		return (*this);
; 1560 : 		}
; 1561 : 
; 1562 : 	_Myt& replace(const_iterator _First, const_iterator _Last,
; 1563 : 		iterator _First2, iterator _Last2)
; 1564 : 		{	// replace [_First, _Last) with [_First2, _Last2), const_iterators
; 1565 : 		if (_First2 == _Last2)
; 1566 : 			erase(_Pdif(_First, begin()), _Pdif(_Last, _First));
; 1567 : 		else
; 1568 : 			replace(_Pdif(_First, begin()), _Pdif(_Last, _First),
; 1569 : 				&*_First2, _Last2 - _First2);
; 1570 : 		return (*this);
; 1571 : 		}
; 1572 : 
; 1573 : 	iterator begin() _NOEXCEPT
; 1574 : 		{	// return iterator for beginning of mutable sequence
; 1575 : 		return (_STRING_ITERATOR(this->_Myptr()));
; 1576 : 		}
; 1577 : 
; 1578 : 	const_iterator begin() const _NOEXCEPT
; 1579 : 		{	// return iterator for beginning of nonmutable sequence
; 1580 : 		return (_STRING_CONST_ITERATOR(this->_Myptr()));
; 1581 : 		}
; 1582 : 
; 1583 : 	iterator end() _NOEXCEPT
; 1584 : 		{	// return iterator for end of mutable sequence
; 1585 : 		return (_STRING_ITERATOR(this->_Myptr() + this->_Mysize));
; 1586 : 		}
; 1587 : 
; 1588 : 	const_iterator end() const _NOEXCEPT
; 1589 : 		{	// return iterator for end of nonmutable sequence
; 1590 : 		return (_STRING_CONST_ITERATOR(this->_Myptr() + this->_Mysize));
; 1591 : 		}
; 1592 : 
; 1593 : 	reverse_iterator rbegin() _NOEXCEPT
; 1594 : 		{	// return iterator for beginning of reversed mutable sequence
; 1595 : 		return (reverse_iterator(end()));
; 1596 : 		}
; 1597 : 
; 1598 : 	const_reverse_iterator rbegin() const _NOEXCEPT
; 1599 : 		{	// return iterator for beginning of reversed nonmutable sequence
; 1600 : 		return (const_reverse_iterator(end()));
; 1601 : 		}
; 1602 : 
; 1603 : 	reverse_iterator rend() _NOEXCEPT
; 1604 : 		{	// return iterator for end of reversed mutable sequence
; 1605 : 		return (reverse_iterator(begin()));
; 1606 : 		}
; 1607 : 
; 1608 : 	const_reverse_iterator rend() const _NOEXCEPT
; 1609 : 		{	// return iterator for end of reversed nonmutable sequence
; 1610 : 		return (const_reverse_iterator(begin()));
; 1611 : 		}
; 1612 : 
; 1613 :  #if _HAS_CPP0X
; 1614 : 	const_iterator cbegin() const _NOEXCEPT
; 1615 : 		{	// return iterator for beginning of nonmutable sequence
; 1616 : 		return (((const _Myt *)this)->begin());
; 1617 : 		}
; 1618 : 
; 1619 : 	const_iterator cend() const _NOEXCEPT
; 1620 : 		{	// return iterator for end of nonmutable sequence
; 1621 : 		return (((const _Myt *)this)->end());
; 1622 : 		}
; 1623 : 
; 1624 : 	const_reverse_iterator crbegin() const _NOEXCEPT
; 1625 : 		{	// return iterator for beginning of reversed nonmutable sequence
; 1626 : 		return (((const _Myt *)this)->rbegin());
; 1627 : 		}
; 1628 : 
; 1629 : 	const_reverse_iterator crend() const _NOEXCEPT
; 1630 : 		{	// return iterator for end of reversed nonmutable sequence
; 1631 : 		return (((const _Myt *)this)->rend());
; 1632 : 		}
; 1633 : 
; 1634 : 	void shrink_to_fit()
; 1635 : 		{	// reduce capacity
; 1636 : 		if ((size() | this->_ALLOC_MASK) < capacity())
; 1637 : 			{	// worth shrinking, do it
; 1638 : 			_Myt _Tmp(*this);
; 1639 : 			swap(_Tmp);
; 1640 : 			}
; 1641 : 		}
; 1642 :  #endif /* _HAS_CPP0X */
; 1643 : 
; 1644 : 	reference at(size_type _Off)
; 1645 : 		{	// subscript mutable sequence with checking
; 1646 : 		if (this->_Mysize <= _Off)
; 1647 : 			_Xran();	// _Off off end
; 1648 : 		return (this->_Myptr()[_Off]);
; 1649 : 		}
; 1650 : 
; 1651 : 	const_reference at(size_type _Off) const
; 1652 : 		{	// subscript nonmutable sequence with checking
; 1653 : 		if (this->_Mysize <= _Off)
; 1654 : 			_Xran();	// _Off off end
; 1655 : 		return (this->_Myptr()[_Off]);
; 1656 : 		}
; 1657 : 
; 1658 : 	reference operator[](size_type _Off)
; 1659 : 		{	// subscript mutable sequence
; 1660 :  #if _ITERATOR_DEBUG_LEVEL == 2
; 1661 : 		if (this->_Mysize < _Off)	// sic
; 1662 : 			_DEBUG_ERROR("string subscript out of range");
; 1663 : 
; 1664 :  #elif _ITERATOR_DEBUG_LEVEL == 1
; 1665 : 		_SCL_SECURE_VALIDATE_RANGE(_Off <= this->_Mysize);	// sic
; 1666 :  #endif /* _ITERATOR_DEBUG_LEVEL == 2 */
; 1667 : 
; 1668 : 		return (this->_Myptr()[_Off]);
; 1669 : 		}
; 1670 : 
; 1671 : 	const_reference operator[](size_type _Off) const
; 1672 : 		{	// subscript nonmutable sequence
; 1673 :  #if _ITERATOR_DEBUG_LEVEL == 2
; 1674 : 		if (this->_Mysize < _Off)	// sic
; 1675 : 			_DEBUG_ERROR("string subscript out of range");
; 1676 : 
; 1677 :  #elif _ITERATOR_DEBUG_LEVEL == 1
; 1678 : 		_SCL_SECURE_VALIDATE_RANGE(_Off <= this->_Mysize);	// sic
; 1679 :  #endif /* _ITERATOR_DEBUG_LEVEL == 2 */
; 1680 : 
; 1681 : 		return (this->_Myptr()[_Off]);
; 1682 : 		}
; 1683 : 
; 1684 : 	void push_back(_Elem _Ch)
; 1685 : 		{	// insert element at end
; 1686 : 		insert(end(), _Ch);
; 1687 : 		}
; 1688 : 
; 1689 :  #if _HAS_CPP0X
; 1690 : 	void pop_back()
; 1691 : 		{	// erase element at end
; 1692 : 		erase(this->_Mysize - 1);	// throws if _Mysize == 0
; 1693 : 		}
; 1694 : 
; 1695 : 	reference front()
; 1696 : 		{	// return first element of mutable sequence
; 1697 : 		return (*begin());
; 1698 : 		}
; 1699 : 
; 1700 : 	const_reference front() const
; 1701 : 		{	// return first element of nonmutable sequence
; 1702 : 		return (*begin());
; 1703 : 		}
; 1704 : 
; 1705 : 	reference back()
; 1706 : 		{	// return last element of mutable sequence
; 1707 : 		return (*(end() - 1));
; 1708 : 		}
; 1709 : 
; 1710 : 	const_reference back() const
; 1711 : 		{	// return last element of nonmutable sequence
; 1712 : 		return (*(end() - 1));
; 1713 : 		}
; 1714 :  #endif /* _HAS_CPP0X */
; 1715 : 
; 1716 : 	const _Elem *c_str() const _NOEXCEPT
; 1717 : 		{	// return pointer to null-terminated nonmutable array
; 1718 : 		return (this->_Myptr());
; 1719 : 		}
; 1720 : 
; 1721 : 	const _Elem *data() const _NOEXCEPT
; 1722 : 		{	// return pointer to nonmutable array
; 1723 : 		return (c_str());
; 1724 : 		}
; 1725 : 
; 1726 : 	size_type length() const _NOEXCEPT
; 1727 : 		{	// return length of sequence
; 1728 : 		return (this->_Mysize);
; 1729 : 		}
; 1730 : 
; 1731 : 	size_type size() const _NOEXCEPT
; 1732 : 		{	// return length of sequence
; 1733 : 		return (this->_Mysize);
; 1734 : 		}
; 1735 : 
; 1736 : 	size_type max_size() const _NOEXCEPT
; 1737 : 		{	// return maximum possible length of sequence
; 1738 : 		size_type _Num = this->_Getal().max_size();
; 1739 : 		return (_Num <= 1 ? 1 : _Num - 1);
; 1740 : 		}
; 1741 : 
; 1742 : 	void resize(size_type _Newsize)
; 1743 : 		{	// determine new length, padding with null elements as needed
; 1744 : 		resize(_Newsize, _Elem());
; 1745 : 		}
; 1746 : 
; 1747 : 	void resize(size_type _Newsize, _Elem _Ch)
; 1748 : 		{	// determine new length, padding with _Ch elements as needed
; 1749 : 		if (_Newsize <= this->_Mysize)
; 1750 : 			_Eos(_Newsize);
; 1751 : 		else
; 1752 : 			append(_Newsize - this->_Mysize, _Ch);
; 1753 : 		}
; 1754 : 
; 1755 : 	size_type capacity() const _NOEXCEPT
; 1756 : 		{	// return current length of allocated storage
; 1757 : 		return (this->_Myres);
; 1758 : 		}
; 1759 : 
; 1760 : 	void reserve(size_type _Newcap = 0)
; 1761 : 		{	// determine new minimum length of allocated storage
; 1762 : 		if (this->_Mysize <= _Newcap && this->_Myres != _Newcap)
; 1763 : 			{	// change reservation
; 1764 : 			size_type _Size = this->_Mysize;
; 1765 : 			if (_Grow(_Newcap, true))
; 1766 : 				_Eos(_Size);
; 1767 : 			}
; 1768 : 		}
; 1769 : 
; 1770 : 	bool empty() const _NOEXCEPT
; 1771 : 		{	// test if sequence is empty
; 1772 : 		return (this->_Mysize == 0);
; 1773 : 		}
; 1774 : 
; 1775 : 	_SCL_INSECURE_DEPRECATE
; 1776 : 
; 1777 : 	size_type copy(_Elem *_Ptr,
; 1778 : 		size_type _Count, size_type _Off = 0) const
; 1779 : 		{	// copy [_Off, _Off + _Count) to [_Ptr, _Ptr + _Count)
; 1780 :  #if _ITERATOR_DEBUG_LEVEL == 2
; 1781 : 		if (_Count != 0)
; 1782 : 			_DEBUG_POINTER(_Ptr);
; 1783 :  #endif /* _ITERATOR_DEBUG_LEVEL == 2 */
; 1784 : 
; 1785 : 		if (this->_Mysize < _Off)
; 1786 : 			_Xran();	// _Off off end
; 1787 : 		if (this->_Mysize - _Off < _Count)
; 1788 : 			_Count = this->_Mysize - _Off;
; 1789 : 		_Traits::copy(_Ptr, this->_Myptr() + _Off, _Count);
; 1790 : 		return (_Count);
; 1791 : 		}
; 1792 : 
; 1793 : 	size_type _Copy_s(_Elem *_Dest, size_type _Dest_size,
; 1794 : 		size_type _Count, size_type _Off = 0) const
; 1795 : 		{	// copy [_Off, _Off + _Count) to [_Dest, _Dest + _Count)
; 1796 :  #if _ITERATOR_DEBUG_LEVEL == 2
; 1797 : 		if (_Count != 0)
; 1798 : 			_DEBUG_POINTER(_Dest);
; 1799 :  #endif /* _ITERATOR_DEBUG_LEVEL == 2 */
; 1800 : 
; 1801 : 		if (this->_Mysize < _Off)
; 1802 : 			_Xran();	// _Off off end
; 1803 : 		if (this->_Mysize - _Off < _Count)
; 1804 : 			_Count = this->_Mysize - _Off;
; 1805 : 		_Traits::_Copy_s(_Dest, _Dest_size, this->_Myptr() + _Off, _Count);
; 1806 : 		return (_Count);
; 1807 : 		}
; 1808 : 
; 1809 : 	void _Swap_bx(_Myt& _Right)
; 1810 : 		{	// exchange _Bx with _Right._Bx
; 1811 : 		if (this->_BUF_SIZE <= this->_Myres)
; 1812 : 			if (this->_BUF_SIZE <= _Right._Myres)
; 1813 : 				_Swap_adl(this->_Bx._Ptr, _Right._Bx._Ptr);
; 1814 : 			else
; 1815 : 				{	// swap large with small
; 1816 : 				pointer _Ptr = this->_Bx._Ptr;
; 1817 : 				this->_Getal().destroy(&this->_Bx._Ptr);
; 1818 : 				_Traits::copy(this->_Bx._Buf,
; 1819 : 					_Right._Bx._Buf, _Right._Mysize + 1);
; 1820 : 				this->_Getal().construct(&_Right._Bx._Ptr, _Ptr);
; 1821 : 				}
; 1822 : 		else
; 1823 : 			if (_Right._Myres < this->_BUF_SIZE)
; 1824 : 				_STD swap(this->_Bx._Buf, _Right._Bx._Buf);
; 1825 : 			else
; 1826 : 				{	// swap small with large
; 1827 : 				pointer _Ptr = _Right._Bx._Ptr;
; 1828 : 				this->_Getal().destroy(&_Right._Bx._Ptr);
; 1829 : 				_Traits::copy(_Right._Bx._Buf,
; 1830 : 					this->_Bx._Buf, this->_Mysize + 1);
; 1831 : 				this->_Getal().construct(&this->_Bx._Ptr, _Ptr);
; 1832 : 				}
; 1833 : 		}
; 1834 : 
; 1835 : 	void swap(_Myt& _Right)
; 1836 : 		{	// exchange contents with _Right
; 1837 : 		if (this == &_Right)
; 1838 : 			;	// same object, do nothing
; 1839 : 		else if (this->_Getal() == _Right._Getal())
; 1840 : 			{	// same allocator, swap control information
; 1841 : 			this->_Swap_all(_Right);
; 1842 : 			_Swap_bx(_Right);
; 1843 : 			_STD swap(this->_Mysize, _Right._Mysize);
; 1844 : 			_STD swap(this->_Myres, _Right._Myres);
; 1845 : 			}
; 1846 : 
; 1847 :  #if _HAS_CPP0X
; 1848 : 		else if (_Alty::propagate_on_container_swap::value)
; 1849 : 			{	// swap allocators and control information
; 1850 : 			this->_Swap_alloc(_Right);
; 1851 : 			_Swap_bx(_Right);
; 1852 : 			_STD swap(this->_Bx, _Right._Bx);	// pointer bitwise copyable?
; 1853 : 			_STD swap(this->_Mysize, _Right._Mysize);
; 1854 : 			_STD swap(this->_Myres, _Right._Myres);
; 1855 : 			}
; 1856 :  #endif /* _HAS_CPP0X */
; 1857 : 
; 1858 : 		else
; 1859 : 			{	// different allocator, do multiple assigns
; 1860 : 			_Myt _Tmp = *this;
; 1861 : 
; 1862 : 			*this = _Right;
; 1863 : 			_Right = _Tmp;
; 1864 : 			}
; 1865 : 		}
; 1866 : 
; 1867 : 	size_type find(const _Myt& _Right, size_type _Off = 0) const _NOEXCEPT
; 1868 : 		{	// look for _Right beginning at or after _Off
; 1869 : 		return (find(_Right._Myptr(), _Off, _Right.size()));
; 1870 : 		}
; 1871 : 
; 1872 : 	size_type find(const _Elem *_Ptr,
; 1873 : 		size_type _Off, size_type _Count) const
; 1874 : 		{	// look for [_Ptr, _Ptr + _Count) beginning at or after _Off
; 1875 :  #if _ITERATOR_DEBUG_LEVEL == 2
; 1876 : 		if (_Count != 0)
; 1877 : 			_DEBUG_POINTER(_Ptr);
; 1878 :  #endif /* _ITERATOR_DEBUG_LEVEL == 2 */
; 1879 : 
; 1880 : 		if (_Count == 0 && _Off <= this->_Mysize)
; 1881 : 			return (_Off);	// null string always matches (if inside string)
; 1882 : 
; 1883 : 		size_type _Nm;
; 1884 : 		if (_Off < this->_Mysize && _Count <= (_Nm = this->_Mysize - _Off))
; 1885 : 			{	// room for match, look for it
; 1886 : 			const _Elem *_Uptr, *_Vptr;
; 1887 : 			for (_Nm -= _Count - 1, _Vptr = this->_Myptr() + _Off;
; 1888 : 				(_Uptr = _Traits::find(_Vptr, _Nm, *_Ptr)) != 0;
; 1889 : 				_Nm -= _Uptr - _Vptr + 1, _Vptr = _Uptr + 1)
; 1890 : 				if (_Traits::compare(_Uptr, _Ptr, _Count) == 0)
; 1891 : 					return (_Uptr - this->_Myptr());	// found a match
; 1892 : 			}
; 1893 : 
; 1894 : 		return (npos);	// no match
; 1895 : 		}
; 1896 : 
; 1897 : 	size_type find(const _Elem *_Ptr, size_type _Off = 0) const
; 1898 : 		{	// look for [_Ptr, <null>) beginning at or after _Off
; 1899 : 		_DEBUG_POINTER(_Ptr);
; 1900 : 		return (find(_Ptr, _Off, _Traits::length(_Ptr)));
; 1901 : 		}
; 1902 : 
; 1903 : 	size_type find(_Elem _Ch, size_type _Off = 0) const
; 1904 : 		{	// look for _Ch at or after _Off
; 1905 : 		return (find((const _Elem *)&_Ch, _Off, 1));
; 1906 : 		}
; 1907 : 
; 1908 : 	size_type rfind(const _Myt& _Right, size_type _Off = npos) const _NOEXCEPT
; 1909 : 		{	// look for _Right beginning before _Off
; 1910 : 		return (rfind(_Right._Myptr(), _Off, _Right.size()));
; 1911 : 		}
; 1912 : 
; 1913 : 	size_type rfind(const _Elem *_Ptr,
; 1914 : 		size_type _Off, size_type _Count) const
; 1915 : 		{	// look for [_Ptr, _Ptr + _Count) beginning before _Off
; 1916 :  #if _ITERATOR_DEBUG_LEVEL == 2
; 1917 : 		if (_Count != 0)
; 1918 : 			_DEBUG_POINTER(_Ptr);
; 1919 :  #endif /* _ITERATOR_DEBUG_LEVEL == 2 */
; 1920 : 
; 1921 : 		if (_Count == 0)
; 1922 : 			return (_Off < this->_Mysize ? _Off
; 1923 : 				: this->_Mysize);	// null always matches
; 1924 : 		if (_Count <= this->_Mysize)
; 1925 : 			{	// room for match, look for it
; 1926 : 			const _Elem *_Uptr = this->_Myptr() +
; 1927 : 				(_Off < this->_Mysize - _Count ? _Off
; 1928 : 					: this->_Mysize - _Count);
; 1929 : 			for (; ; --_Uptr)
; 1930 : 				if (_Traits::eq(*_Uptr, *_Ptr)
; 1931 : 					&& _Traits::compare(_Uptr, _Ptr, _Count) == 0)
; 1932 : 					return (_Uptr - this->_Myptr());	// found a match
; 1933 : 				else if (_Uptr == this->_Myptr())
; 1934 : 					break;	// at beginning, no more chance for match
; 1935 : 			}
; 1936 : 
; 1937 : 		return (npos);	// no match
; 1938 : 		}
; 1939 : 
; 1940 : 	size_type rfind(const _Elem *_Ptr, size_type _Off = npos) const
; 1941 : 		{	// look for [_Ptr, <null>) beginning before _Off
; 1942 : 		_DEBUG_POINTER(_Ptr);
; 1943 : 		return (rfind(_Ptr, _Off, _Traits::length(_Ptr)));
; 1944 : 		}
; 1945 : 
; 1946 : 	size_type rfind(_Elem _Ch, size_type _Off = npos) const
; 1947 : 		{	// look for _Ch before _Off
; 1948 : 		return (rfind((const _Elem *)&_Ch, _Off, 1));
; 1949 : 		}
; 1950 : 
; 1951 : 	size_type find_first_of(const _Myt& _Right,
; 1952 : 		size_type _Off = 0) const _NOEXCEPT
; 1953 : 		{	// look for one of _Right at or after _Off
; 1954 : 		return (find_first_of(_Right._Myptr(), _Off, _Right.size()));
; 1955 : 		}
; 1956 : 
; 1957 : 	size_type find_first_of(const _Elem *_Ptr,
; 1958 : 		size_type _Off, size_type _Count) const
; 1959 : 		{	// look for one of [_Ptr, _Ptr + _Count) at or after _Off
; 1960 :  #if _ITERATOR_DEBUG_LEVEL == 2
; 1961 : 		if (_Count != 0)
; 1962 : 			_DEBUG_POINTER(_Ptr);
; 1963 :  #endif /* _ITERATOR_DEBUG_LEVEL == 2 */
; 1964 : 
; 1965 : 		if (0 < _Count && _Off < this->_Mysize)
; 1966 : 			{	// room for match, look for it
; 1967 : 			const _Elem *const _Vptr = this->_Myptr() + this->_Mysize;
; 1968 : 			for (const _Elem *_Uptr = this->_Myptr() + _Off;
; 1969 : 				_Uptr < _Vptr; ++_Uptr)
; 1970 : 				if (_Traits::find(_Ptr, _Count, *_Uptr) != 0)
; 1971 : 					return (_Uptr - this->_Myptr());	// found a match
; 1972 : 			}
; 1973 : 
; 1974 : 		return (npos);	// no match
; 1975 : 		}
; 1976 : 
; 1977 : 	size_type find_first_of(const _Elem *_Ptr,
; 1978 : 		size_type _Off = 0) const
; 1979 : 		{	// look for one of [_Ptr, <null>) at or after _Off
; 1980 : 		_DEBUG_POINTER(_Ptr);
; 1981 : 		return (find_first_of(_Ptr, _Off, _Traits::length(_Ptr)));
; 1982 : 		}
; 1983 : 
; 1984 : 	size_type find_first_of(_Elem _Ch,
; 1985 : 		size_type _Off = 0) const
; 1986 : 		{	// look for _Ch at or after _Off
; 1987 : 		return (find((const _Elem *)&_Ch, _Off, 1));
; 1988 : 		}
; 1989 : 
; 1990 : 	size_type find_last_of(const _Myt& _Right,
; 1991 : 		size_type _Off = npos) const _NOEXCEPT
; 1992 : 		{	// look for one of _Right before _Off
; 1993 : 		return (find_last_of(_Right._Myptr(), _Off, _Right.size()));
; 1994 : 		}
; 1995 : 
; 1996 : 	size_type find_last_of(const _Elem *_Ptr,
; 1997 : 		size_type _Off, size_type _Count) const
; 1998 : 		{	// look for one of [_Ptr, _Ptr + _Count) before _Off
; 1999 :  #if _ITERATOR_DEBUG_LEVEL == 2
; 2000 : 		if (_Count != 0)
; 2001 : 			_DEBUG_POINTER(_Ptr);
; 2002 :  #endif /* _ITERATOR_DEBUG_LEVEL == 2 */
; 2003 : 
; 2004 : 		if (0 < _Count && 0 < this->_Mysize)
; 2005 : 			{	// worth searching, do it
; 2006 : 			const _Elem *_Uptr = this->_Myptr()
; 2007 : 				+ (_Off < this->_Mysize ? _Off : this->_Mysize - 1);
; 2008 : 			for (; ; --_Uptr)
; 2009 : 				if (_Traits::find(_Ptr, _Count, *_Uptr) != 0)
; 2010 : 					return (_Uptr - this->_Myptr());	// found a match
; 2011 : 				else if (_Uptr == this->_Myptr())
; 2012 : 					break;	// at beginning, no more chance for match
; 2013 : 			}
; 2014 : 
; 2015 : 		return (npos);	// no match
; 2016 : 		}
; 2017 : 
; 2018 : 	size_type find_last_of(const _Elem *_Ptr,
; 2019 : 		size_type _Off = npos) const
; 2020 : 		{	// look for one of [_Ptr, <null>) before _Off
; 2021 : 		_DEBUG_POINTER(_Ptr);
; 2022 : 		return (find_last_of(_Ptr, _Off, _Traits::length(_Ptr)));
; 2023 : 		}
; 2024 : 
; 2025 : 	size_type find_last_of(_Elem _Ch,
; 2026 : 		size_type _Off = npos) const
; 2027 : 		{	// look for _Ch before _Off
; 2028 : 		return (rfind((const _Elem *)&_Ch, _Off, 1));
; 2029 : 		}
; 2030 : 
; 2031 : 	size_type find_first_not_of(const _Myt& _Right,
; 2032 : 		size_type _Off = 0) const _NOEXCEPT
; 2033 : 		{	// look for none of _Right at or after _Off
; 2034 : 		return (find_first_not_of(_Right._Myptr(), _Off,
; 2035 : 			_Right.size()));
; 2036 : 		}
; 2037 : 
; 2038 : 	size_type find_first_not_of(const _Elem *_Ptr,
; 2039 : 		size_type _Off, size_type _Count) const
; 2040 : 		{	// look for none of [_Ptr, _Ptr + _Count) at or after _Off
; 2041 :  #if _ITERATOR_DEBUG_LEVEL == 2
; 2042 : 		if (_Count != 0)
; 2043 : 			_DEBUG_POINTER(_Ptr);
; 2044 :  #endif /* _ITERATOR_DEBUG_LEVEL == 2 */
; 2045 : 
; 2046 : 		if (_Off < this->_Mysize)
; 2047 : 			{	// room for match, look for it
; 2048 : 			const _Elem *const _Vptr = this->_Myptr() + this->_Mysize;
; 2049 : 			for (const _Elem *_Uptr = this->_Myptr() + _Off;
; 2050 : 				_Uptr < _Vptr; ++_Uptr)
; 2051 : 				if (_Traits::find(_Ptr, _Count, *_Uptr) == 0)
; 2052 : 					return (_Uptr - this->_Myptr());
; 2053 : 			}
; 2054 : 		return (npos);
; 2055 : 		}
; 2056 : 
; 2057 : 	size_type find_first_not_of(const _Elem *_Ptr,
; 2058 : 		size_type _Off = 0) const
; 2059 : 		{	// look for one of [_Ptr, <null>) at or after _Off
; 2060 : 		_DEBUG_POINTER(_Ptr);
; 2061 : 		return (find_first_not_of(_Ptr, _Off, _Traits::length(_Ptr)));
; 2062 : 		}
; 2063 : 
; 2064 : 	size_type find_first_not_of(_Elem _Ch,
; 2065 : 		size_type _Off = 0) const
; 2066 : 		{	// look for non _Ch at or after _Off
; 2067 : 		return (find_first_not_of((const _Elem *)&_Ch, _Off, 1));
; 2068 : 		}
; 2069 : 
; 2070 : 	size_type find_last_not_of(const _Myt& _Right,
; 2071 : 		size_type _Off = npos) const _NOEXCEPT
; 2072 : 		{	// look for none of _Right before _Off
; 2073 : 		return (find_last_not_of(_Right._Myptr(), _Off, _Right.size()));
; 2074 : 		}
; 2075 : 
; 2076 : 	size_type find_last_not_of(const _Elem *_Ptr,
; 2077 : 		size_type _Off, size_type _Count) const
; 2078 : 		{	// look for none of [_Ptr, _Ptr + _Count) before _Off
; 2079 :  #if _ITERATOR_DEBUG_LEVEL == 2
; 2080 : 		if (_Count != 0)
; 2081 : 			_DEBUG_POINTER(_Ptr);
; 2082 :  #endif /* _ITERATOR_DEBUG_LEVEL == 2 */
; 2083 : 
; 2084 : 		if (0 < this->_Mysize)
; 2085 : 			{	// worth searching, do it
; 2086 : 			const _Elem *_Uptr = this->_Myptr()
; 2087 : 				+ (_Off < this->_Mysize ? _Off : this->_Mysize - 1);
; 2088 : 			for (; ; --_Uptr)
; 2089 : 				if (_Traits::find(_Ptr, _Count, *_Uptr) == 0)
; 2090 : 					return (_Uptr - this->_Myptr());
; 2091 : 				else if (_Uptr == this->_Myptr())
; 2092 : 					break;
; 2093 : 			}
; 2094 : 		return (npos);
; 2095 : 		}
; 2096 : 
; 2097 : 	size_type find_last_not_of(const _Elem *_Ptr,
; 2098 : 		size_type _Off = npos) const
; 2099 : 		{	// look for none of [_Ptr, <null>) before _Off
; 2100 : 		_DEBUG_POINTER(_Ptr);
; 2101 : 		return (find_last_not_of(_Ptr, _Off, _Traits::length(_Ptr)));
; 2102 : 		}
; 2103 : 
; 2104 : 	size_type find_last_not_of(_Elem _Ch,
; 2105 : 		size_type _Off = npos) const
; 2106 : 		{	// look for non _Ch before _Off
; 2107 : 		return (find_last_not_of((const _Elem *)&_Ch, _Off, 1));
; 2108 : 		}
; 2109 : 
; 2110 : 	_Myt substr(size_type _Off = 0, size_type _Count = npos) const
; 2111 : 		{	// return [_Off, _Off + _Count) as new string
; 2112 : 		return (_Myt(*this, _Off, _Count, get_allocator()));
; 2113 : 		}
; 2114 : 
; 2115 : 	int compare(const _Myt& _Right) const _NOEXCEPT
; 2116 : 		{	// compare [0, _Mysize) with _Right
; 2117 : 		return (compare(0, this->_Mysize, _Right._Myptr(), _Right.size()));
; 2118 : 		}
; 2119 : 
; 2120 : 	int compare(size_type _Off, size_type _N0,
; 2121 : 		const _Myt& _Right) const
; 2122 : 		{	// compare [_Off, _Off + _N0) with _Right
; 2123 : 		return (compare(_Off, _N0, _Right, 0, npos));
; 2124 : 		}
; 2125 : 
; 2126 : 	int compare(size_type _Off,
; 2127 : 		size_type _N0, const _Myt& _Right,
; 2128 : 		size_type _Roff, size_type _Count) const
; 2129 : 		{	// compare [_Off, _Off + _N0) with _Right [_Roff, _Roff + _Count)
; 2130 : 		if (_Right.size() < _Roff)
; 2131 : 			_Xran();	// _Off off end
; 2132 : 		if (_Right._Mysize - _Roff < _Count)
; 2133 : 			_Count = _Right._Mysize - _Roff;	// trim _Count to size
; 2134 : 		return (compare(_Off, _N0, _Right._Myptr() + _Roff, _Count));
; 2135 : 		}
; 2136 : 
; 2137 : 	int compare(const _Elem *_Ptr) const
; 2138 : 		{	// compare [0, _Mysize) with [_Ptr, <null>)
; 2139 : 		_DEBUG_POINTER(_Ptr);
; 2140 : 		return (compare(0, this->_Mysize, _Ptr, _Traits::length(_Ptr)));
; 2141 : 		}
; 2142 : 
; 2143 : 	int compare(size_type _Off, size_type _N0, const _Elem *_Ptr) const
; 2144 : 		{	// compare [_Off, _Off + _N0) with [_Ptr, <null>)
; 2145 : 		_DEBUG_POINTER(_Ptr);
; 2146 : 		return (compare(_Off, _N0, _Ptr, _Traits::length(_Ptr)));
; 2147 : 		}
; 2148 : 
; 2149 : 	int compare(size_type _Off,
; 2150 : 		size_type _N0, const _Elem *_Ptr, size_type _Count) const
; 2151 : 		{	// compare [_Off, _Off + _N0) with [_Ptr, _Ptr + _Count)
; 2152 :  #if _ITERATOR_DEBUG_LEVEL == 2
; 2153 : 		if (_Count != 0)
; 2154 : 			_DEBUG_POINTER(_Ptr);
; 2155 :  #endif /* _ITERATOR_DEBUG_LEVEL == 2 */
; 2156 : 
; 2157 : 		if (this->_Mysize < _Off)
; 2158 : 			_Xran();	// _Off off end
; 2159 : 		if (this->_Mysize - _Off < _N0)
; 2160 : 			_N0 = this->_Mysize - _Off;	// trim _N0 to size
; 2161 : 
; 2162 : 		size_type _Ans = _Traits::compare(this->_Myptr() + _Off, _Ptr,
; 2163 : 			_N0 < _Count ? _N0 : _Count);
; 2164 : 		return (_Ans != 0 ? (int)_Ans : _N0 < _Count ? -1
; 2165 : 			: _N0 == _Count ? 0 : +1);
; 2166 : 		}
; 2167 : 
; 2168 : 	allocator_type get_allocator() const _NOEXCEPT
; 2169 : 		{	// return allocator object for values
; 2170 : 		return (this->_Getal());
; 2171 : 		}
; 2172 : 
; 2173 : 	void _Chassign(size_type _Off, size_type _Count, _Elem _Ch)
; 2174 : 		{	// assign _Count copies of _Ch beginning at _Off
; 2175 : 		if (_Count == 1)
; 2176 : 			_Traits::assign(*(this->_Myptr() + _Off), _Ch);
; 2177 : 		else
; 2178 : 			_Traits::assign(this->_Myptr() + _Off, _Count, _Ch);
; 2179 : 		}
; 2180 : 
; 2181 : 	void _Copy(size_type _Newsize, size_type _Oldlen)
; 2182 : 		{	// copy _Oldlen elements to newly allocated buffer
; 2183 : 		size_type _Newres = _Newsize | this->_ALLOC_MASK;
; 2184 : 		if (max_size() < _Newres)
; 2185 : 			_Newres = _Newsize;	// undo roundup if too big
; 2186 : 		else if (this->_Myres / 2 <= _Newres / 3)
; 2187 : 			;
; 2188 : 		else if (this->_Myres <= max_size() - this->_Myres / 2)
; 2189 : 			_Newres = this->_Myres
; 2190 : 				+ this->_Myres / 2;	// grow exponentially if possible
; 2191 : 		else
; 2192 : 			_Newres = max_size();	// settle for max_size()
; 2193 : 
; 2194 : 		_Elem *_Ptr;
; 2195 : 		_TRY_BEGIN
; 2196 : 			_Ptr = this->_Getal().allocate(_Newres + 1);
; 2197 : 		_CATCH_ALL
; 2198 : 			_Newres = _Newsize;	// allocation failed, undo roundup and retry
; 2199 : 			_TRY_BEGIN
; 2200 : 				_Ptr = this->_Getal().allocate(_Newres + 1);
; 2201 : 			_CATCH_ALL
; 2202 : 			_Tidy(true);	// failed again, discard storage and reraise
; 2203 : 			_RERAISE;
; 2204 : 			_CATCH_END
; 2205 : 		_CATCH_END
; 2206 : 
; 2207 : 		if (0 < _Oldlen)
; 2208 : 			_Traits::copy(_Ptr, this->_Myptr(),
; 2209 : 				_Oldlen);	// copy existing elements
; 2210 : 		_Tidy(true);
; 2211 : 		this->_Getal().construct(&this->_Bx._Ptr, _Ptr);
; 2212 : 		this->_Myres = _Newres;
; 2213 : 		_Eos(_Oldlen);
; 2214 : 		}
; 2215 : 
; 2216 : 	void _Eos(size_type _Newsize)
; 2217 : 		{	// set new length and null terminator
; 2218 : 		_Traits::assign(this->_Myptr()[this->_Mysize = _Newsize], _Elem());

  000d4	89 7e 10	 mov	 DWORD PTR [esi+16], edi

; 517  : 			: this->_Bx._Buf);

  000d7	72 0f		 jb	 SHORT $LN108@assign
; File c:\program files (x86)\microsoft visual studio 11.0\vc\include\xstddef

; 88   : 		reinterpret_cast<const volatile char&>(_Val)))));

  000d9	8b 06		 mov	 eax, DWORD PTR [esi]
; File c:\program files (x86)\microsoft visual studio 11.0\vc\include\iosfwd

; 564  : 		_Left = _Right;

  000db	c6 04 38 00	 mov	 BYTE PTR [eax+edi], 0
  000df	5f		 pop	 edi
; File c:\program files (x86)\microsoft visual studio 11.0\vc\include\xstring

; 1138 : 		return (*this);

  000e0	8b c6		 mov	 eax, esi
  000e2	5e		 pop	 esi
  000e3	5b		 pop	 ebx

; 1139 : 		}

  000e4	5d		 pop	 ebp
  000e5	c2 08 00	 ret	 8
$LN108@assign:

; 517  : 			: this->_Bx._Buf);

  000e8	8b c6		 mov	 eax, esi
; File c:\program files (x86)\microsoft visual studio 11.0\vc\include\iosfwd

; 564  : 		_Left = _Right;

  000ea	c6 04 38 00	 mov	 BYTE PTR [eax+edi], 0
$LN112@assign:
  000ee	5f		 pop	 edi
; File c:\program files (x86)\microsoft visual studio 11.0\vc\include\xstring

; 1138 : 		return (*this);

  000ef	8b c6		 mov	 eax, esi
  000f1	5e		 pop	 esi
  000f2	5b		 pop	 ebx

; 1139 : 		}

  000f3	5d		 pop	 ebp
  000f4	c2 08 00	 ret	 8
$LN118@assign:
?assign@?$basic_string@DU?$char_traits@D@std@@V?$allocator@D@2@@std@@QAEAAV12@PBDI@Z ENDP ; std::basic_string<char,std::char_traits<char>,std::allocator<char> >::assign
_TEXT	ENDS
; Function compile flags: /Ogtp
; File c:\program files (x86)\microsoft visual studio 11.0\vc\include\xstring
; File c:\program files (x86)\microsoft visual studio 11.0\vc\include\xstddef
; File c:\program files (x86)\microsoft visual studio 11.0\vc\include\iosfwd
; File c:\program files (x86)\microsoft visual studio 11.0\vc\include\xstring
; File c:\program files (x86)\microsoft visual studio 11.0\vc\include\iosfwd
; File c:\program files (x86)\microsoft visual studio 11.0\vc\include\xstring
;	COMDAT ?_Eos@?$basic_string@DU?$char_traits@D@std@@V?$allocator@D@2@@std@@QAEXI@Z
_TEXT	SEGMENT
__Newsize$ = 8						; size = 4
?_Eos@?$basic_string@DU?$char_traits@D@std@@V?$allocator@D@2@@std@@QAEXI@Z PROC ; std::basic_string<char,std::char_traits<char>,std::allocator<char> >::_Eos, COMDAT
; _this$ = ecx

; 2217 : 		{	// set new length and null terminator

  00000	55		 push	 ebp
  00001	8b ec		 mov	 ebp, esp

; 517  : 			: this->_Bx._Buf);

  00003	83 79 14 10	 cmp	 DWORD PTR [ecx+20], 16	; 00000010H

; 2218 : 		_Traits::assign(this->_Myptr()[this->_Mysize = _Newsize], _Elem());

  00007	8b 55 08	 mov	 edx, DWORD PTR __Newsize$[ebp]
  0000a	89 51 10	 mov	 DWORD PTR [ecx+16], edx

; 517  : 			: this->_Bx._Buf);

  0000d	72 0a		 jb	 SHORT $LN5@Eos
; File c:\program files (x86)\microsoft visual studio 11.0\vc\include\xstddef

; 88   : 		reinterpret_cast<const volatile char&>(_Val)))));

  0000f	8b 01		 mov	 eax, DWORD PTR [ecx]
; File c:\program files (x86)\microsoft visual studio 11.0\vc\include\iosfwd

; 564  : 		_Left = _Right;

  00011	c6 04 10 00	 mov	 BYTE PTR [eax+edx], 0
; File c:\program files (x86)\microsoft visual studio 11.0\vc\include\xstring

; 2219 : 		}

  00015	5d		 pop	 ebp
  00016	c2 04 00	 ret	 4
$LN5@Eos:
; File c:\program files (x86)\microsoft visual studio 11.0\vc\include\iosfwd

; 564  : 		_Left = _Right;

  00019	c6 04 11 00	 mov	 BYTE PTR [ecx+edx], 0
; File c:\program files (x86)\microsoft visual studio 11.0\vc\include\xstring

; 2219 : 		}

  0001d	5d		 pop	 ebp
  0001e	c2 04 00	 ret	 4
?_Eos@?$basic_string@DU?$char_traits@D@std@@V?$allocator@D@2@@std@@QAEXI@Z ENDP ; std::basic_string<char,std::char_traits<char>,std::allocator<char> >::_Eos
_TEXT	ENDS
; Function compile flags: /Ogtp
; File c:\program files (x86)\microsoft visual studio 11.0\vc\include\xstring
;	COMDAT ?_Xran@?$basic_string@DU?$char_traits@D@std@@V?$allocator@D@2@@std@@QBEXXZ
_TEXT	SEGMENT
?_Xran@?$basic_string@DU?$char_traits@D@std@@V?$allocator@D@2@@std@@QBEXXZ PROC ; std::basic_string<char,std::char_traits<char>,std::allocator<char> >::_Xran, COMDAT
; _this$dead$ = ecx

; 2276 : 		_Xout_of_range("invalid string position");

  00000	68 00 00 00 00	 push	 OFFSET ??_C@_0BI@CFPLBAOH@invalid?5string?5position?$AA@
  00005	ff 15 00 00 00
	00		 call	 DWORD PTR __imp_?_Xout_of_range@std@@YAXPBD@Z
$LN4@Xran:
$LN3@Xran:
  0000b	cc		 int	 3
?_Xran@?$basic_string@DU?$char_traits@D@std@@V?$allocator@D@2@@std@@QBEXXZ ENDP ; std::basic_string<char,std::char_traits<char>,std::allocator<char> >::_Xran
_TEXT	ENDS
; Function compile flags: /Ogtp
; File c:\program files (x86)\microsoft visual studio 11.0\vc\include\xmemory0
;	COMDAT ??0?$_Wrap_alloc@V?$allocator@D@std@@@std@@QAE@XZ
_TEXT	SEGMENT
??0?$_Wrap_alloc@V?$allocator@D@std@@@std@@QAE@XZ PROC	; std::_Wrap_alloc<std::allocator<char> >::_Wrap_alloc<std::allocator<char> >, COMDAT
; _this$ = ecx

; 831  : 		}

  00000	8b c1		 mov	 eax, ecx
  00002	c3		 ret	 0
??0?$_Wrap_alloc@V?$allocator@D@std@@@std@@QAE@XZ ENDP	; std::_Wrap_alloc<std::allocator<char> >::_Wrap_alloc<std::allocator<char> >
_TEXT	ENDS
; Function compile flags: /Ogtp
; File c:\program files (x86)\microsoft visual studio 11.0\vc\include\xmemory0
;	COMDAT ?deallocate@?$_Wrap_alloc@V?$allocator@D@std@@@std@@QAEXPADI@Z
_TEXT	SEGMENT
__Ptr$ = 8						; size = 4
__Count$dead$ = 12					; size = 4
?deallocate@?$_Wrap_alloc@V?$allocator@D@std@@@std@@QAEXPADI@Z PROC ; std::_Wrap_alloc<std::allocator<char> >::deallocate, COMDAT
; _this$dead$ = ecx

; 886  : 		{	// deallocate object at _Ptr, ignore size

  00000	55		 push	 ebp
  00001	8b ec		 mov	 ebp, esp

; 586  : 		::operator delete(_Ptr);

  00003	ff 75 08	 push	 DWORD PTR __Ptr$[ebp]
  00006	ff 15 00 00 00
	00		 call	 DWORD PTR __imp_??3@YAXPAX@Z
  0000c	83 c4 04	 add	 esp, 4

; 887  : 		_Mybase::deallocate(_Ptr, _Count);
; 888  : 		}

  0000f	5d		 pop	 ebp
  00010	c2 08 00	 ret	 8
?deallocate@?$_Wrap_alloc@V?$allocator@D@std@@@std@@QAEXPADI@Z ENDP ; std::_Wrap_alloc<std::allocator<char> >::deallocate
_TEXT	ENDS
; Function compile flags: /Ogtp
; File c:\program files (x86)\microsoft visual studio 11.0\vc\include\xstring
;	COMDAT ??0?$_String_val@U?$_Simple_types@D@std@@@std@@QAE@XZ
_TEXT	SEGMENT
??0?$_String_val@U?$_Simple_types@D@std@@@std@@QAE@XZ PROC ; std::_String_val<std::_Simple_types<char> >::_String_val<std::_Simple_types<char> >, COMDAT
; _this$ = ecx

; 497  : 		{	// initialize values
; 498  : 		_Mysize = 0;

  00000	c7 41 10 00 00
	00 00		 mov	 DWORD PTR [ecx+16], 0

; 499  : 		_Myres = 0;

  00007	c7 41 14 00 00
	00 00		 mov	 DWORD PTR [ecx+20], 0

; 500  : 		}

  0000e	8b c1		 mov	 eax, ecx
  00010	c3		 ret	 0
??0?$_String_val@U?$_Simple_types@D@std@@@std@@QAE@XZ ENDP ; std::_String_val<std::_Simple_types<char> >::_String_val<std::_Simple_types<char> >
_TEXT	ENDS
; Function compile flags: /Ogtp
; File c:\program files (x86)\microsoft visual studio 11.0\vc\include\ostream
;	COMDAT ??0_Sentry_base@?$basic_ostream@DU?$char_traits@D@std@@@std@@QAE@AAV12@@Z
_TEXT	SEGMENT
__Ostr$ = 8						; size = 4
??0_Sentry_base@?$basic_ostream@DU?$char_traits@D@std@@@std@@QAE@AAV12@@Z PROC ; std::basic_ostream<char,std::char_traits<char> >::_Sentry_base::_Sentry_base, COMDAT
; _this$ = ecx

; 103  : 			{	// lock the stream buffer, if there

  00000	55		 push	 ebp
  00001	8b ec		 mov	 ebp, esp
  00003	8b 55 08	 mov	 edx, DWORD PTR __Ostr$[ebp]
  00006	56		 push	 esi
  00007	8b f1		 mov	 esi, ecx
  00009	89 16		 mov	 DWORD PTR [esi], edx

; 104  : 			if (_Myostr.rdbuf() != 0)

  0000b	8b 02		 mov	 eax, DWORD PTR [edx]
  0000d	8b 40 04	 mov	 eax, DWORD PTR [eax+4]
  00010	8b 4c 10 38	 mov	 ecx, DWORD PTR [eax+edx+56]
  00014	85 c9		 test	 ecx, ecx
  00016	74 05		 je	 SHORT $LN8@Sentry_bas

; 105  : 				_Myostr.rdbuf()->_Lock();

  00018	8b 01		 mov	 eax, DWORD PTR [ecx]
  0001a	ff 50 04	 call	 DWORD PTR [eax+4]
$LN8@Sentry_bas:

; 106  : 			}

  0001d	8b c6		 mov	 eax, esi
  0001f	5e		 pop	 esi
  00020	5d		 pop	 ebp
  00021	c2 04 00	 ret	 4
??0_Sentry_base@?$basic_ostream@DU?$char_traits@D@std@@@std@@QAE@AAV12@@Z ENDP ; std::basic_ostream<char,std::char_traits<char> >::_Sentry_base::_Sentry_base
_TEXT	ENDS
; Function compile flags: /Ogtp
; File c:\program files (x86)\microsoft visual studio 11.0\vc\include\ostream
;	COMDAT ??1_Sentry_base@?$basic_ostream@DU?$char_traits@D@std@@@std@@QAE@XZ
_TEXT	SEGMENT
??1_Sentry_base@?$basic_ostream@DU?$char_traits@D@std@@@std@@QAE@XZ PROC ; std::basic_ostream<char,std::char_traits<char> >::_Sentry_base::~_Sentry_base, COMDAT
; _this$ = ecx

; 110  : 			if (_Myostr.rdbuf() != 0)

  00000	8b 09		 mov	 ecx, DWORD PTR [ecx]
  00002	8b 01		 mov	 eax, DWORD PTR [ecx]
  00004	8b 40 04	 mov	 eax, DWORD PTR [eax+4]
  00007	8b 4c 08 38	 mov	 ecx, DWORD PTR [eax+ecx+56]
  0000b	85 c9		 test	 ecx, ecx
  0000d	74 05		 je	 SHORT $LN1@Sentry_bas

; 111  : 				_Myostr.rdbuf()->_Unlock();

  0000f	8b 01		 mov	 eax, DWORD PTR [ecx]
  00011	ff 60 08	 jmp	 DWORD PTR [eax+8]
$LN1@Sentry_bas:

; 112  : 			}

  00014	c3		 ret	 0
??1_Sentry_base@?$basic_ostream@DU?$char_traits@D@std@@@std@@QAE@XZ ENDP ; std::basic_ostream<char,std::char_traits<char> >::_Sentry_base::~_Sentry_base
_TEXT	ENDS
; Function compile flags: /Ogtp
; File c:\program files (x86)\microsoft visual studio 11.0\vc\include\xstring
; File c:\program files (x86)\microsoft visual studio 11.0\vc\include\xstddef
; File c:\program files (x86)\microsoft visual studio 11.0\vc\include\xstring
; File c:\program files (x86)\microsoft visual studio 11.0\vc\include\iosfwd
; File c:\program files (x86)\microsoft visual studio 11.0\vc\include\xstring
; File c:\program files (x86)\microsoft visual studio 11.0\vc\include\iosfwd
; File c:\program files (x86)\microsoft visual studio 11.0\vc\include\xstring
; File c:\program files (x86)\microsoft visual studio 11.0\vc\include\xstddef
; File c:\program files (x86)\microsoft visual studio 11.0\vc\include\xstring
; File c:\program files (x86)\microsoft visual studio 11.0\vc\include\xstddef
; File c:\program files (x86)\microsoft visual studio 11.0\vc\include\xstring
; File c:\program files (x86)\microsoft visual studio 11.0\vc\include\iosfwd
; File c:\program files (x86)\microsoft visual studio 11.0\vc\include\xstring
; File c:\program files (x86)\microsoft visual studio 11.0\vc\include\iosfwd
; File c:\program files (x86)\microsoft visual studio 11.0\vc\include\xstring
; File c:\program files (x86)\microsoft visual studio 11.0\vc\include\iosfwd
; File c:\program files (x86)\microsoft visual studio 11.0\vc\include\xstring
; File c:\program files (x86)\microsoft visual studio 11.0\vc\include\xstddef
; File c:\program files (x86)\microsoft visual studio 11.0\vc\include\iosfwd
; File c:\program files (x86)\microsoft visual studio 11.0\vc\include\xstring
; File c:\program files (x86)\microsoft visual studio 11.0\vc\include\iosfwd
; File c:\program files (x86)\microsoft visual studio 11.0\vc\include\xstring
;	COMDAT ?assign@?$basic_string@DU?$char_traits@D@std@@V?$allocator@D@2@@std@@QAEAAV12@ABV12@II@Z
_TEXT	SEGMENT
__Right$ = 8						; size = 4
__Roff$ = 12						; size = 4
__Count$ = 16						; size = 4
?assign@?$basic_string@DU?$char_traits@D@std@@V?$allocator@D@2@@std@@QAEAAV12@ABV12@II@Z PROC ; std::basic_string<char,std::char_traits<char>,std::allocator<char> >::assign, COMDAT
; _this$ = ecx

; 1104 : 		{	// assign _Right [_Roff, _Roff + _Count)

  00000	55		 push	 ebp
  00001	8b ec		 mov	 ebp, esp
  00003	53		 push	 ebx

; 1105 : 		if (_Right.size() < _Roff)

  00004	8b 5d 08	 mov	 ebx, DWORD PTR __Right$[ebp]
  00007	56		 push	 esi
  00008	57		 push	 edi
  00009	8b 7b 10	 mov	 edi, DWORD PTR [ebx+16]
  0000c	8b f1		 mov	 esi, ecx
  0000e	8b 4d 0c	 mov	 ecx, DWORD PTR __Roff$[ebp]
  00011	3b f9		 cmp	 edi, ecx
  00013	73 0b		 jae	 SHORT $LN5@assign

; 2219 : 		}
; 2220 : 
; 2221 : 	bool _Grow(size_type _Newsize,
; 2222 : 		bool _Trim = false)
; 2223 : 		{	// ensure buffer is big enough, trim to size if _Trim is true
; 2224 : 		if (max_size() < _Newsize)
; 2225 : 			_Xlen();	// result too long
; 2226 : 		if (this->_Myres < _Newsize)
; 2227 : 			_Copy(_Newsize, this->_Mysize);	// reallocate to grow
; 2228 : 		else if (_Trim && _Newsize < this->_BUF_SIZE)
; 2229 : 			_Tidy(true,	// copy and deallocate if trimming to small string
; 2230 : 				_Newsize < this->_Mysize ? _Newsize : this->_Mysize);
; 2231 : 		else if (_Newsize == 0)
; 2232 : 			_Eos(0);	// new size is zero, just null terminate
; 2233 : 		return (0 < _Newsize);	// return true only if more work to do
; 2234 : 		}
; 2235 : 
; 2236 : 	bool _Inside(const _Elem *_Ptr)
; 2237 : 		{	// test if _Ptr points inside string
; 2238 : 		if (_Ptr == 0 || _Ptr < this->_Myptr()
; 2239 : 			|| this->_Myptr() + this->_Mysize <= _Ptr)
; 2240 : 			return (false);	// don't ask
; 2241 : 		else
; 2242 : 			return (true);
; 2243 : 		}
; 2244 : 
; 2245 : 	static size_type _Pdif(const_iterator _P2,
; 2246 : 		const_iterator _P1)
; 2247 : 		{	// compute safe iterator difference
; 2248 : 		return (_STRING_ITER_BASE(_P2) == 0 ? 0 : _P2 - _P1);
; 2249 : 		}
; 2250 : 
; 2251 : 	void _Tidy(bool _Built = false,
; 2252 : 		size_type _Newsize = 0)
; 2253 : 		{	// initialize buffer, deallocating any storage
; 2254 : 		if (!_Built)
; 2255 : 			;
; 2256 : 		else if (this->_BUF_SIZE <= this->_Myres)
; 2257 : 			{	// copy any leftovers to small buffer and deallocate
; 2258 : 			pointer _Ptr = this->_Bx._Ptr;
; 2259 : 			this->_Getal().destroy(&this->_Bx._Ptr);
; 2260 : 			if (0 < _Newsize)
; 2261 : 				_Traits::copy(this->_Bx._Buf,
; 2262 : 					_STD addressof(*_Ptr), _Newsize);
; 2263 : 			this->_Getal().deallocate(_Ptr, this->_Myres + 1);
; 2264 : 			}
; 2265 : 		this->_Myres = this->_BUF_SIZE - 1;
; 2266 : 		_Eos(_Newsize);
; 2267 : 		}
; 2268 : 
; 2269 : 	__declspec(noreturn) void _Xlen() const
; 2270 : 		{	// report a length_error
; 2271 : 		_Xlength_error("string too long");
; 2272 : 		}
; 2273 : 
; 2274 : 	__declspec(noreturn) void _Xran() const
; 2275 : 		{	// report an out_of_range error
; 2276 : 		_Xout_of_range("invalid string position");

  00015	68 00 00 00 00	 push	 OFFSET ??_C@_0BI@CFPLBAOH@invalid?5string?5position?$AA@
  0001a	ff 15 00 00 00
	00		 call	 DWORD PTR __imp_?_Xout_of_range@std@@YAXPBD@Z
$LN59@assign:
$LN5@assign:

; 1106 : 			_Xran();	// _Roff off end
; 1107 : 		size_type _Num = _Right.size() - _Roff;

  00020	2b f9		 sub	 edi, ecx

; 1108 : 		if (_Count < _Num)

  00022	39 7d 10	 cmp	 DWORD PTR __Count$[ebp], edi
  00025	0f 42 7d 10	 cmovb	 edi, DWORD PTR __Count$[ebp]

; 1109 : 			_Num = _Count;	// trim _Num to size
; 1110 : 
; 1111 : 		if (this == &_Right)

  00029	3b f3		 cmp	 esi, ebx
  0002b	75 4c		 jne	 SHORT $LN3@assign

; 1112 : 			erase((size_type)(_Roff + _Num)), erase(0, _Roff);	// substring

  0002d	8d 04 0f	 lea	 eax, DWORD PTR [edi+ecx]

; 1121 : 
; 1122 : 	_Myt& assign(const _Elem *_Ptr, size_type _Count)
; 1123 : 		{	// assign [_Ptr, _Ptr + _Count)
; 1124 :  #if _ITERATOR_DEBUG_LEVEL == 2
; 1125 : 		if (_Count != 0)
; 1126 : 			_DEBUG_POINTER(_Ptr);
; 1127 :  #endif /* _ITERATOR_DEBUG_LEVEL == 2 */
; 1128 : 
; 1129 : 		if (_Inside(_Ptr))
; 1130 : 			return (assign(*this,
; 1131 : 				_Ptr - this->_Myptr(), _Count));	// substring
; 1132 : 
; 1133 : 		if (_Grow(_Count))
; 1134 : 			{	// make room and assign new stuff
; 1135 : 			_Traits::copy(this->_Myptr(), _Ptr, _Count);
; 1136 : 			_Eos(_Count);
; 1137 : 			}
; 1138 : 		return (*this);
; 1139 : 		}
; 1140 : 
; 1141 : 	_Myt& assign(const _Elem *_Ptr)
; 1142 : 		{	// assign [_Ptr, <null>)
; 1143 : 		_DEBUG_POINTER(_Ptr);
; 1144 : 		return (assign(_Ptr, _Traits::length(_Ptr)));
; 1145 : 		}
; 1146 : 
; 1147 : 	_Myt& assign(size_type _Count, _Elem _Ch)
; 1148 : 		{	// assign _Count * _Ch
; 1149 : 		if (_Count == npos)
; 1150 : 			_Xlen();	// result too long
; 1151 : 
; 1152 : 		if (_Grow(_Count))
; 1153 : 			{	// make room and assign new stuff
; 1154 : 			_Chassign(0, _Count, _Ch);
; 1155 : 			_Eos(_Count);
; 1156 : 			}
; 1157 : 		return (*this);
; 1158 : 		}
; 1159 : 
; 1160 : 	template<class _Iter>
; 1161 : 		typename enable_if<_Is_iterator<_Iter>::value,
; 1162 : 			_Myt&>::type
; 1163 : 		assign(_Iter _First, _Iter _Last)
; 1164 : 		{	// assign [First, _Last), input iterators
; 1165 : 		return (replace(begin(), end(), _First, _Last));
; 1166 : 		}
; 1167 : 
; 1168 : 	_Myt& assign(const_pointer _First, const_pointer _Last)
; 1169 : 		{	// assign [First, _Last), const pointers
; 1170 : 		return (replace(begin(), end(), _First, _Last));
; 1171 : 		}
; 1172 : 
; 1173 : 	_Myt& assign(const_iterator _First, const_iterator _Last)
; 1174 : 		{	// assign [First, _Last), const_iterators
; 1175 : 		return (replace(begin(), end(), _First, _Last));
; 1176 : 		}
; 1177 : 
; 1178 : 	_Myt& insert(size_type _Off, const _Myt& _Right)
; 1179 : 		{	// insert _Right at _Off
; 1180 : 		return (insert(_Off, _Right, 0, npos));
; 1181 : 		}
; 1182 : 
; 1183 : 	_Myt& insert(size_type _Off,
; 1184 : 		const _Myt& _Right, size_type _Roff, size_type _Count)
; 1185 : 		{	// insert _Right [_Roff, _Roff + _Count) at _Off
; 1186 : 		if (this->_Mysize < _Off || _Right.size() < _Roff)
; 1187 : 			_Xran();	// _Off or _Roff off end
; 1188 : 		size_type _Num = _Right.size() - _Roff;
; 1189 : 		if (_Num < _Count)
; 1190 : 			_Count = _Num;	// trim _Count to size
; 1191 : 		if (npos - this->_Mysize <= _Count)
; 1192 : 			_Xlen();	// result too long
; 1193 : 
; 1194 : 		if (0 < _Count && _Grow(_Num = this->_Mysize + _Count))
; 1195 : 			{	// make room and insert new stuff
; 1196 : 			_Traits::move(this->_Myptr() + _Off + _Count,
; 1197 : 				this->_Myptr() + _Off,
; 1198 : 				this->_Mysize - _Off);	// empty out hole
; 1199 : 			if (this == &_Right)
; 1200 : 				_Traits::move(this->_Myptr() + _Off,
; 1201 : 					this->_Myptr() + (_Off < _Roff ? _Roff + _Count : _Roff),
; 1202 : 						_Count);	// substring
; 1203 : 			else
; 1204 : 				_Traits::copy(this->_Myptr() + _Off,
; 1205 : 					_Right._Myptr() + _Roff, _Count);	// fill hole
; 1206 : 			_Eos(_Num);
; 1207 : 			}
; 1208 : 		return (*this);
; 1209 : 		}
; 1210 : 
; 1211 : 	_Myt& insert(size_type _Off,
; 1212 : 		const _Elem *_Ptr, size_type _Count)
; 1213 : 		{	// insert [_Ptr, _Ptr + _Count) at _Off
; 1214 :  #if _ITERATOR_DEBUG_LEVEL == 2
; 1215 : 		if (_Count != 0)
; 1216 : 			_DEBUG_POINTER(_Ptr);
; 1217 :  #endif /* _ITERATOR_DEBUG_LEVEL == 2 */
; 1218 : 
; 1219 : 		if (_Inside(_Ptr))
; 1220 : 			return (insert(_Off, *this,
; 1221 : 				_Ptr - this->_Myptr(), _Count));	// substring
; 1222 : 		if (this->_Mysize < _Off)
; 1223 : 			_Xran();	// _Off off end
; 1224 : 		if (npos - this->_Mysize <= _Count)
; 1225 : 			_Xlen();	// result too long
; 1226 : 		size_type _Num;
; 1227 : 		if (0 < _Count && _Grow(_Num = this->_Mysize + _Count))
; 1228 : 			{	// make room and insert new stuff
; 1229 : 			_Traits::move(this->_Myptr() + _Off + _Count,
; 1230 : 				this->_Myptr() + _Off,
; 1231 : 				this->_Mysize - _Off);	// empty out hole
; 1232 : 			_Traits::copy(this->_Myptr() + _Off, _Ptr, _Count);	// fill hole
; 1233 : 			_Eos(_Num);
; 1234 : 			}
; 1235 : 		return (*this);
; 1236 : 		}
; 1237 : 
; 1238 : 	_Myt& insert(size_type _Off, const _Elem *_Ptr)
; 1239 : 		{	// insert [_Ptr, <null>) at _Off
; 1240 : 		_DEBUG_POINTER(_Ptr);
; 1241 : 		return (insert(_Off, _Ptr, _Traits::length(_Ptr)));
; 1242 : 		}
; 1243 : 
; 1244 : 	_Myt& insert(size_type _Off,
; 1245 : 		size_type _Count, _Elem _Ch)
; 1246 : 		{	// insert _Count * _Ch at _Off
; 1247 : 		if (this->_Mysize < _Off)
; 1248 : 			_Xran();	// _Off off end
; 1249 : 		if (npos - this->_Mysize <= _Count)
; 1250 : 			_Xlen();	// result too long
; 1251 : 		size_type _Num;
; 1252 : 		if (0 < _Count && _Grow(_Num = this->_Mysize + _Count))
; 1253 : 			{	// make room and insert new stuff
; 1254 : 			_Traits::move(this->_Myptr() + _Off + _Count,
; 1255 : 				this->_Myptr() + _Off,
; 1256 : 				this->_Mysize - _Off);	// empty out hole
; 1257 : 			_Chassign(_Off, _Count, _Ch);	// fill hole
; 1258 : 			_Eos(_Num);
; 1259 : 			}
; 1260 : 		return (*this);
; 1261 : 		}
; 1262 : 
; 1263 : 	iterator insert(const_iterator _Where)
; 1264 : 		{	// insert <null> at _Where
; 1265 : 		return (insert(_Where, _Elem()));
; 1266 : 		}
; 1267 : 
; 1268 : 	iterator insert(const_iterator _Where, _Elem _Ch)
; 1269 : 		{	// insert _Ch at _Where
; 1270 : 		size_type _Off = _Pdif(_Where, begin());
; 1271 : 		insert(_Off, 1, _Ch);
; 1272 : 		return (begin() + _Off);
; 1273 : 		}
; 1274 : 
; 1275 : 	iterator insert(const_iterator _Where, size_type _Count, _Elem _Ch)
; 1276 : 		{	// insert _Count * _Elem at _Where
; 1277 : 		size_type _Off = _Pdif(_Where, begin());
; 1278 : 		insert(_Off, _Count, _Ch);
; 1279 : 		return (begin() + _Off);
; 1280 : 		}
; 1281 : 
; 1282 : 	template<class _Iter>
; 1283 : 		typename enable_if<_Is_iterator<_Iter>::value,
; 1284 : 			iterator>::type
; 1285 : 		insert(const_iterator _Where, _Iter _First, _Iter _Last)
; 1286 : 		{	// insert [_First, _Last) at _Where, input iterators
; 1287 : 		size_type _Off = _Pdif(_Where, begin());
; 1288 : 		replace(_Where, _Where, _First, _Last);
; 1289 : 		return (begin() + _Off);
; 1290 : 		}
; 1291 : 
; 1292 : 	iterator insert(const_iterator _Where,
; 1293 : 		const_pointer _First, const_pointer _Last)
; 1294 : 		{	// insert [_First, _Last) at _Where, const pointers
; 1295 : 		size_type _Off = _Pdif(_Where, begin());
; 1296 : 		replace(_Where, _Where, _First, _Last);
; 1297 : 		return (begin() + _Off);
; 1298 : 		}
; 1299 : 
; 1300 : 	iterator insert(const_iterator _Where,
; 1301 : 		const_iterator _First, const_iterator _Last)
; 1302 : 		{	// insert [_First, _Last) at _Where, const_iterators
; 1303 : 		size_type _Off = _Pdif(_Where, begin());
; 1304 : 		replace(_Where, _Where, _First, _Last);
; 1305 : 		return (begin() + _Off);
; 1306 : 		}
; 1307 : 
; 1308 : 	_Myt& erase(size_type _Off = 0)
; 1309 : 		{	// erase elements [_Off, ...)
; 1310 : 		if (this->_Mysize < _Off)

  00030	39 46 10	 cmp	 DWORD PTR [esi+16], eax
  00033	73 0b		 jae	 SHORT $LN15@assign

; 2219 : 		}
; 2220 : 
; 2221 : 	bool _Grow(size_type _Newsize,
; 2222 : 		bool _Trim = false)
; 2223 : 		{	// ensure buffer is big enough, trim to size if _Trim is true
; 2224 : 		if (max_size() < _Newsize)
; 2225 : 			_Xlen();	// result too long
; 2226 : 		if (this->_Myres < _Newsize)
; 2227 : 			_Copy(_Newsize, this->_Mysize);	// reallocate to grow
; 2228 : 		else if (_Trim && _Newsize < this->_BUF_SIZE)
; 2229 : 			_Tidy(true,	// copy and deallocate if trimming to small string
; 2230 : 				_Newsize < this->_Mysize ? _Newsize : this->_Mysize);
; 2231 : 		else if (_Newsize == 0)
; 2232 : 			_Eos(0);	// new size is zero, just null terminate
; 2233 : 		return (0 < _Newsize);	// return true only if more work to do
; 2234 : 		}
; 2235 : 
; 2236 : 	bool _Inside(const _Elem *_Ptr)
; 2237 : 		{	// test if _Ptr points inside string
; 2238 : 		if (_Ptr == 0 || _Ptr < this->_Myptr()
; 2239 : 			|| this->_Myptr() + this->_Mysize <= _Ptr)
; 2240 : 			return (false);	// don't ask
; 2241 : 		else
; 2242 : 			return (true);
; 2243 : 		}
; 2244 : 
; 2245 : 	static size_type _Pdif(const_iterator _P2,
; 2246 : 		const_iterator _P1)
; 2247 : 		{	// compute safe iterator difference
; 2248 : 		return (_STRING_ITER_BASE(_P2) == 0 ? 0 : _P2 - _P1);
; 2249 : 		}
; 2250 : 
; 2251 : 	void _Tidy(bool _Built = false,
; 2252 : 		size_type _Newsize = 0)
; 2253 : 		{	// initialize buffer, deallocating any storage
; 2254 : 		if (!_Built)
; 2255 : 			;
; 2256 : 		else if (this->_BUF_SIZE <= this->_Myres)
; 2257 : 			{	// copy any leftovers to small buffer and deallocate
; 2258 : 			pointer _Ptr = this->_Bx._Ptr;
; 2259 : 			this->_Getal().destroy(&this->_Bx._Ptr);
; 2260 : 			if (0 < _Newsize)
; 2261 : 				_Traits::copy(this->_Bx._Buf,
; 2262 : 					_STD addressof(*_Ptr), _Newsize);
; 2263 : 			this->_Getal().deallocate(_Ptr, this->_Myres + 1);
; 2264 : 			}
; 2265 : 		this->_Myres = this->_BUF_SIZE - 1;
; 2266 : 		_Eos(_Newsize);
; 2267 : 		}
; 2268 : 
; 2269 : 	__declspec(noreturn) void _Xlen() const
; 2270 : 		{	// report a length_error
; 2271 : 		_Xlength_error("string too long");
; 2272 : 		}
; 2273 : 
; 2274 : 	__declspec(noreturn) void _Xran() const
; 2275 : 		{	// report an out_of_range error
; 2276 : 		_Xout_of_range("invalid string position");

  00035	68 00 00 00 00	 push	 OFFSET ??_C@_0BI@CFPLBAOH@invalid?5string?5position?$AA@
  0003a	ff 15 00 00 00
	00		 call	 DWORD PTR __imp_?_Xout_of_range@std@@YAXPBD@Z
$LN60@assign:
$LN15@assign:

; 517  : 			: this->_Bx._Buf);

  00040	83 7e 14 10	 cmp	 DWORD PTR [esi+20], 16	; 00000010H

; 1311 : 			_Xran();	// _Off off end
; 1312 : 		_Eos(_Off);
; 1313 : 		return (*this);
; 1314 : 		}
; 1315 : 
; 1316 : 	_Myt& erase(size_type _Off, size_type _Count)
; 1317 : 		{	// erase elements [_Off, _Off + _Count)
; 1318 : 		if (this->_Mysize < _Off)
; 1319 : 			_Xran();	// _Off off end
; 1320 : 		if (this->_Mysize - _Off <= _Count)
; 1321 : 			_Eos(_Off);	// erase elements [_Off, ...)
; 1322 : 		else if (0 < _Count)
; 1323 : 			{	// move elements down
; 1324 : 			value_type *_Ptr = this->_Myptr() + _Off;
; 1325 : 			size_type _Newsize = this->_Mysize - _Count;
; 1326 : 			_Traits::move(_Ptr, _Ptr + _Count, _Newsize - _Off);
; 1327 : 			_Eos(_Newsize);
; 1328 : 			}
; 1329 : 		return (*this);
; 1330 : 		}
; 1331 : 
; 1332 : 	iterator erase(const_iterator _Where)
; 1333 : 		{	// erase element at _Where
; 1334 : 		size_type _Count = _Pdif(_Where, begin());
; 1335 : 		erase(_Count, 1);
; 1336 : 		return (_STRING_ITERATOR(this->_Myptr() + _Count));
; 1337 : 		}
; 1338 : 
; 1339 : 	iterator erase(const_iterator _First, const_iterator _Last)
; 1340 : 		{	// erase substring [_First, _Last)
; 1341 : 		_DEBUG_RANGE(_First, _Last);
; 1342 : 		size_type _Count = _Pdif(_First, begin());
; 1343 : 		erase(_Count, _Pdif(_Last, _First));
; 1344 : 		return (_STRING_ITERATOR(this->_Myptr() + _Count));
; 1345 : 		}
; 1346 : 
; 1347 : 	void clear() _NOEXCEPT
; 1348 : 		{	// erase all
; 1349 : 		_Eos(0);
; 1350 : 		}
; 1351 : 
; 1352 : 	_Myt& replace(size_type _Off, size_type _N0, const _Myt& _Right)
; 1353 : 		{	// replace [_Off, _Off + _N0) with _Right
; 1354 : 		return (replace(_Off, _N0, _Right, 0, npos));
; 1355 : 		}
; 1356 : 
; 1357 : 	_Myt& replace(size_type _Off,
; 1358 : 		size_type _N0, const _Myt& _Right, size_type _Roff, size_type _Count)
; 1359 : 		{	// replace [_Off, _Off + _N0) with _Right [_Roff, _Roff + _Count)
; 1360 : 		if (this->_Mysize < _Off || _Right.size() < _Roff)
; 1361 : 			_Xran();	// _Off or _Roff off end
; 1362 : 		if (this->_Mysize - _Off < _N0)
; 1363 : 			_N0 = this->_Mysize - _Off;	// trim _N0 to size
; 1364 : 		size_type _Num = _Right.size() - _Roff;
; 1365 : 		if (_Num < _Count)
; 1366 : 			_Count = _Num;	// trim _Count to size
; 1367 : 		if (npos - _Count <= this->_Mysize - _N0)
; 1368 : 			_Xlen();	// result too long
; 1369 : 
; 1370 : 		size_type _Nm = this->_Mysize - _N0 - _Off;	// length of kept tail
; 1371 : 		size_type _Newsize = this->_Mysize + _Count - _N0;
; 1372 : 		if (this->_Mysize < _Newsize)
; 1373 : 			_Grow(_Newsize);
; 1374 : 
; 1375 : 		if (this != &_Right)
; 1376 : 			{	// no overlap, just move down and copy in new stuff
; 1377 : 			_Traits::move(this->_Myptr() + _Off + _Count,
; 1378 : 				this->_Myptr() + _Off + _N0, _Nm);	// empty hole
; 1379 : 			_Traits::copy(this->_Myptr() + _Off,
; 1380 : 				_Right._Myptr() + _Roff, _Count);	// fill hole
; 1381 : 			}
; 1382 : 		else if (_Count <= _N0)
; 1383 : 			{	// hole doesn't get larger, just copy in substring
; 1384 : 			_Traits::move(this->_Myptr() + _Off,
; 1385 : 				this->_Myptr() + _Roff, _Count);	// fill hole
; 1386 : 			_Traits::move(this->_Myptr() + _Off + _Count,
; 1387 : 				this->_Myptr() + _Off + _N0, _Nm);	// move tail down
; 1388 : 			}
; 1389 : 		else if (_Roff <= _Off)
; 1390 : 			{	// hole gets larger, substring begins before hole
; 1391 : 			_Traits::move(this->_Myptr() + _Off + _Count,
; 1392 : 				this->_Myptr() + _Off + _N0, _Nm);	// move tail down
; 1393 : 			_Traits::move(this->_Myptr() + _Off,
; 1394 : 				this->_Myptr() + _Roff, _Count);	// fill hole
; 1395 : 			}
; 1396 : 		else if (_Off + _N0 <= _Roff)
; 1397 : 			{	// hole gets larger, substring begins after hole
; 1398 : 			_Traits::move(this->_Myptr() + _Off + _Count,
; 1399 : 				this->_Myptr() + _Off + _N0, _Nm);	// move tail down
; 1400 : 			_Traits::move(this->_Myptr() + _Off,
; 1401 : 				this->_Myptr() + (_Roff + _Count - _N0),
; 1402 : 				_Count);	// fill hole
; 1403 : 			}
; 1404 : 		else
; 1405 : 			{	// hole gets larger, substring begins in hole
; 1406 : 			_Traits::move(this->_Myptr() + _Off,
; 1407 : 				this->_Myptr() + _Roff, _N0);	// fill old hole
; 1408 : 			_Traits::move(this->_Myptr() + _Off + _Count,
; 1409 : 				this->_Myptr() + _Off + _N0, _Nm);	// move tail down
; 1410 : 			_Traits::move(this->_Myptr() + _Off + _N0,
; 1411 : 				this->_Myptr() + _Roff + _Count,
; 1412 : 				_Count - _N0);	// fill rest of new hole
; 1413 : 			}
; 1414 : 
; 1415 : 		_Eos(_Newsize);
; 1416 : 		return (*this);
; 1417 : 		}
; 1418 : 
; 1419 : 	_Myt& replace(size_type _Off,
; 1420 : 		size_type _N0, const _Elem *_Ptr, size_type _Count)
; 1421 : 		{	// replace [_Off, _Off + _N0) with [_Ptr, _Ptr + _Count)
; 1422 :  #if _ITERATOR_DEBUG_LEVEL == 2
; 1423 : 		if (_Count != 0)
; 1424 : 			_DEBUG_POINTER(_Ptr);
; 1425 :  #endif /* _ITERATOR_DEBUG_LEVEL == 2 */
; 1426 : 
; 1427 : 		if (_Inside(_Ptr))
; 1428 : 			return (replace(_Off, _N0, *this,
; 1429 : 				_Ptr - this->_Myptr(),
; 1430 : 				_Count));	// substring, replace carefully
; 1431 : 		if (this->_Mysize < _Off)
; 1432 : 			_Xran();	// _Off off end
; 1433 : 		if (this->_Mysize - _Off < _N0)
; 1434 : 			_N0 = this->_Mysize - _Off;	// trim _N0 to size
; 1435 : 		if (npos - _Count <= this->_Mysize - _N0)
; 1436 : 			_Xlen();	// result too long
; 1437 : 		size_type _Nm = this->_Mysize - _N0 - _Off;
; 1438 : 
; 1439 : 		if (_Count < _N0)
; 1440 : 			_Traits::move(this->_Myptr() + _Off + _Count,
; 1441 : 				this->_Myptr() + _Off + _N0,
; 1442 : 				_Nm);	// smaller hole, move tail up
; 1443 : 		size_type _Num;
; 1444 : 		if ((0 < _Count || 0 < _N0)
; 1445 : 			&& _Grow(_Num = this->_Mysize + _Count - _N0))
; 1446 : 			{	// make room and rearrange
; 1447 : 			if (_N0 < _Count)
; 1448 : 				_Traits::move(this->_Myptr() + _Off + _Count,
; 1449 : 					this->_Myptr() + _Off + _N0, _Nm);	// move tail down
; 1450 : 			_Traits::copy(this->_Myptr() + _Off, _Ptr, _Count);	// fill hole
; 1451 : 			_Eos(_Num);
; 1452 : 			}
; 1453 : 		return (*this);
; 1454 : 		}
; 1455 : 
; 1456 : 	_Myt& replace(size_type _Off, size_type _N0, const _Elem *_Ptr)
; 1457 : 		{	// replace [_Off, _Off + _N0) with [_Ptr, <null>)
; 1458 : 		_DEBUG_POINTER(_Ptr);
; 1459 : 		return (replace(_Off, _N0, _Ptr, _Traits::length(_Ptr)));
; 1460 : 		}
; 1461 : 
; 1462 : 	_Myt& replace(size_type _Off,
; 1463 : 		size_type _N0, size_type _Count, _Elem _Ch)
; 1464 : 		{	// replace [_Off, _Off + _N0) with _Count * _Ch
; 1465 : 		if (this->_Mysize < _Off)
; 1466 : 			_Xran();	// _Off off end
; 1467 : 		if (this->_Mysize - _Off < _N0)
; 1468 : 			_N0 = this->_Mysize - _Off;	// trim _N0 to size
; 1469 : 		if (npos - _Count <= this->_Mysize - _N0)
; 1470 : 			_Xlen();	// result too long
; 1471 : 		size_type _Nm = this->_Mysize - _N0 - _Off;
; 1472 : 
; 1473 : 		if (_Count < _N0)
; 1474 : 			_Traits::move(this->_Myptr() + _Off + _Count,
; 1475 : 				this->_Myptr() + _Off + _N0,
; 1476 : 				_Nm);	// smaller hole, move tail up
; 1477 : 		size_type _Num;
; 1478 : 		if ((0 < _Count || 0 < _N0)
; 1479 : 			&& _Grow(_Num = this->_Mysize + _Count - _N0))
; 1480 : 			{	// make room and rearrange
; 1481 : 			if (_N0 < _Count)
; 1482 : 				_Traits::move(this->_Myptr() + _Off + _Count,
; 1483 : 					this->_Myptr() + _Off + _N0, _Nm);	// move tail down
; 1484 : 			_Chassign(_Off, _Count, _Ch);	// fill hole
; 1485 : 			_Eos(_Num);
; 1486 : 			}
; 1487 : 		return (*this);
; 1488 : 		}
; 1489 : 
; 1490 : 	_Myt& replace(const_iterator _First, const_iterator _Last,
; 1491 : 		const _Myt& _Right)
; 1492 : 		{	// replace [_First, _Last) with _Right
; 1493 : 		return (replace(
; 1494 : 			_Pdif(_First, begin()), _Pdif(_Last, _First), _Right));
; 1495 : 		}
; 1496 : 
; 1497 : 	_Myt& replace(const_iterator _First, const_iterator _Last,
; 1498 : 		const _Elem *_Ptr, size_type _Count)
; 1499 : 		{	// replace [_First, _Last) with [_Ptr, _Ptr + _Count)
; 1500 : 		return (replace(
; 1501 : 			_Pdif(_First, begin()), _Pdif(_Last, _First), _Ptr, _Count));
; 1502 : 		}
; 1503 : 
; 1504 : 	_Myt& replace(const_iterator _First, const_iterator _Last,
; 1505 : 		const _Elem *_Ptr)
; 1506 : 		{	// replace [_First, _Last) with [_Ptr, <null>)
; 1507 : 		return (replace(
; 1508 : 			_Pdif(_First, begin()), _Pdif(_Last, _First), _Ptr));
; 1509 : 		}
; 1510 : 
; 1511 : 	_Myt& replace(const_iterator _First, const_iterator _Last,
; 1512 : 		size_type _Count, _Elem _Ch)
; 1513 : 		{	// replace [_First, _Last) with _Count * _Ch
; 1514 : 		return (replace(
; 1515 : 			_Pdif(_First, begin()), _Pdif(_Last, _First), _Count, _Ch));
; 1516 : 		}
; 1517 : 
; 1518 : 	template<class _Iter>
; 1519 : 		typename enable_if<_Is_iterator<_Iter>::value,
; 1520 : 			_Myt&>::type
; 1521 : 		replace(const_iterator _First, const_iterator _Last,
; 1522 : 			_Iter _First2, _Iter _Last2)
; 1523 : 		{	// replace [_First, _Last) with [_First2, _Last2), input iterators
; 1524 : 		_Myt _Right(_First2, _Last2);
; 1525 : 		replace(_First, _Last, _Right);
; 1526 : 		return (*this);
; 1527 : 		}
; 1528 : 
; 1529 : 	_Myt& replace(const_iterator _First, const_iterator _Last,
; 1530 : 		const_pointer _First2, const_pointer _Last2)
; 1531 : 		{	// replace [_First, _Last) with [_First2, _Last2), const pointers
; 1532 : 		if (_First2 == _Last2)
; 1533 : 			erase(_Pdif(_First, begin()), _Pdif(_Last, _First));
; 1534 : 		else
; 1535 : 			replace(_Pdif(_First, begin()), _Pdif(_Last, _First),
; 1536 : 				&*_First2, _Last2 - _First2);
; 1537 : 		return (*this);
; 1538 : 		}
; 1539 : 
; 1540 : 	_Myt& replace(const_iterator _First, const_iterator _Last,
; 1541 : 		pointer _First2, pointer _Last2)
; 1542 : 		{	// replace [_First, _Last) with [_First2, _Last2), const pointers
; 1543 : 		if (_First2 == _Last2)
; 1544 : 			erase(_Pdif(_First, begin()), _Pdif(_Last, _First));
; 1545 : 		else
; 1546 : 			replace(_Pdif(_First, begin()), _Pdif(_Last, _First),
; 1547 : 				&*_First2, _Last2 - _First2);
; 1548 : 		return (*this);
; 1549 : 		}
; 1550 : 
; 1551 : 	_Myt& replace(const_iterator _First, const_iterator _Last,
; 1552 : 		const_iterator _First2, const_iterator _Last2)
; 1553 : 		{	// replace [_First, _Last) with [_First2, _Last2), const_iterators
; 1554 : 		if (_First2 == _Last2)
; 1555 : 			erase(_Pdif(_First, begin()), _Pdif(_Last, _First));
; 1556 : 		else
; 1557 : 			replace(_Pdif(_First, begin()), _Pdif(_Last, _First),
; 1558 : 				&*_First2, _Last2 - _First2);
; 1559 : 		return (*this);
; 1560 : 		}
; 1561 : 
; 1562 : 	_Myt& replace(const_iterator _First, const_iterator _Last,
; 1563 : 		iterator _First2, iterator _Last2)
; 1564 : 		{	// replace [_First, _Last) with [_First2, _Last2), const_iterators
; 1565 : 		if (_First2 == _Last2)
; 1566 : 			erase(_Pdif(_First, begin()), _Pdif(_Last, _First));
; 1567 : 		else
; 1568 : 			replace(_Pdif(_First, begin()), _Pdif(_Last, _First),
; 1569 : 				&*_First2, _Last2 - _First2);
; 1570 : 		return (*this);
; 1571 : 		}
; 1572 : 
; 1573 : 	iterator begin() _NOEXCEPT
; 1574 : 		{	// return iterator for beginning of mutable sequence
; 1575 : 		return (_STRING_ITERATOR(this->_Myptr()));
; 1576 : 		}
; 1577 : 
; 1578 : 	const_iterator begin() const _NOEXCEPT
; 1579 : 		{	// return iterator for beginning of nonmutable sequence
; 1580 : 		return (_STRING_CONST_ITERATOR(this->_Myptr()));
; 1581 : 		}
; 1582 : 
; 1583 : 	iterator end() _NOEXCEPT
; 1584 : 		{	// return iterator for end of mutable sequence
; 1585 : 		return (_STRING_ITERATOR(this->_Myptr() + this->_Mysize));
; 1586 : 		}
; 1587 : 
; 1588 : 	const_iterator end() const _NOEXCEPT
; 1589 : 		{	// return iterator for end of nonmutable sequence
; 1590 : 		return (_STRING_CONST_ITERATOR(this->_Myptr() + this->_Mysize));
; 1591 : 		}
; 1592 : 
; 1593 : 	reverse_iterator rbegin() _NOEXCEPT
; 1594 : 		{	// return iterator for beginning of reversed mutable sequence
; 1595 : 		return (reverse_iterator(end()));
; 1596 : 		}
; 1597 : 
; 1598 : 	const_reverse_iterator rbegin() const _NOEXCEPT
; 1599 : 		{	// return iterator for beginning of reversed nonmutable sequence
; 1600 : 		return (const_reverse_iterator(end()));
; 1601 : 		}
; 1602 : 
; 1603 : 	reverse_iterator rend() _NOEXCEPT
; 1604 : 		{	// return iterator for end of reversed mutable sequence
; 1605 : 		return (reverse_iterator(begin()));
; 1606 : 		}
; 1607 : 
; 1608 : 	const_reverse_iterator rend() const _NOEXCEPT
; 1609 : 		{	// return iterator for end of reversed nonmutable sequence
; 1610 : 		return (const_reverse_iterator(begin()));
; 1611 : 		}
; 1612 : 
; 1613 :  #if _HAS_CPP0X
; 1614 : 	const_iterator cbegin() const _NOEXCEPT
; 1615 : 		{	// return iterator for beginning of nonmutable sequence
; 1616 : 		return (((const _Myt *)this)->begin());
; 1617 : 		}
; 1618 : 
; 1619 : 	const_iterator cend() const _NOEXCEPT
; 1620 : 		{	// return iterator for end of nonmutable sequence
; 1621 : 		return (((const _Myt *)this)->end());
; 1622 : 		}
; 1623 : 
; 1624 : 	const_reverse_iterator crbegin() const _NOEXCEPT
; 1625 : 		{	// return iterator for beginning of reversed nonmutable sequence
; 1626 : 		return (((const _Myt *)this)->rbegin());
; 1627 : 		}
; 1628 : 
; 1629 : 	const_reverse_iterator crend() const _NOEXCEPT
; 1630 : 		{	// return iterator for end of reversed nonmutable sequence
; 1631 : 		return (((const _Myt *)this)->rend());
; 1632 : 		}
; 1633 : 
; 1634 : 	void shrink_to_fit()
; 1635 : 		{	// reduce capacity
; 1636 : 		if ((size() | this->_ALLOC_MASK) < capacity())
; 1637 : 			{	// worth shrinking, do it
; 1638 : 			_Myt _Tmp(*this);
; 1639 : 			swap(_Tmp);
; 1640 : 			}
; 1641 : 		}
; 1642 :  #endif /* _HAS_CPP0X */
; 1643 : 
; 1644 : 	reference at(size_type _Off)
; 1645 : 		{	// subscript mutable sequence with checking
; 1646 : 		if (this->_Mysize <= _Off)
; 1647 : 			_Xran();	// _Off off end
; 1648 : 		return (this->_Myptr()[_Off]);
; 1649 : 		}
; 1650 : 
; 1651 : 	const_reference at(size_type _Off) const
; 1652 : 		{	// subscript nonmutable sequence with checking
; 1653 : 		if (this->_Mysize <= _Off)
; 1654 : 			_Xran();	// _Off off end
; 1655 : 		return (this->_Myptr()[_Off]);
; 1656 : 		}
; 1657 : 
; 1658 : 	reference operator[](size_type _Off)
; 1659 : 		{	// subscript mutable sequence
; 1660 :  #if _ITERATOR_DEBUG_LEVEL == 2
; 1661 : 		if (this->_Mysize < _Off)	// sic
; 1662 : 			_DEBUG_ERROR("string subscript out of range");
; 1663 : 
; 1664 :  #elif _ITERATOR_DEBUG_LEVEL == 1
; 1665 : 		_SCL_SECURE_VALIDATE_RANGE(_Off <= this->_Mysize);	// sic
; 1666 :  #endif /* _ITERATOR_DEBUG_LEVEL == 2 */
; 1667 : 
; 1668 : 		return (this->_Myptr()[_Off]);
; 1669 : 		}
; 1670 : 
; 1671 : 	const_reference operator[](size_type _Off) const
; 1672 : 		{	// subscript nonmutable sequence
; 1673 :  #if _ITERATOR_DEBUG_LEVEL == 2
; 1674 : 		if (this->_Mysize < _Off)	// sic
; 1675 : 			_DEBUG_ERROR("string subscript out of range");
; 1676 : 
; 1677 :  #elif _ITERATOR_DEBUG_LEVEL == 1
; 1678 : 		_SCL_SECURE_VALIDATE_RANGE(_Off <= this->_Mysize);	// sic
; 1679 :  #endif /* _ITERATOR_DEBUG_LEVEL == 2 */
; 1680 : 
; 1681 : 		return (this->_Myptr()[_Off]);
; 1682 : 		}
; 1683 : 
; 1684 : 	void push_back(_Elem _Ch)
; 1685 : 		{	// insert element at end
; 1686 : 		insert(end(), _Ch);
; 1687 : 		}
; 1688 : 
; 1689 :  #if _HAS_CPP0X
; 1690 : 	void pop_back()
; 1691 : 		{	// erase element at end
; 1692 : 		erase(this->_Mysize - 1);	// throws if _Mysize == 0
; 1693 : 		}
; 1694 : 
; 1695 : 	reference front()
; 1696 : 		{	// return first element of mutable sequence
; 1697 : 		return (*begin());
; 1698 : 		}
; 1699 : 
; 1700 : 	const_reference front() const
; 1701 : 		{	// return first element of nonmutable sequence
; 1702 : 		return (*begin());
; 1703 : 		}
; 1704 : 
; 1705 : 	reference back()
; 1706 : 		{	// return last element of mutable sequence
; 1707 : 		return (*(end() - 1));
; 1708 : 		}
; 1709 : 
; 1710 : 	const_reference back() const
; 1711 : 		{	// return last element of nonmutable sequence
; 1712 : 		return (*(end() - 1));
; 1713 : 		}
; 1714 :  #endif /* _HAS_CPP0X */
; 1715 : 
; 1716 : 	const _Elem *c_str() const _NOEXCEPT
; 1717 : 		{	// return pointer to null-terminated nonmutable array
; 1718 : 		return (this->_Myptr());
; 1719 : 		}
; 1720 : 
; 1721 : 	const _Elem *data() const _NOEXCEPT
; 1722 : 		{	// return pointer to nonmutable array
; 1723 : 		return (c_str());
; 1724 : 		}
; 1725 : 
; 1726 : 	size_type length() const _NOEXCEPT
; 1727 : 		{	// return length of sequence
; 1728 : 		return (this->_Mysize);
; 1729 : 		}
; 1730 : 
; 1731 : 	size_type size() const _NOEXCEPT
; 1732 : 		{	// return length of sequence
; 1733 : 		return (this->_Mysize);
; 1734 : 		}
; 1735 : 
; 1736 : 	size_type max_size() const _NOEXCEPT
; 1737 : 		{	// return maximum possible length of sequence
; 1738 : 		size_type _Num = this->_Getal().max_size();
; 1739 : 		return (_Num <= 1 ? 1 : _Num - 1);
; 1740 : 		}
; 1741 : 
; 1742 : 	void resize(size_type _Newsize)
; 1743 : 		{	// determine new length, padding with null elements as needed
; 1744 : 		resize(_Newsize, _Elem());
; 1745 : 		}
; 1746 : 
; 1747 : 	void resize(size_type _Newsize, _Elem _Ch)
; 1748 : 		{	// determine new length, padding with _Ch elements as needed
; 1749 : 		if (_Newsize <= this->_Mysize)
; 1750 : 			_Eos(_Newsize);
; 1751 : 		else
; 1752 : 			append(_Newsize - this->_Mysize, _Ch);
; 1753 : 		}
; 1754 : 
; 1755 : 	size_type capacity() const _NOEXCEPT
; 1756 : 		{	// return current length of allocated storage
; 1757 : 		return (this->_Myres);
; 1758 : 		}
; 1759 : 
; 1760 : 	void reserve(size_type _Newcap = 0)
; 1761 : 		{	// determine new minimum length of allocated storage
; 1762 : 		if (this->_Mysize <= _Newcap && this->_Myres != _Newcap)
; 1763 : 			{	// change reservation
; 1764 : 			size_type _Size = this->_Mysize;
; 1765 : 			if (_Grow(_Newcap, true))
; 1766 : 				_Eos(_Size);
; 1767 : 			}
; 1768 : 		}
; 1769 : 
; 1770 : 	bool empty() const _NOEXCEPT
; 1771 : 		{	// test if sequence is empty
; 1772 : 		return (this->_Mysize == 0);
; 1773 : 		}
; 1774 : 
; 1775 : 	_SCL_INSECURE_DEPRECATE
; 1776 : 
; 1777 : 	size_type copy(_Elem *_Ptr,
; 1778 : 		size_type _Count, size_type _Off = 0) const
; 1779 : 		{	// copy [_Off, _Off + _Count) to [_Ptr, _Ptr + _Count)
; 1780 :  #if _ITERATOR_DEBUG_LEVEL == 2
; 1781 : 		if (_Count != 0)
; 1782 : 			_DEBUG_POINTER(_Ptr);
; 1783 :  #endif /* _ITERATOR_DEBUG_LEVEL == 2 */
; 1784 : 
; 1785 : 		if (this->_Mysize < _Off)
; 1786 : 			_Xran();	// _Off off end
; 1787 : 		if (this->_Mysize - _Off < _Count)
; 1788 : 			_Count = this->_Mysize - _Off;
; 1789 : 		_Traits::copy(_Ptr, this->_Myptr() + _Off, _Count);
; 1790 : 		return (_Count);
; 1791 : 		}
; 1792 : 
; 1793 : 	size_type _Copy_s(_Elem *_Dest, size_type _Dest_size,
; 1794 : 		size_type _Count, size_type _Off = 0) const
; 1795 : 		{	// copy [_Off, _Off + _Count) to [_Dest, _Dest + _Count)
; 1796 :  #if _ITERATOR_DEBUG_LEVEL == 2
; 1797 : 		if (_Count != 0)
; 1798 : 			_DEBUG_POINTER(_Dest);
; 1799 :  #endif /* _ITERATOR_DEBUG_LEVEL == 2 */
; 1800 : 
; 1801 : 		if (this->_Mysize < _Off)
; 1802 : 			_Xran();	// _Off off end
; 1803 : 		if (this->_Mysize - _Off < _Count)
; 1804 : 			_Count = this->_Mysize - _Off;
; 1805 : 		_Traits::_Copy_s(_Dest, _Dest_size, this->_Myptr() + _Off, _Count);
; 1806 : 		return (_Count);
; 1807 : 		}
; 1808 : 
; 1809 : 	void _Swap_bx(_Myt& _Right)
; 1810 : 		{	// exchange _Bx with _Right._Bx
; 1811 : 		if (this->_BUF_SIZE <= this->_Myres)
; 1812 : 			if (this->_BUF_SIZE <= _Right._Myres)
; 1813 : 				_Swap_adl(this->_Bx._Ptr, _Right._Bx._Ptr);
; 1814 : 			else
; 1815 : 				{	// swap large with small
; 1816 : 				pointer _Ptr = this->_Bx._Ptr;
; 1817 : 				this->_Getal().destroy(&this->_Bx._Ptr);
; 1818 : 				_Traits::copy(this->_Bx._Buf,
; 1819 : 					_Right._Bx._Buf, _Right._Mysize + 1);
; 1820 : 				this->_Getal().construct(&_Right._Bx._Ptr, _Ptr);
; 1821 : 				}
; 1822 : 		else
; 1823 : 			if (_Right._Myres < this->_BUF_SIZE)
; 1824 : 				_STD swap(this->_Bx._Buf, _Right._Bx._Buf);
; 1825 : 			else
; 1826 : 				{	// swap small with large
; 1827 : 				pointer _Ptr = _Right._Bx._Ptr;
; 1828 : 				this->_Getal().destroy(&_Right._Bx._Ptr);
; 1829 : 				_Traits::copy(_Right._Bx._Buf,
; 1830 : 					this->_Bx._Buf, this->_Mysize + 1);
; 1831 : 				this->_Getal().construct(&this->_Bx._Ptr, _Ptr);
; 1832 : 				}
; 1833 : 		}
; 1834 : 
; 1835 : 	void swap(_Myt& _Right)
; 1836 : 		{	// exchange contents with _Right
; 1837 : 		if (this == &_Right)
; 1838 : 			;	// same object, do nothing
; 1839 : 		else if (this->_Getal() == _Right._Getal())
; 1840 : 			{	// same allocator, swap control information
; 1841 : 			this->_Swap_all(_Right);
; 1842 : 			_Swap_bx(_Right);
; 1843 : 			_STD swap(this->_Mysize, _Right._Mysize);
; 1844 : 			_STD swap(this->_Myres, _Right._Myres);
; 1845 : 			}
; 1846 : 
; 1847 :  #if _HAS_CPP0X
; 1848 : 		else if (_Alty::propagate_on_container_swap::value)
; 1849 : 			{	// swap allocators and control information
; 1850 : 			this->_Swap_alloc(_Right);
; 1851 : 			_Swap_bx(_Right);
; 1852 : 			_STD swap(this->_Bx, _Right._Bx);	// pointer bitwise copyable?
; 1853 : 			_STD swap(this->_Mysize, _Right._Mysize);
; 1854 : 			_STD swap(this->_Myres, _Right._Myres);
; 1855 : 			}
; 1856 :  #endif /* _HAS_CPP0X */
; 1857 : 
; 1858 : 		else
; 1859 : 			{	// different allocator, do multiple assigns
; 1860 : 			_Myt _Tmp = *this;
; 1861 : 
; 1862 : 			*this = _Right;
; 1863 : 			_Right = _Tmp;
; 1864 : 			}
; 1865 : 		}
; 1866 : 
; 1867 : 	size_type find(const _Myt& _Right, size_type _Off = 0) const _NOEXCEPT
; 1868 : 		{	// look for _Right beginning at or after _Off
; 1869 : 		return (find(_Right._Myptr(), _Off, _Right.size()));
; 1870 : 		}
; 1871 : 
; 1872 : 	size_type find(const _Elem *_Ptr,
; 1873 : 		size_type _Off, size_type _Count) const
; 1874 : 		{	// look for [_Ptr, _Ptr + _Count) beginning at or after _Off
; 1875 :  #if _ITERATOR_DEBUG_LEVEL == 2
; 1876 : 		if (_Count != 0)
; 1877 : 			_DEBUG_POINTER(_Ptr);
; 1878 :  #endif /* _ITERATOR_DEBUG_LEVEL == 2 */
; 1879 : 
; 1880 : 		if (_Count == 0 && _Off <= this->_Mysize)
; 1881 : 			return (_Off);	// null string always matches (if inside string)
; 1882 : 
; 1883 : 		size_type _Nm;
; 1884 : 		if (_Off < this->_Mysize && _Count <= (_Nm = this->_Mysize - _Off))
; 1885 : 			{	// room for match, look for it
; 1886 : 			const _Elem *_Uptr, *_Vptr;
; 1887 : 			for (_Nm -= _Count - 1, _Vptr = this->_Myptr() + _Off;
; 1888 : 				(_Uptr = _Traits::find(_Vptr, _Nm, *_Ptr)) != 0;
; 1889 : 				_Nm -= _Uptr - _Vptr + 1, _Vptr = _Uptr + 1)
; 1890 : 				if (_Traits::compare(_Uptr, _Ptr, _Count) == 0)
; 1891 : 					return (_Uptr - this->_Myptr());	// found a match
; 1892 : 			}
; 1893 : 
; 1894 : 		return (npos);	// no match
; 1895 : 		}
; 1896 : 
; 1897 : 	size_type find(const _Elem *_Ptr, size_type _Off = 0) const
; 1898 : 		{	// look for [_Ptr, <null>) beginning at or after _Off
; 1899 : 		_DEBUG_POINTER(_Ptr);
; 1900 : 		return (find(_Ptr, _Off, _Traits::length(_Ptr)));
; 1901 : 		}
; 1902 : 
; 1903 : 	size_type find(_Elem _Ch, size_type _Off = 0) const
; 1904 : 		{	// look for _Ch at or after _Off
; 1905 : 		return (find((const _Elem *)&_Ch, _Off, 1));
; 1906 : 		}
; 1907 : 
; 1908 : 	size_type rfind(const _Myt& _Right, size_type _Off = npos) const _NOEXCEPT
; 1909 : 		{	// look for _Right beginning before _Off
; 1910 : 		return (rfind(_Right._Myptr(), _Off, _Right.size()));
; 1911 : 		}
; 1912 : 
; 1913 : 	size_type rfind(const _Elem *_Ptr,
; 1914 : 		size_type _Off, size_type _Count) const
; 1915 : 		{	// look for [_Ptr, _Ptr + _Count) beginning before _Off
; 1916 :  #if _ITERATOR_DEBUG_LEVEL == 2
; 1917 : 		if (_Count != 0)
; 1918 : 			_DEBUG_POINTER(_Ptr);
; 1919 :  #endif /* _ITERATOR_DEBUG_LEVEL == 2 */
; 1920 : 
; 1921 : 		if (_Count == 0)
; 1922 : 			return (_Off < this->_Mysize ? _Off
; 1923 : 				: this->_Mysize);	// null always matches
; 1924 : 		if (_Count <= this->_Mysize)
; 1925 : 			{	// room for match, look for it
; 1926 : 			const _Elem *_Uptr = this->_Myptr() +
; 1927 : 				(_Off < this->_Mysize - _Count ? _Off
; 1928 : 					: this->_Mysize - _Count);
; 1929 : 			for (; ; --_Uptr)
; 1930 : 				if (_Traits::eq(*_Uptr, *_Ptr)
; 1931 : 					&& _Traits::compare(_Uptr, _Ptr, _Count) == 0)
; 1932 : 					return (_Uptr - this->_Myptr());	// found a match
; 1933 : 				else if (_Uptr == this->_Myptr())
; 1934 : 					break;	// at beginning, no more chance for match
; 1935 : 			}
; 1936 : 
; 1937 : 		return (npos);	// no match
; 1938 : 		}
; 1939 : 
; 1940 : 	size_type rfind(const _Elem *_Ptr, size_type _Off = npos) const
; 1941 : 		{	// look for [_Ptr, <null>) beginning before _Off
; 1942 : 		_DEBUG_POINTER(_Ptr);
; 1943 : 		return (rfind(_Ptr, _Off, _Traits::length(_Ptr)));
; 1944 : 		}
; 1945 : 
; 1946 : 	size_type rfind(_Elem _Ch, size_type _Off = npos) const
; 1947 : 		{	// look for _Ch before _Off
; 1948 : 		return (rfind((const _Elem *)&_Ch, _Off, 1));
; 1949 : 		}
; 1950 : 
; 1951 : 	size_type find_first_of(const _Myt& _Right,
; 1952 : 		size_type _Off = 0) const _NOEXCEPT
; 1953 : 		{	// look for one of _Right at or after _Off
; 1954 : 		return (find_first_of(_Right._Myptr(), _Off, _Right.size()));
; 1955 : 		}
; 1956 : 
; 1957 : 	size_type find_first_of(const _Elem *_Ptr,
; 1958 : 		size_type _Off, size_type _Count) const
; 1959 : 		{	// look for one of [_Ptr, _Ptr + _Count) at or after _Off
; 1960 :  #if _ITERATOR_DEBUG_LEVEL == 2
; 1961 : 		if (_Count != 0)
; 1962 : 			_DEBUG_POINTER(_Ptr);
; 1963 :  #endif /* _ITERATOR_DEBUG_LEVEL == 2 */
; 1964 : 
; 1965 : 		if (0 < _Count && _Off < this->_Mysize)
; 1966 : 			{	// room for match, look for it
; 1967 : 			const _Elem *const _Vptr = this->_Myptr() + this->_Mysize;
; 1968 : 			for (const _Elem *_Uptr = this->_Myptr() + _Off;
; 1969 : 				_Uptr < _Vptr; ++_Uptr)
; 1970 : 				if (_Traits::find(_Ptr, _Count, *_Uptr) != 0)
; 1971 : 					return (_Uptr - this->_Myptr());	// found a match
; 1972 : 			}
; 1973 : 
; 1974 : 		return (npos);	// no match
; 1975 : 		}
; 1976 : 
; 1977 : 	size_type find_first_of(const _Elem *_Ptr,
; 1978 : 		size_type _Off = 0) const
; 1979 : 		{	// look for one of [_Ptr, <null>) at or after _Off
; 1980 : 		_DEBUG_POINTER(_Ptr);
; 1981 : 		return (find_first_of(_Ptr, _Off, _Traits::length(_Ptr)));
; 1982 : 		}
; 1983 : 
; 1984 : 	size_type find_first_of(_Elem _Ch,
; 1985 : 		size_type _Off = 0) const
; 1986 : 		{	// look for _Ch at or after _Off
; 1987 : 		return (find((const _Elem *)&_Ch, _Off, 1));
; 1988 : 		}
; 1989 : 
; 1990 : 	size_type find_last_of(const _Myt& _Right,
; 1991 : 		size_type _Off = npos) const _NOEXCEPT
; 1992 : 		{	// look for one of _Right before _Off
; 1993 : 		return (find_last_of(_Right._Myptr(), _Off, _Right.size()));
; 1994 : 		}
; 1995 : 
; 1996 : 	size_type find_last_of(const _Elem *_Ptr,
; 1997 : 		size_type _Off, size_type _Count) const
; 1998 : 		{	// look for one of [_Ptr, _Ptr + _Count) before _Off
; 1999 :  #if _ITERATOR_DEBUG_LEVEL == 2
; 2000 : 		if (_Count != 0)
; 2001 : 			_DEBUG_POINTER(_Ptr);
; 2002 :  #endif /* _ITERATOR_DEBUG_LEVEL == 2 */
; 2003 : 
; 2004 : 		if (0 < _Count && 0 < this->_Mysize)
; 2005 : 			{	// worth searching, do it
; 2006 : 			const _Elem *_Uptr = this->_Myptr()
; 2007 : 				+ (_Off < this->_Mysize ? _Off : this->_Mysize - 1);
; 2008 : 			for (; ; --_Uptr)
; 2009 : 				if (_Traits::find(_Ptr, _Count, *_Uptr) != 0)
; 2010 : 					return (_Uptr - this->_Myptr());	// found a match
; 2011 : 				else if (_Uptr == this->_Myptr())
; 2012 : 					break;	// at beginning, no more chance for match
; 2013 : 			}
; 2014 : 
; 2015 : 		return (npos);	// no match
; 2016 : 		}
; 2017 : 
; 2018 : 	size_type find_last_of(const _Elem *_Ptr,
; 2019 : 		size_type _Off = npos) const
; 2020 : 		{	// look for one of [_Ptr, <null>) before _Off
; 2021 : 		_DEBUG_POINTER(_Ptr);
; 2022 : 		return (find_last_of(_Ptr, _Off, _Traits::length(_Ptr)));
; 2023 : 		}
; 2024 : 
; 2025 : 	size_type find_last_of(_Elem _Ch,
; 2026 : 		size_type _Off = npos) const
; 2027 : 		{	// look for _Ch before _Off
; 2028 : 		return (rfind((const _Elem *)&_Ch, _Off, 1));
; 2029 : 		}
; 2030 : 
; 2031 : 	size_type find_first_not_of(const _Myt& _Right,
; 2032 : 		size_type _Off = 0) const _NOEXCEPT
; 2033 : 		{	// look for none of _Right at or after _Off
; 2034 : 		return (find_first_not_of(_Right._Myptr(), _Off,
; 2035 : 			_Right.size()));
; 2036 : 		}
; 2037 : 
; 2038 : 	size_type find_first_not_of(const _Elem *_Ptr,
; 2039 : 		size_type _Off, size_type _Count) const
; 2040 : 		{	// look for none of [_Ptr, _Ptr + _Count) at or after _Off
; 2041 :  #if _ITERATOR_DEBUG_LEVEL == 2
; 2042 : 		if (_Count != 0)
; 2043 : 			_DEBUG_POINTER(_Ptr);
; 2044 :  #endif /* _ITERATOR_DEBUG_LEVEL == 2 */
; 2045 : 
; 2046 : 		if (_Off < this->_Mysize)
; 2047 : 			{	// room for match, look for it
; 2048 : 			const _Elem *const _Vptr = this->_Myptr() + this->_Mysize;
; 2049 : 			for (const _Elem *_Uptr = this->_Myptr() + _Off;
; 2050 : 				_Uptr < _Vptr; ++_Uptr)
; 2051 : 				if (_Traits::find(_Ptr, _Count, *_Uptr) == 0)
; 2052 : 					return (_Uptr - this->_Myptr());
; 2053 : 			}
; 2054 : 		return (npos);
; 2055 : 		}
; 2056 : 
; 2057 : 	size_type find_first_not_of(const _Elem *_Ptr,
; 2058 : 		size_type _Off = 0) const
; 2059 : 		{	// look for one of [_Ptr, <null>) at or after _Off
; 2060 : 		_DEBUG_POINTER(_Ptr);
; 2061 : 		return (find_first_not_of(_Ptr, _Off, _Traits::length(_Ptr)));
; 2062 : 		}
; 2063 : 
; 2064 : 	size_type find_first_not_of(_Elem _Ch,
; 2065 : 		size_type _Off = 0) const
; 2066 : 		{	// look for non _Ch at or after _Off
; 2067 : 		return (find_first_not_of((const _Elem *)&_Ch, _Off, 1));
; 2068 : 		}
; 2069 : 
; 2070 : 	size_type find_last_not_of(const _Myt& _Right,
; 2071 : 		size_type _Off = npos) const _NOEXCEPT
; 2072 : 		{	// look for none of _Right before _Off
; 2073 : 		return (find_last_not_of(_Right._Myptr(), _Off, _Right.size()));
; 2074 : 		}
; 2075 : 
; 2076 : 	size_type find_last_not_of(const _Elem *_Ptr,
; 2077 : 		size_type _Off, size_type _Count) const
; 2078 : 		{	// look for none of [_Ptr, _Ptr + _Count) before _Off
; 2079 :  #if _ITERATOR_DEBUG_LEVEL == 2
; 2080 : 		if (_Count != 0)
; 2081 : 			_DEBUG_POINTER(_Ptr);
; 2082 :  #endif /* _ITERATOR_DEBUG_LEVEL == 2 */
; 2083 : 
; 2084 : 		if (0 < this->_Mysize)
; 2085 : 			{	// worth searching, do it
; 2086 : 			const _Elem *_Uptr = this->_Myptr()
; 2087 : 				+ (_Off < this->_Mysize ? _Off : this->_Mysize - 1);
; 2088 : 			for (; ; --_Uptr)
; 2089 : 				if (_Traits::find(_Ptr, _Count, *_Uptr) == 0)
; 2090 : 					return (_Uptr - this->_Myptr());
; 2091 : 				else if (_Uptr == this->_Myptr())
; 2092 : 					break;
; 2093 : 			}
; 2094 : 		return (npos);
; 2095 : 		}
; 2096 : 
; 2097 : 	size_type find_last_not_of(const _Elem *_Ptr,
; 2098 : 		size_type _Off = npos) const
; 2099 : 		{	// look for none of [_Ptr, <null>) before _Off
; 2100 : 		_DEBUG_POINTER(_Ptr);
; 2101 : 		return (find_last_not_of(_Ptr, _Off, _Traits::length(_Ptr)));
; 2102 : 		}
; 2103 : 
; 2104 : 	size_type find_last_not_of(_Elem _Ch,
; 2105 : 		size_type _Off = npos) const
; 2106 : 		{	// look for non _Ch before _Off
; 2107 : 		return (find_last_not_of((const _Elem *)&_Ch, _Off, 1));
; 2108 : 		}
; 2109 : 
; 2110 : 	_Myt substr(size_type _Off = 0, size_type _Count = npos) const
; 2111 : 		{	// return [_Off, _Off + _Count) as new string
; 2112 : 		return (_Myt(*this, _Off, _Count, get_allocator()));
; 2113 : 		}
; 2114 : 
; 2115 : 	int compare(const _Myt& _Right) const _NOEXCEPT
; 2116 : 		{	// compare [0, _Mysize) with _Right
; 2117 : 		return (compare(0, this->_Mysize, _Right._Myptr(), _Right.size()));
; 2118 : 		}
; 2119 : 
; 2120 : 	int compare(size_type _Off, size_type _N0,
; 2121 : 		const _Myt& _Right) const
; 2122 : 		{	// compare [_Off, _Off + _N0) with _Right
; 2123 : 		return (compare(_Off, _N0, _Right, 0, npos));
; 2124 : 		}
; 2125 : 
; 2126 : 	int compare(size_type _Off,
; 2127 : 		size_type _N0, const _Myt& _Right,
; 2128 : 		size_type _Roff, size_type _Count) const
; 2129 : 		{	// compare [_Off, _Off + _N0) with _Right [_Roff, _Roff + _Count)
; 2130 : 		if (_Right.size() < _Roff)
; 2131 : 			_Xran();	// _Off off end
; 2132 : 		if (_Right._Mysize - _Roff < _Count)
; 2133 : 			_Count = _Right._Mysize - _Roff;	// trim _Count to size
; 2134 : 		return (compare(_Off, _N0, _Right._Myptr() + _Roff, _Count));
; 2135 : 		}
; 2136 : 
; 2137 : 	int compare(const _Elem *_Ptr) const
; 2138 : 		{	// compare [0, _Mysize) with [_Ptr, <null>)
; 2139 : 		_DEBUG_POINTER(_Ptr);
; 2140 : 		return (compare(0, this->_Mysize, _Ptr, _Traits::length(_Ptr)));
; 2141 : 		}
; 2142 : 
; 2143 : 	int compare(size_type _Off, size_type _N0, const _Elem *_Ptr) const
; 2144 : 		{	// compare [_Off, _Off + _N0) with [_Ptr, <null>)
; 2145 : 		_DEBUG_POINTER(_Ptr);
; 2146 : 		return (compare(_Off, _N0, _Ptr, _Traits::length(_Ptr)));
; 2147 : 		}
; 2148 : 
; 2149 : 	int compare(size_type _Off,
; 2150 : 		size_type _N0, const _Elem *_Ptr, size_type _Count) const
; 2151 : 		{	// compare [_Off, _Off + _N0) with [_Ptr, _Ptr + _Count)
; 2152 :  #if _ITERATOR_DEBUG_LEVEL == 2
; 2153 : 		if (_Count != 0)
; 2154 : 			_DEBUG_POINTER(_Ptr);
; 2155 :  #endif /* _ITERATOR_DEBUG_LEVEL == 2 */
; 2156 : 
; 2157 : 		if (this->_Mysize < _Off)
; 2158 : 			_Xran();	// _Off off end
; 2159 : 		if (this->_Mysize - _Off < _N0)
; 2160 : 			_N0 = this->_Mysize - _Off;	// trim _N0 to size
; 2161 : 
; 2162 : 		size_type _Ans = _Traits::compare(this->_Myptr() + _Off, _Ptr,
; 2163 : 			_N0 < _Count ? _N0 : _Count);
; 2164 : 		return (_Ans != 0 ? (int)_Ans : _N0 < _Count ? -1
; 2165 : 			: _N0 == _Count ? 0 : +1);
; 2166 : 		}
; 2167 : 
; 2168 : 	allocator_type get_allocator() const _NOEXCEPT
; 2169 : 		{	// return allocator object for values
; 2170 : 		return (this->_Getal());
; 2171 : 		}
; 2172 : 
; 2173 : 	void _Chassign(size_type _Off, size_type _Count, _Elem _Ch)
; 2174 : 		{	// assign _Count copies of _Ch beginning at _Off
; 2175 : 		if (_Count == 1)
; 2176 : 			_Traits::assign(*(this->_Myptr() + _Off), _Ch);
; 2177 : 		else
; 2178 : 			_Traits::assign(this->_Myptr() + _Off, _Count, _Ch);
; 2179 : 		}
; 2180 : 
; 2181 : 	void _Copy(size_type _Newsize, size_type _Oldlen)
; 2182 : 		{	// copy _Oldlen elements to newly allocated buffer
; 2183 : 		size_type _Newres = _Newsize | this->_ALLOC_MASK;
; 2184 : 		if (max_size() < _Newres)
; 2185 : 			_Newres = _Newsize;	// undo roundup if too big
; 2186 : 		else if (this->_Myres / 2 <= _Newres / 3)
; 2187 : 			;
; 2188 : 		else if (this->_Myres <= max_size() - this->_Myres / 2)
; 2189 : 			_Newres = this->_Myres
; 2190 : 				+ this->_Myres / 2;	// grow exponentially if possible
; 2191 : 		else
; 2192 : 			_Newres = max_size();	// settle for max_size()
; 2193 : 
; 2194 : 		_Elem *_Ptr;
; 2195 : 		_TRY_BEGIN
; 2196 : 			_Ptr = this->_Getal().allocate(_Newres + 1);
; 2197 : 		_CATCH_ALL
; 2198 : 			_Newres = _Newsize;	// allocation failed, undo roundup and retry
; 2199 : 			_TRY_BEGIN
; 2200 : 				_Ptr = this->_Getal().allocate(_Newres + 1);
; 2201 : 			_CATCH_ALL
; 2202 : 			_Tidy(true);	// failed again, discard storage and reraise
; 2203 : 			_RERAISE;
; 2204 : 			_CATCH_END
; 2205 : 		_CATCH_END
; 2206 : 
; 2207 : 		if (0 < _Oldlen)
; 2208 : 			_Traits::copy(_Ptr, this->_Myptr(),
; 2209 : 				_Oldlen);	// copy existing elements
; 2210 : 		_Tidy(true);
; 2211 : 		this->_Getal().construct(&this->_Bx._Ptr, _Ptr);
; 2212 : 		this->_Myres = _Newres;
; 2213 : 		_Eos(_Oldlen);
; 2214 : 		}
; 2215 : 
; 2216 : 	void _Eos(size_type _Newsize)
; 2217 : 		{	// set new length and null terminator
; 2218 : 		_Traits::assign(this->_Myptr()[this->_Mysize = _Newsize], _Elem());

  00044	89 46 10	 mov	 DWORD PTR [esi+16], eax

; 517  : 			: this->_Bx._Buf);

  00047	72 18		 jb	 SHORT $LN25@assign
; File c:\program files (x86)\microsoft visual studio 11.0\vc\include\xstddef

; 88   : 		reinterpret_cast<const volatile char&>(_Val)))));

  00049	8b 16		 mov	 edx, DWORD PTR [esi]
; File c:\program files (x86)\microsoft visual studio 11.0\vc\include\xstring

; 1112 : 			erase((size_type)(_Roff + _Num)), erase(0, _Roff);	// substring

  0004b	51		 push	 ecx
  0004c	51		 push	 ecx
  0004d	8b ce		 mov	 ecx, esi
; File c:\program files (x86)\microsoft visual studio 11.0\vc\include\iosfwd

; 564  : 		_Left = _Right;

  0004f	c6 04 10 00	 mov	 BYTE PTR [eax+edx], 0
; File c:\program files (x86)\microsoft visual studio 11.0\vc\include\xstring

; 1112 : 			erase((size_type)(_Roff + _Num)), erase(0, _Roff);	// substring

  00053	e8 00 00 00 00	 call	 ?erase@?$basic_string@DU?$char_traits@D@std@@V?$allocator@D@2@@std@@QAEAAV12@II@Z ; std::basic_string<char,std::char_traits<char>,std::allocator<char> >::erase
  00058	5f		 pop	 edi

; 1119 : 		return (*this);

  00059	8b c6		 mov	 eax, esi
  0005b	5e		 pop	 esi
  0005c	5b		 pop	 ebx

; 1120 : 		}

  0005d	5d		 pop	 ebp
  0005e	c2 0c 00	 ret	 12			; 0000000cH
$LN25@assign:

; 1112 : 			erase((size_type)(_Roff + _Num)), erase(0, _Roff);	// substring

  00061	51		 push	 ecx

; 517  : 			: this->_Bx._Buf);

  00062	8b d6		 mov	 edx, esi

; 1112 : 			erase((size_type)(_Roff + _Num)), erase(0, _Roff);	// substring

  00064	51		 push	 ecx
  00065	8b ce		 mov	 ecx, esi
; File c:\program files (x86)\microsoft visual studio 11.0\vc\include\iosfwd

; 564  : 		_Left = _Right;

  00067	c6 04 10 00	 mov	 BYTE PTR [eax+edx], 0
; File c:\program files (x86)\microsoft visual studio 11.0\vc\include\xstring

; 1112 : 			erase((size_type)(_Roff + _Num)), erase(0, _Roff);	// substring

  0006b	e8 00 00 00 00	 call	 ?erase@?$basic_string@DU?$char_traits@D@std@@V?$allocator@D@2@@std@@QAEAAV12@II@Z ; std::basic_string<char,std::char_traits<char>,std::allocator<char> >::erase
  00070	5f		 pop	 edi

; 1119 : 		return (*this);

  00071	8b c6		 mov	 eax, esi
  00073	5e		 pop	 esi
  00074	5b		 pop	 ebx

; 1120 : 		}

  00075	5d		 pop	 ebp
  00076	c2 0c 00	 ret	 12			; 0000000cH
$LN3@assign:

; 1113 : 		else if (_Grow(_Num))

  00079	51		 push	 ecx
  0007a	57		 push	 edi
  0007b	8b ce		 mov	 ecx, esi
  0007d	e8 00 00 00 00	 call	 ?_Grow@?$basic_string@DU?$char_traits@D@std@@V?$allocator@D@2@@std@@QAE_NI_N@Z ; std::basic_string<char,std::char_traits<char>,std::allocator<char> >::_Grow
  00082	84 c0		 test	 al, al
  00084	74 46		 je	 SHORT $LN55@assign

; 518  : 		}
; 519  : 
; 520  : 	const value_type *_Myptr() const
; 521  : 		{	// determine current pointer to buffer for nonmutable string
; 522  : 		return (this->_BUF_SIZE <= this->_Myres
; 523  : 			? _STD addressof(*this->_Bx._Ptr)
; 524  : 			: this->_Bx._Buf);

  00086	83 7b 14 10	 cmp	 DWORD PTR [ebx+20], 16	; 00000010H
  0008a	72 02		 jb	 SHORT $LN33@assign
; File c:\program files (x86)\microsoft visual studio 11.0\vc\include\xstddef

; 88   : 		reinterpret_cast<const volatile char&>(_Val)))));

  0008c	8b 1b		 mov	 ebx, DWORD PTR [ebx]
$LN33@assign:
; File c:\program files (x86)\microsoft visual studio 11.0\vc\include\xstring

; 517  : 			: this->_Bx._Buf);

  0008e	83 7e 14 10	 cmp	 DWORD PTR [esi+20], 16	; 00000010H
  00092	72 04		 jb	 SHORT $LN39@assign
; File c:\program files (x86)\microsoft visual studio 11.0\vc\include\xstddef

; 88   : 		reinterpret_cast<const volatile char&>(_Val)))));

  00094	8b 0e		 mov	 ecx, DWORD PTR [esi]
; File c:\program files (x86)\microsoft visual studio 11.0\vc\include\xstring

; 517  : 			: this->_Bx._Buf);

  00096	eb 02		 jmp	 SHORT $LN40@assign
$LN39@assign:
  00098	8b ce		 mov	 ecx, esi
$LN40@assign:
; File c:\program files (x86)\microsoft visual studio 11.0\vc\include\iosfwd

; 530  : 			: (_Elem *)_CSTD memcpy(_First1, _First2, _Count));

  0009a	85 ff		 test	 edi, edi
  0009c	74 10		 je	 SHORT $LN46@assign
; File c:\program files (x86)\microsoft visual studio 11.0\vc\include\xstring

; 1116 : 				_Right._Myptr() + _Roff, _Num);

  0009e	8b 45 0c	 mov	 eax, DWORD PTR __Roff$[ebp]
; File c:\program files (x86)\microsoft visual studio 11.0\vc\include\iosfwd

; 530  : 			: (_Elem *)_CSTD memcpy(_First1, _First2, _Count));

  000a1	57		 push	 edi
; File c:\program files (x86)\microsoft visual studio 11.0\vc\include\xstring

; 1116 : 				_Right._Myptr() + _Roff, _Num);

  000a2	03 c3		 add	 eax, ebx
; File c:\program files (x86)\microsoft visual studio 11.0\vc\include\iosfwd

; 530  : 			: (_Elem *)_CSTD memcpy(_First1, _First2, _Count));

  000a4	50		 push	 eax
  000a5	51		 push	 ecx
  000a6	e8 00 00 00 00	 call	 _memcpy
  000ab	83 c4 0c	 add	 esp, 12			; 0000000cH
$LN46@assign:
; File c:\program files (x86)\microsoft visual studio 11.0\vc\include\xstring

; 517  : 			: this->_Bx._Buf);

  000ae	83 7e 14 10	 cmp	 DWORD PTR [esi+20], 16	; 00000010H

; 1311 : 			_Xran();	// _Off off end
; 1312 : 		_Eos(_Off);
; 1313 : 		return (*this);
; 1314 : 		}
; 1315 : 
; 1316 : 	_Myt& erase(size_type _Off, size_type _Count)
; 1317 : 		{	// erase elements [_Off, _Off + _Count)
; 1318 : 		if (this->_Mysize < _Off)
; 1319 : 			_Xran();	// _Off off end
; 1320 : 		if (this->_Mysize - _Off <= _Count)
; 1321 : 			_Eos(_Off);	// erase elements [_Off, ...)
; 1322 : 		else if (0 < _Count)
; 1323 : 			{	// move elements down
; 1324 : 			value_type *_Ptr = this->_Myptr() + _Off;
; 1325 : 			size_type _Newsize = this->_Mysize - _Count;
; 1326 : 			_Traits::move(_Ptr, _Ptr + _Count, _Newsize - _Off);
; 1327 : 			_Eos(_Newsize);
; 1328 : 			}
; 1329 : 		return (*this);
; 1330 : 		}
; 1331 : 
; 1332 : 	iterator erase(const_iterator _Where)
; 1333 : 		{	// erase element at _Where
; 1334 : 		size_type _Count = _Pdif(_Where, begin());
; 1335 : 		erase(_Count, 1);
; 1336 : 		return (_STRING_ITERATOR(this->_Myptr() + _Count));
; 1337 : 		}
; 1338 : 
; 1339 : 	iterator erase(const_iterator _First, const_iterator _Last)
; 1340 : 		{	// erase substring [_First, _Last)
; 1341 : 		_DEBUG_RANGE(_First, _Last);
; 1342 : 		size_type _Count = _Pdif(_First, begin());
; 1343 : 		erase(_Count, _Pdif(_Last, _First));
; 1344 : 		return (_STRING_ITERATOR(this->_Myptr() + _Count));
; 1345 : 		}
; 1346 : 
; 1347 : 	void clear() _NOEXCEPT
; 1348 : 		{	// erase all
; 1349 : 		_Eos(0);
; 1350 : 		}
; 1351 : 
; 1352 : 	_Myt& replace(size_type _Off, size_type _N0, const _Myt& _Right)
; 1353 : 		{	// replace [_Off, _Off + _N0) with _Right
; 1354 : 		return (replace(_Off, _N0, _Right, 0, npos));
; 1355 : 		}
; 1356 : 
; 1357 : 	_Myt& replace(size_type _Off,
; 1358 : 		size_type _N0, const _Myt& _Right, size_type _Roff, size_type _Count)
; 1359 : 		{	// replace [_Off, _Off + _N0) with _Right [_Roff, _Roff + _Count)
; 1360 : 		if (this->_Mysize < _Off || _Right.size() < _Roff)
; 1361 : 			_Xran();	// _Off or _Roff off end
; 1362 : 		if (this->_Mysize - _Off < _N0)
; 1363 : 			_N0 = this->_Mysize - _Off;	// trim _N0 to size
; 1364 : 		size_type _Num = _Right.size() - _Roff;
; 1365 : 		if (_Num < _Count)
; 1366 : 			_Count = _Num;	// trim _Count to size
; 1367 : 		if (npos - _Count <= this->_Mysize - _N0)
; 1368 : 			_Xlen();	// result too long
; 1369 : 
; 1370 : 		size_type _Nm = this->_Mysize - _N0 - _Off;	// length of kept tail
; 1371 : 		size_type _Newsize = this->_Mysize + _Count - _N0;
; 1372 : 		if (this->_Mysize < _Newsize)
; 1373 : 			_Grow(_Newsize);
; 1374 : 
; 1375 : 		if (this != &_Right)
; 1376 : 			{	// no overlap, just move down and copy in new stuff
; 1377 : 			_Traits::move(this->_Myptr() + _Off + _Count,
; 1378 : 				this->_Myptr() + _Off + _N0, _Nm);	// empty hole
; 1379 : 			_Traits::copy(this->_Myptr() + _Off,
; 1380 : 				_Right._Myptr() + _Roff, _Count);	// fill hole
; 1381 : 			}
; 1382 : 		else if (_Count <= _N0)
; 1383 : 			{	// hole doesn't get larger, just copy in substring
; 1384 : 			_Traits::move(this->_Myptr() + _Off,
; 1385 : 				this->_Myptr() + _Roff, _Count);	// fill hole
; 1386 : 			_Traits::move(this->_Myptr() + _Off + _Count,
; 1387 : 				this->_Myptr() + _Off + _N0, _Nm);	// move tail down
; 1388 : 			}
; 1389 : 		else if (_Roff <= _Off)
; 1390 : 			{	// hole gets larger, substring begins before hole
; 1391 : 			_Traits::move(this->_Myptr() + _Off + _Count,
; 1392 : 				this->_Myptr() + _Off + _N0, _Nm);	// move tail down
; 1393 : 			_Traits::move(this->_Myptr() + _Off,
; 1394 : 				this->_Myptr() + _Roff, _Count);	// fill hole
; 1395 : 			}
; 1396 : 		else if (_Off + _N0 <= _Roff)
; 1397 : 			{	// hole gets larger, substring begins after hole
; 1398 : 			_Traits::move(this->_Myptr() + _Off + _Count,
; 1399 : 				this->_Myptr() + _Off + _N0, _Nm);	// move tail down
; 1400 : 			_Traits::move(this->_Myptr() + _Off,
; 1401 : 				this->_Myptr() + (_Roff + _Count - _N0),
; 1402 : 				_Count);	// fill hole
; 1403 : 			}
; 1404 : 		else
; 1405 : 			{	// hole gets larger, substring begins in hole
; 1406 : 			_Traits::move(this->_Myptr() + _Off,
; 1407 : 				this->_Myptr() + _Roff, _N0);	// fill old hole
; 1408 : 			_Traits::move(this->_Myptr() + _Off + _Count,
; 1409 : 				this->_Myptr() + _Off + _N0, _Nm);	// move tail down
; 1410 : 			_Traits::move(this->_Myptr() + _Off + _N0,
; 1411 : 				this->_Myptr() + _Roff + _Count,
; 1412 : 				_Count - _N0);	// fill rest of new hole
; 1413 : 			}
; 1414 : 
; 1415 : 		_Eos(_Newsize);
; 1416 : 		return (*this);
; 1417 : 		}
; 1418 : 
; 1419 : 	_Myt& replace(size_type _Off,
; 1420 : 		size_type _N0, const _Elem *_Ptr, size_type _Count)
; 1421 : 		{	// replace [_Off, _Off + _N0) with [_Ptr, _Ptr + _Count)
; 1422 :  #if _ITERATOR_DEBUG_LEVEL == 2
; 1423 : 		if (_Count != 0)
; 1424 : 			_DEBUG_POINTER(_Ptr);
; 1425 :  #endif /* _ITERATOR_DEBUG_LEVEL == 2 */
; 1426 : 
; 1427 : 		if (_Inside(_Ptr))
; 1428 : 			return (replace(_Off, _N0, *this,
; 1429 : 				_Ptr - this->_Myptr(),
; 1430 : 				_Count));	// substring, replace carefully
; 1431 : 		if (this->_Mysize < _Off)
; 1432 : 			_Xran();	// _Off off end
; 1433 : 		if (this->_Mysize - _Off < _N0)
; 1434 : 			_N0 = this->_Mysize - _Off;	// trim _N0 to size
; 1435 : 		if (npos - _Count <= this->_Mysize - _N0)
; 1436 : 			_Xlen();	// result too long
; 1437 : 		size_type _Nm = this->_Mysize - _N0 - _Off;
; 1438 : 
; 1439 : 		if (_Count < _N0)
; 1440 : 			_Traits::move(this->_Myptr() + _Off + _Count,
; 1441 : 				this->_Myptr() + _Off + _N0,
; 1442 : 				_Nm);	// smaller hole, move tail up
; 1443 : 		size_type _Num;
; 1444 : 		if ((0 < _Count || 0 < _N0)
; 1445 : 			&& _Grow(_Num = this->_Mysize + _Count - _N0))
; 1446 : 			{	// make room and rearrange
; 1447 : 			if (_N0 < _Count)
; 1448 : 				_Traits::move(this->_Myptr() + _Off + _Count,
; 1449 : 					this->_Myptr() + _Off + _N0, _Nm);	// move tail down
; 1450 : 			_Traits::copy(this->_Myptr() + _Off, _Ptr, _Count);	// fill hole
; 1451 : 			_Eos(_Num);
; 1452 : 			}
; 1453 : 		return (*this);
; 1454 : 		}
; 1455 : 
; 1456 : 	_Myt& replace(size_type _Off, size_type _N0, const _Elem *_Ptr)
; 1457 : 		{	// replace [_Off, _Off + _N0) with [_Ptr, <null>)
; 1458 : 		_DEBUG_POINTER(_Ptr);
; 1459 : 		return (replace(_Off, _N0, _Ptr, _Traits::length(_Ptr)));
; 1460 : 		}
; 1461 : 
; 1462 : 	_Myt& replace(size_type _Off,
; 1463 : 		size_type _N0, size_type _Count, _Elem _Ch)
; 1464 : 		{	// replace [_Off, _Off + _N0) with _Count * _Ch
; 1465 : 		if (this->_Mysize < _Off)
; 1466 : 			_Xran();	// _Off off end
; 1467 : 		if (this->_Mysize - _Off < _N0)
; 1468 : 			_N0 = this->_Mysize - _Off;	// trim _N0 to size
; 1469 : 		if (npos - _Count <= this->_Mysize - _N0)
; 1470 : 			_Xlen();	// result too long
; 1471 : 		size_type _Nm = this->_Mysize - _N0 - _Off;
; 1472 : 
; 1473 : 		if (_Count < _N0)
; 1474 : 			_Traits::move(this->_Myptr() + _Off + _Count,
; 1475 : 				this->_Myptr() + _Off + _N0,
; 1476 : 				_Nm);	// smaller hole, move tail up
; 1477 : 		size_type _Num;
; 1478 : 		if ((0 < _Count || 0 < _N0)
; 1479 : 			&& _Grow(_Num = this->_Mysize + _Count - _N0))
; 1480 : 			{	// make room and rearrange
; 1481 : 			if (_N0 < _Count)
; 1482 : 				_Traits::move(this->_Myptr() + _Off + _Count,
; 1483 : 					this->_Myptr() + _Off + _N0, _Nm);	// move tail down
; 1484 : 			_Chassign(_Off, _Count, _Ch);	// fill hole
; 1485 : 			_Eos(_Num);
; 1486 : 			}
; 1487 : 		return (*this);
; 1488 : 		}
; 1489 : 
; 1490 : 	_Myt& replace(const_iterator _First, const_iterator _Last,
; 1491 : 		const _Myt& _Right)
; 1492 : 		{	// replace [_First, _Last) with _Right
; 1493 : 		return (replace(
; 1494 : 			_Pdif(_First, begin()), _Pdif(_Last, _First), _Right));
; 1495 : 		}
; 1496 : 
; 1497 : 	_Myt& replace(const_iterator _First, const_iterator _Last,
; 1498 : 		const _Elem *_Ptr, size_type _Count)
; 1499 : 		{	// replace [_First, _Last) with [_Ptr, _Ptr + _Count)
; 1500 : 		return (replace(
; 1501 : 			_Pdif(_First, begin()), _Pdif(_Last, _First), _Ptr, _Count));
; 1502 : 		}
; 1503 : 
; 1504 : 	_Myt& replace(const_iterator _First, const_iterator _Last,
; 1505 : 		const _Elem *_Ptr)
; 1506 : 		{	// replace [_First, _Last) with [_Ptr, <null>)
; 1507 : 		return (replace(
; 1508 : 			_Pdif(_First, begin()), _Pdif(_Last, _First), _Ptr));
; 1509 : 		}
; 1510 : 
; 1511 : 	_Myt& replace(const_iterator _First, const_iterator _Last,
; 1512 : 		size_type _Count, _Elem _Ch)
; 1513 : 		{	// replace [_First, _Last) with _Count * _Ch
; 1514 : 		return (replace(
; 1515 : 			_Pdif(_First, begin()), _Pdif(_Last, _First), _Count, _Ch));
; 1516 : 		}
; 1517 : 
; 1518 : 	template<class _Iter>
; 1519 : 		typename enable_if<_Is_iterator<_Iter>::value,
; 1520 : 			_Myt&>::type
; 1521 : 		replace(const_iterator _First, const_iterator _Last,
; 1522 : 			_Iter _First2, _Iter _Last2)
; 1523 : 		{	// replace [_First, _Last) with [_First2, _Last2), input iterators
; 1524 : 		_Myt _Right(_First2, _Last2);
; 1525 : 		replace(_First, _Last, _Right);
; 1526 : 		return (*this);
; 1527 : 		}
; 1528 : 
; 1529 : 	_Myt& replace(const_iterator _First, const_iterator _Last,
; 1530 : 		const_pointer _First2, const_pointer _Last2)
; 1531 : 		{	// replace [_First, _Last) with [_First2, _Last2), const pointers
; 1532 : 		if (_First2 == _Last2)
; 1533 : 			erase(_Pdif(_First, begin()), _Pdif(_Last, _First));
; 1534 : 		else
; 1535 : 			replace(_Pdif(_First, begin()), _Pdif(_Last, _First),
; 1536 : 				&*_First2, _Last2 - _First2);
; 1537 : 		return (*this);
; 1538 : 		}
; 1539 : 
; 1540 : 	_Myt& replace(const_iterator _First, const_iterator _Last,
; 1541 : 		pointer _First2, pointer _Last2)
; 1542 : 		{	// replace [_First, _Last) with [_First2, _Last2), const pointers
; 1543 : 		if (_First2 == _Last2)
; 1544 : 			erase(_Pdif(_First, begin()), _Pdif(_Last, _First));
; 1545 : 		else
; 1546 : 			replace(_Pdif(_First, begin()), _Pdif(_Last, _First),
; 1547 : 				&*_First2, _Last2 - _First2);
; 1548 : 		return (*this);
; 1549 : 		}
; 1550 : 
; 1551 : 	_Myt& replace(const_iterator _First, const_iterator _Last,
; 1552 : 		const_iterator _First2, const_iterator _Last2)
; 1553 : 		{	// replace [_First, _Last) with [_First2, _Last2), const_iterators
; 1554 : 		if (_First2 == _Last2)
; 1555 : 			erase(_Pdif(_First, begin()), _Pdif(_Last, _First));
; 1556 : 		else
; 1557 : 			replace(_Pdif(_First, begin()), _Pdif(_Last, _First),
; 1558 : 				&*_First2, _Last2 - _First2);
; 1559 : 		return (*this);
; 1560 : 		}
; 1561 : 
; 1562 : 	_Myt& replace(const_iterator _First, const_iterator _Last,
; 1563 : 		iterator _First2, iterator _Last2)
; 1564 : 		{	// replace [_First, _Last) with [_First2, _Last2), const_iterators
; 1565 : 		if (_First2 == _Last2)
; 1566 : 			erase(_Pdif(_First, begin()), _Pdif(_Last, _First));
; 1567 : 		else
; 1568 : 			replace(_Pdif(_First, begin()), _Pdif(_Last, _First),
; 1569 : 				&*_First2, _Last2 - _First2);
; 1570 : 		return (*this);
; 1571 : 		}
; 1572 : 
; 1573 : 	iterator begin() _NOEXCEPT
; 1574 : 		{	// return iterator for beginning of mutable sequence
; 1575 : 		return (_STRING_ITERATOR(this->_Myptr()));
; 1576 : 		}
; 1577 : 
; 1578 : 	const_iterator begin() const _NOEXCEPT
; 1579 : 		{	// return iterator for beginning of nonmutable sequence
; 1580 : 		return (_STRING_CONST_ITERATOR(this->_Myptr()));
; 1581 : 		}
; 1582 : 
; 1583 : 	iterator end() _NOEXCEPT
; 1584 : 		{	// return iterator for end of mutable sequence
; 1585 : 		return (_STRING_ITERATOR(this->_Myptr() + this->_Mysize));
; 1586 : 		}
; 1587 : 
; 1588 : 	const_iterator end() const _NOEXCEPT
; 1589 : 		{	// return iterator for end of nonmutable sequence
; 1590 : 		return (_STRING_CONST_ITERATOR(this->_Myptr() + this->_Mysize));
; 1591 : 		}
; 1592 : 
; 1593 : 	reverse_iterator rbegin() _NOEXCEPT
; 1594 : 		{	// return iterator for beginning of reversed mutable sequence
; 1595 : 		return (reverse_iterator(end()));
; 1596 : 		}
; 1597 : 
; 1598 : 	const_reverse_iterator rbegin() const _NOEXCEPT
; 1599 : 		{	// return iterator for beginning of reversed nonmutable sequence
; 1600 : 		return (const_reverse_iterator(end()));
; 1601 : 		}
; 1602 : 
; 1603 : 	reverse_iterator rend() _NOEXCEPT
; 1604 : 		{	// return iterator for end of reversed mutable sequence
; 1605 : 		return (reverse_iterator(begin()));
; 1606 : 		}
; 1607 : 
; 1608 : 	const_reverse_iterator rend() const _NOEXCEPT
; 1609 : 		{	// return iterator for end of reversed nonmutable sequence
; 1610 : 		return (const_reverse_iterator(begin()));
; 1611 : 		}
; 1612 : 
; 1613 :  #if _HAS_CPP0X
; 1614 : 	const_iterator cbegin() const _NOEXCEPT
; 1615 : 		{	// return iterator for beginning of nonmutable sequence
; 1616 : 		return (((const _Myt *)this)->begin());
; 1617 : 		}
; 1618 : 
; 1619 : 	const_iterator cend() const _NOEXCEPT
; 1620 : 		{	// return iterator for end of nonmutable sequence
; 1621 : 		return (((const _Myt *)this)->end());
; 1622 : 		}
; 1623 : 
; 1624 : 	const_reverse_iterator crbegin() const _NOEXCEPT
; 1625 : 		{	// return iterator for beginning of reversed nonmutable sequence
; 1626 : 		return (((const _Myt *)this)->rbegin());
; 1627 : 		}
; 1628 : 
; 1629 : 	const_reverse_iterator crend() const _NOEXCEPT
; 1630 : 		{	// return iterator for end of reversed nonmutable sequence
; 1631 : 		return (((const _Myt *)this)->rend());
; 1632 : 		}
; 1633 : 
; 1634 : 	void shrink_to_fit()
; 1635 : 		{	// reduce capacity
; 1636 : 		if ((size() | this->_ALLOC_MASK) < capacity())
; 1637 : 			{	// worth shrinking, do it
; 1638 : 			_Myt _Tmp(*this);
; 1639 : 			swap(_Tmp);
; 1640 : 			}
; 1641 : 		}
; 1642 :  #endif /* _HAS_CPP0X */
; 1643 : 
; 1644 : 	reference at(size_type _Off)
; 1645 : 		{	// subscript mutable sequence with checking
; 1646 : 		if (this->_Mysize <= _Off)
; 1647 : 			_Xran();	// _Off off end
; 1648 : 		return (this->_Myptr()[_Off]);
; 1649 : 		}
; 1650 : 
; 1651 : 	const_reference at(size_type _Off) const
; 1652 : 		{	// subscript nonmutable sequence with checking
; 1653 : 		if (this->_Mysize <= _Off)
; 1654 : 			_Xran();	// _Off off end
; 1655 : 		return (this->_Myptr()[_Off]);
; 1656 : 		}
; 1657 : 
; 1658 : 	reference operator[](size_type _Off)
; 1659 : 		{	// subscript mutable sequence
; 1660 :  #if _ITERATOR_DEBUG_LEVEL == 2
; 1661 : 		if (this->_Mysize < _Off)	// sic
; 1662 : 			_DEBUG_ERROR("string subscript out of range");
; 1663 : 
; 1664 :  #elif _ITERATOR_DEBUG_LEVEL == 1
; 1665 : 		_SCL_SECURE_VALIDATE_RANGE(_Off <= this->_Mysize);	// sic
; 1666 :  #endif /* _ITERATOR_DEBUG_LEVEL == 2 */
; 1667 : 
; 1668 : 		return (this->_Myptr()[_Off]);
; 1669 : 		}
; 1670 : 
; 1671 : 	const_reference operator[](size_type _Off) const
; 1672 : 		{	// subscript nonmutable sequence
; 1673 :  #if _ITERATOR_DEBUG_LEVEL == 2
; 1674 : 		if (this->_Mysize < _Off)	// sic
; 1675 : 			_DEBUG_ERROR("string subscript out of range");
; 1676 : 
; 1677 :  #elif _ITERATOR_DEBUG_LEVEL == 1
; 1678 : 		_SCL_SECURE_VALIDATE_RANGE(_Off <= this->_Mysize);	// sic
; 1679 :  #endif /* _ITERATOR_DEBUG_LEVEL == 2 */
; 1680 : 
; 1681 : 		return (this->_Myptr()[_Off]);
; 1682 : 		}
; 1683 : 
; 1684 : 	void push_back(_Elem _Ch)
; 1685 : 		{	// insert element at end
; 1686 : 		insert(end(), _Ch);
; 1687 : 		}
; 1688 : 
; 1689 :  #if _HAS_CPP0X
; 1690 : 	void pop_back()
; 1691 : 		{	// erase element at end
; 1692 : 		erase(this->_Mysize - 1);	// throws if _Mysize == 0
; 1693 : 		}
; 1694 : 
; 1695 : 	reference front()
; 1696 : 		{	// return first element of mutable sequence
; 1697 : 		return (*begin());
; 1698 : 		}
; 1699 : 
; 1700 : 	const_reference front() const
; 1701 : 		{	// return first element of nonmutable sequence
; 1702 : 		return (*begin());
; 1703 : 		}
; 1704 : 
; 1705 : 	reference back()
; 1706 : 		{	// return last element of mutable sequence
; 1707 : 		return (*(end() - 1));
; 1708 : 		}
; 1709 : 
; 1710 : 	const_reference back() const
; 1711 : 		{	// return last element of nonmutable sequence
; 1712 : 		return (*(end() - 1));
; 1713 : 		}
; 1714 :  #endif /* _HAS_CPP0X */
; 1715 : 
; 1716 : 	const _Elem *c_str() const _NOEXCEPT
; 1717 : 		{	// return pointer to null-terminated nonmutable array
; 1718 : 		return (this->_Myptr());
; 1719 : 		}
; 1720 : 
; 1721 : 	const _Elem *data() const _NOEXCEPT
; 1722 : 		{	// return pointer to nonmutable array
; 1723 : 		return (c_str());
; 1724 : 		}
; 1725 : 
; 1726 : 	size_type length() const _NOEXCEPT
; 1727 : 		{	// return length of sequence
; 1728 : 		return (this->_Mysize);
; 1729 : 		}
; 1730 : 
; 1731 : 	size_type size() const _NOEXCEPT
; 1732 : 		{	// return length of sequence
; 1733 : 		return (this->_Mysize);
; 1734 : 		}
; 1735 : 
; 1736 : 	size_type max_size() const _NOEXCEPT
; 1737 : 		{	// return maximum possible length of sequence
; 1738 : 		size_type _Num = this->_Getal().max_size();
; 1739 : 		return (_Num <= 1 ? 1 : _Num - 1);
; 1740 : 		}
; 1741 : 
; 1742 : 	void resize(size_type _Newsize)
; 1743 : 		{	// determine new length, padding with null elements as needed
; 1744 : 		resize(_Newsize, _Elem());
; 1745 : 		}
; 1746 : 
; 1747 : 	void resize(size_type _Newsize, _Elem _Ch)
; 1748 : 		{	// determine new length, padding with _Ch elements as needed
; 1749 : 		if (_Newsize <= this->_Mysize)
; 1750 : 			_Eos(_Newsize);
; 1751 : 		else
; 1752 : 			append(_Newsize - this->_Mysize, _Ch);
; 1753 : 		}
; 1754 : 
; 1755 : 	size_type capacity() const _NOEXCEPT
; 1756 : 		{	// return current length of allocated storage
; 1757 : 		return (this->_Myres);
; 1758 : 		}
; 1759 : 
; 1760 : 	void reserve(size_type _Newcap = 0)
; 1761 : 		{	// determine new minimum length of allocated storage
; 1762 : 		if (this->_Mysize <= _Newcap && this->_Myres != _Newcap)
; 1763 : 			{	// change reservation
; 1764 : 			size_type _Size = this->_Mysize;
; 1765 : 			if (_Grow(_Newcap, true))
; 1766 : 				_Eos(_Size);
; 1767 : 			}
; 1768 : 		}
; 1769 : 
; 1770 : 	bool empty() const _NOEXCEPT
; 1771 : 		{	// test if sequence is empty
; 1772 : 		return (this->_Mysize == 0);
; 1773 : 		}
; 1774 : 
; 1775 : 	_SCL_INSECURE_DEPRECATE
; 1776 : 
; 1777 : 	size_type copy(_Elem *_Ptr,
; 1778 : 		size_type _Count, size_type _Off = 0) const
; 1779 : 		{	// copy [_Off, _Off + _Count) to [_Ptr, _Ptr + _Count)
; 1780 :  #if _ITERATOR_DEBUG_LEVEL == 2
; 1781 : 		if (_Count != 0)
; 1782 : 			_DEBUG_POINTER(_Ptr);
; 1783 :  #endif /* _ITERATOR_DEBUG_LEVEL == 2 */
; 1784 : 
; 1785 : 		if (this->_Mysize < _Off)
; 1786 : 			_Xran();	// _Off off end
; 1787 : 		if (this->_Mysize - _Off < _Count)
; 1788 : 			_Count = this->_Mysize - _Off;
; 1789 : 		_Traits::copy(_Ptr, this->_Myptr() + _Off, _Count);
; 1790 : 		return (_Count);
; 1791 : 		}
; 1792 : 
; 1793 : 	size_type _Copy_s(_Elem *_Dest, size_type _Dest_size,
; 1794 : 		size_type _Count, size_type _Off = 0) const
; 1795 : 		{	// copy [_Off, _Off + _Count) to [_Dest, _Dest + _Count)
; 1796 :  #if _ITERATOR_DEBUG_LEVEL == 2
; 1797 : 		if (_Count != 0)
; 1798 : 			_DEBUG_POINTER(_Dest);
; 1799 :  #endif /* _ITERATOR_DEBUG_LEVEL == 2 */
; 1800 : 
; 1801 : 		if (this->_Mysize < _Off)
; 1802 : 			_Xran();	// _Off off end
; 1803 : 		if (this->_Mysize - _Off < _Count)
; 1804 : 			_Count = this->_Mysize - _Off;
; 1805 : 		_Traits::_Copy_s(_Dest, _Dest_size, this->_Myptr() + _Off, _Count);
; 1806 : 		return (_Count);
; 1807 : 		}
; 1808 : 
; 1809 : 	void _Swap_bx(_Myt& _Right)
; 1810 : 		{	// exchange _Bx with _Right._Bx
; 1811 : 		if (this->_BUF_SIZE <= this->_Myres)
; 1812 : 			if (this->_BUF_SIZE <= _Right._Myres)
; 1813 : 				_Swap_adl(this->_Bx._Ptr, _Right._Bx._Ptr);
; 1814 : 			else
; 1815 : 				{	// swap large with small
; 1816 : 				pointer _Ptr = this->_Bx._Ptr;
; 1817 : 				this->_Getal().destroy(&this->_Bx._Ptr);
; 1818 : 				_Traits::copy(this->_Bx._Buf,
; 1819 : 					_Right._Bx._Buf, _Right._Mysize + 1);
; 1820 : 				this->_Getal().construct(&_Right._Bx._Ptr, _Ptr);
; 1821 : 				}
; 1822 : 		else
; 1823 : 			if (_Right._Myres < this->_BUF_SIZE)
; 1824 : 				_STD swap(this->_Bx._Buf, _Right._Bx._Buf);
; 1825 : 			else
; 1826 : 				{	// swap small with large
; 1827 : 				pointer _Ptr = _Right._Bx._Ptr;
; 1828 : 				this->_Getal().destroy(&_Right._Bx._Ptr);
; 1829 : 				_Traits::copy(_Right._Bx._Buf,
; 1830 : 					this->_Bx._Buf, this->_Mysize + 1);
; 1831 : 				this->_Getal().construct(&this->_Bx._Ptr, _Ptr);
; 1832 : 				}
; 1833 : 		}
; 1834 : 
; 1835 : 	void swap(_Myt& _Right)
; 1836 : 		{	// exchange contents with _Right
; 1837 : 		if (this == &_Right)
; 1838 : 			;	// same object, do nothing
; 1839 : 		else if (this->_Getal() == _Right._Getal())
; 1840 : 			{	// same allocator, swap control information
; 1841 : 			this->_Swap_all(_Right);
; 1842 : 			_Swap_bx(_Right);
; 1843 : 			_STD swap(this->_Mysize, _Right._Mysize);
; 1844 : 			_STD swap(this->_Myres, _Right._Myres);
; 1845 : 			}
; 1846 : 
; 1847 :  #if _HAS_CPP0X
; 1848 : 		else if (_Alty::propagate_on_container_swap::value)
; 1849 : 			{	// swap allocators and control information
; 1850 : 			this->_Swap_alloc(_Right);
; 1851 : 			_Swap_bx(_Right);
; 1852 : 			_STD swap(this->_Bx, _Right._Bx);	// pointer bitwise copyable?
; 1853 : 			_STD swap(this->_Mysize, _Right._Mysize);
; 1854 : 			_STD swap(this->_Myres, _Right._Myres);
; 1855 : 			}
; 1856 :  #endif /* _HAS_CPP0X */
; 1857 : 
; 1858 : 		else
; 1859 : 			{	// different allocator, do multiple assigns
; 1860 : 			_Myt _Tmp = *this;
; 1861 : 
; 1862 : 			*this = _Right;
; 1863 : 			_Right = _Tmp;
; 1864 : 			}
; 1865 : 		}
; 1866 : 
; 1867 : 	size_type find(const _Myt& _Right, size_type _Off = 0) const _NOEXCEPT
; 1868 : 		{	// look for _Right beginning at or after _Off
; 1869 : 		return (find(_Right._Myptr(), _Off, _Right.size()));
; 1870 : 		}
; 1871 : 
; 1872 : 	size_type find(const _Elem *_Ptr,
; 1873 : 		size_type _Off, size_type _Count) const
; 1874 : 		{	// look for [_Ptr, _Ptr + _Count) beginning at or after _Off
; 1875 :  #if _ITERATOR_DEBUG_LEVEL == 2
; 1876 : 		if (_Count != 0)
; 1877 : 			_DEBUG_POINTER(_Ptr);
; 1878 :  #endif /* _ITERATOR_DEBUG_LEVEL == 2 */
; 1879 : 
; 1880 : 		if (_Count == 0 && _Off <= this->_Mysize)
; 1881 : 			return (_Off);	// null string always matches (if inside string)
; 1882 : 
; 1883 : 		size_type _Nm;
; 1884 : 		if (_Off < this->_Mysize && _Count <= (_Nm = this->_Mysize - _Off))
; 1885 : 			{	// room for match, look for it
; 1886 : 			const _Elem *_Uptr, *_Vptr;
; 1887 : 			for (_Nm -= _Count - 1, _Vptr = this->_Myptr() + _Off;
; 1888 : 				(_Uptr = _Traits::find(_Vptr, _Nm, *_Ptr)) != 0;
; 1889 : 				_Nm -= _Uptr - _Vptr + 1, _Vptr = _Uptr + 1)
; 1890 : 				if (_Traits::compare(_Uptr, _Ptr, _Count) == 0)
; 1891 : 					return (_Uptr - this->_Myptr());	// found a match
; 1892 : 			}
; 1893 : 
; 1894 : 		return (npos);	// no match
; 1895 : 		}
; 1896 : 
; 1897 : 	size_type find(const _Elem *_Ptr, size_type _Off = 0) const
; 1898 : 		{	// look for [_Ptr, <null>) beginning at or after _Off
; 1899 : 		_DEBUG_POINTER(_Ptr);
; 1900 : 		return (find(_Ptr, _Off, _Traits::length(_Ptr)));
; 1901 : 		}
; 1902 : 
; 1903 : 	size_type find(_Elem _Ch, size_type _Off = 0) const
; 1904 : 		{	// look for _Ch at or after _Off
; 1905 : 		return (find((const _Elem *)&_Ch, _Off, 1));
; 1906 : 		}
; 1907 : 
; 1908 : 	size_type rfind(const _Myt& _Right, size_type _Off = npos) const _NOEXCEPT
; 1909 : 		{	// look for _Right beginning before _Off
; 1910 : 		return (rfind(_Right._Myptr(), _Off, _Right.size()));
; 1911 : 		}
; 1912 : 
; 1913 : 	size_type rfind(const _Elem *_Ptr,
; 1914 : 		size_type _Off, size_type _Count) const
; 1915 : 		{	// look for [_Ptr, _Ptr + _Count) beginning before _Off
; 1916 :  #if _ITERATOR_DEBUG_LEVEL == 2
; 1917 : 		if (_Count != 0)
; 1918 : 			_DEBUG_POINTER(_Ptr);
; 1919 :  #endif /* _ITERATOR_DEBUG_LEVEL == 2 */
; 1920 : 
; 1921 : 		if (_Count == 0)
; 1922 : 			return (_Off < this->_Mysize ? _Off
; 1923 : 				: this->_Mysize);	// null always matches
; 1924 : 		if (_Count <= this->_Mysize)
; 1925 : 			{	// room for match, look for it
; 1926 : 			const _Elem *_Uptr = this->_Myptr() +
; 1927 : 				(_Off < this->_Mysize - _Count ? _Off
; 1928 : 					: this->_Mysize - _Count);
; 1929 : 			for (; ; --_Uptr)
; 1930 : 				if (_Traits::eq(*_Uptr, *_Ptr)
; 1931 : 					&& _Traits::compare(_Uptr, _Ptr, _Count) == 0)
; 1932 : 					return (_Uptr - this->_Myptr());	// found a match
; 1933 : 				else if (_Uptr == this->_Myptr())
; 1934 : 					break;	// at beginning, no more chance for match
; 1935 : 			}
; 1936 : 
; 1937 : 		return (npos);	// no match
; 1938 : 		}
; 1939 : 
; 1940 : 	size_type rfind(const _Elem *_Ptr, size_type _Off = npos) const
; 1941 : 		{	// look for [_Ptr, <null>) beginning before _Off
; 1942 : 		_DEBUG_POINTER(_Ptr);
; 1943 : 		return (rfind(_Ptr, _Off, _Traits::length(_Ptr)));
; 1944 : 		}
; 1945 : 
; 1946 : 	size_type rfind(_Elem _Ch, size_type _Off = npos) const
; 1947 : 		{	// look for _Ch before _Off
; 1948 : 		return (rfind((const _Elem *)&_Ch, _Off, 1));
; 1949 : 		}
; 1950 : 
; 1951 : 	size_type find_first_of(const _Myt& _Right,
; 1952 : 		size_type _Off = 0) const _NOEXCEPT
; 1953 : 		{	// look for one of _Right at or after _Off
; 1954 : 		return (find_first_of(_Right._Myptr(), _Off, _Right.size()));
; 1955 : 		}
; 1956 : 
; 1957 : 	size_type find_first_of(const _Elem *_Ptr,
; 1958 : 		size_type _Off, size_type _Count) const
; 1959 : 		{	// look for one of [_Ptr, _Ptr + _Count) at or after _Off
; 1960 :  #if _ITERATOR_DEBUG_LEVEL == 2
; 1961 : 		if (_Count != 0)
; 1962 : 			_DEBUG_POINTER(_Ptr);
; 1963 :  #endif /* _ITERATOR_DEBUG_LEVEL == 2 */
; 1964 : 
; 1965 : 		if (0 < _Count && _Off < this->_Mysize)
; 1966 : 			{	// room for match, look for it
; 1967 : 			const _Elem *const _Vptr = this->_Myptr() + this->_Mysize;
; 1968 : 			for (const _Elem *_Uptr = this->_Myptr() + _Off;
; 1969 : 				_Uptr < _Vptr; ++_Uptr)
; 1970 : 				if (_Traits::find(_Ptr, _Count, *_Uptr) != 0)
; 1971 : 					return (_Uptr - this->_Myptr());	// found a match
; 1972 : 			}
; 1973 : 
; 1974 : 		return (npos);	// no match
; 1975 : 		}
; 1976 : 
; 1977 : 	size_type find_first_of(const _Elem *_Ptr,
; 1978 : 		size_type _Off = 0) const
; 1979 : 		{	// look for one of [_Ptr, <null>) at or after _Off
; 1980 : 		_DEBUG_POINTER(_Ptr);
; 1981 : 		return (find_first_of(_Ptr, _Off, _Traits::length(_Ptr)));
; 1982 : 		}
; 1983 : 
; 1984 : 	size_type find_first_of(_Elem _Ch,
; 1985 : 		size_type _Off = 0) const
; 1986 : 		{	// look for _Ch at or after _Off
; 1987 : 		return (find((const _Elem *)&_Ch, _Off, 1));
; 1988 : 		}
; 1989 : 
; 1990 : 	size_type find_last_of(const _Myt& _Right,
; 1991 : 		size_type _Off = npos) const _NOEXCEPT
; 1992 : 		{	// look for one of _Right before _Off
; 1993 : 		return (find_last_of(_Right._Myptr(), _Off, _Right.size()));
; 1994 : 		}
; 1995 : 
; 1996 : 	size_type find_last_of(const _Elem *_Ptr,
; 1997 : 		size_type _Off, size_type _Count) const
; 1998 : 		{	// look for one of [_Ptr, _Ptr + _Count) before _Off
; 1999 :  #if _ITERATOR_DEBUG_LEVEL == 2
; 2000 : 		if (_Count != 0)
; 2001 : 			_DEBUG_POINTER(_Ptr);
; 2002 :  #endif /* _ITERATOR_DEBUG_LEVEL == 2 */
; 2003 : 
; 2004 : 		if (0 < _Count && 0 < this->_Mysize)
; 2005 : 			{	// worth searching, do it
; 2006 : 			const _Elem *_Uptr = this->_Myptr()
; 2007 : 				+ (_Off < this->_Mysize ? _Off : this->_Mysize - 1);
; 2008 : 			for (; ; --_Uptr)
; 2009 : 				if (_Traits::find(_Ptr, _Count, *_Uptr) != 0)
; 2010 : 					return (_Uptr - this->_Myptr());	// found a match
; 2011 : 				else if (_Uptr == this->_Myptr())
; 2012 : 					break;	// at beginning, no more chance for match
; 2013 : 			}
; 2014 : 
; 2015 : 		return (npos);	// no match
; 2016 : 		}
; 2017 : 
; 2018 : 	size_type find_last_of(const _Elem *_Ptr,
; 2019 : 		size_type _Off = npos) const
; 2020 : 		{	// look for one of [_Ptr, <null>) before _Off
; 2021 : 		_DEBUG_POINTER(_Ptr);
; 2022 : 		return (find_last_of(_Ptr, _Off, _Traits::length(_Ptr)));
; 2023 : 		}
; 2024 : 
; 2025 : 	size_type find_last_of(_Elem _Ch,
; 2026 : 		size_type _Off = npos) const
; 2027 : 		{	// look for _Ch before _Off
; 2028 : 		return (rfind((const _Elem *)&_Ch, _Off, 1));
; 2029 : 		}
; 2030 : 
; 2031 : 	size_type find_first_not_of(const _Myt& _Right,
; 2032 : 		size_type _Off = 0) const _NOEXCEPT
; 2033 : 		{	// look for none of _Right at or after _Off
; 2034 : 		return (find_first_not_of(_Right._Myptr(), _Off,
; 2035 : 			_Right.size()));
; 2036 : 		}
; 2037 : 
; 2038 : 	size_type find_first_not_of(const _Elem *_Ptr,
; 2039 : 		size_type _Off, size_type _Count) const
; 2040 : 		{	// look for none of [_Ptr, _Ptr + _Count) at or after _Off
; 2041 :  #if _ITERATOR_DEBUG_LEVEL == 2
; 2042 : 		if (_Count != 0)
; 2043 : 			_DEBUG_POINTER(_Ptr);
; 2044 :  #endif /* _ITERATOR_DEBUG_LEVEL == 2 */
; 2045 : 
; 2046 : 		if (_Off < this->_Mysize)
; 2047 : 			{	// room for match, look for it
; 2048 : 			const _Elem *const _Vptr = this->_Myptr() + this->_Mysize;
; 2049 : 			for (const _Elem *_Uptr = this->_Myptr() + _Off;
; 2050 : 				_Uptr < _Vptr; ++_Uptr)
; 2051 : 				if (_Traits::find(_Ptr, _Count, *_Uptr) == 0)
; 2052 : 					return (_Uptr - this->_Myptr());
; 2053 : 			}
; 2054 : 		return (npos);
; 2055 : 		}
; 2056 : 
; 2057 : 	size_type find_first_not_of(const _Elem *_Ptr,
; 2058 : 		size_type _Off = 0) const
; 2059 : 		{	// look for one of [_Ptr, <null>) at or after _Off
; 2060 : 		_DEBUG_POINTER(_Ptr);
; 2061 : 		return (find_first_not_of(_Ptr, _Off, _Traits::length(_Ptr)));
; 2062 : 		}
; 2063 : 
; 2064 : 	size_type find_first_not_of(_Elem _Ch,
; 2065 : 		size_type _Off = 0) const
; 2066 : 		{	// look for non _Ch at or after _Off
; 2067 : 		return (find_first_not_of((const _Elem *)&_Ch, _Off, 1));
; 2068 : 		}
; 2069 : 
; 2070 : 	size_type find_last_not_of(const _Myt& _Right,
; 2071 : 		size_type _Off = npos) const _NOEXCEPT
; 2072 : 		{	// look for none of _Right before _Off
; 2073 : 		return (find_last_not_of(_Right._Myptr(), _Off, _Right.size()));
; 2074 : 		}
; 2075 : 
; 2076 : 	size_type find_last_not_of(const _Elem *_Ptr,
; 2077 : 		size_type _Off, size_type _Count) const
; 2078 : 		{	// look for none of [_Ptr, _Ptr + _Count) before _Off
; 2079 :  #if _ITERATOR_DEBUG_LEVEL == 2
; 2080 : 		if (_Count != 0)
; 2081 : 			_DEBUG_POINTER(_Ptr);
; 2082 :  #endif /* _ITERATOR_DEBUG_LEVEL == 2 */
; 2083 : 
; 2084 : 		if (0 < this->_Mysize)
; 2085 : 			{	// worth searching, do it
; 2086 : 			const _Elem *_Uptr = this->_Myptr()
; 2087 : 				+ (_Off < this->_Mysize ? _Off : this->_Mysize - 1);
; 2088 : 			for (; ; --_Uptr)
; 2089 : 				if (_Traits::find(_Ptr, _Count, *_Uptr) == 0)
; 2090 : 					return (_Uptr - this->_Myptr());
; 2091 : 				else if (_Uptr == this->_Myptr())
; 2092 : 					break;
; 2093 : 			}
; 2094 : 		return (npos);
; 2095 : 		}
; 2096 : 
; 2097 : 	size_type find_last_not_of(const _Elem *_Ptr,
; 2098 : 		size_type _Off = npos) const
; 2099 : 		{	// look for none of [_Ptr, <null>) before _Off
; 2100 : 		_DEBUG_POINTER(_Ptr);
; 2101 : 		return (find_last_not_of(_Ptr, _Off, _Traits::length(_Ptr)));
; 2102 : 		}
; 2103 : 
; 2104 : 	size_type find_last_not_of(_Elem _Ch,
; 2105 : 		size_type _Off = npos) const
; 2106 : 		{	// look for non _Ch before _Off
; 2107 : 		return (find_last_not_of((const _Elem *)&_Ch, _Off, 1));
; 2108 : 		}
; 2109 : 
; 2110 : 	_Myt substr(size_type _Off = 0, size_type _Count = npos) const
; 2111 : 		{	// return [_Off, _Off + _Count) as new string
; 2112 : 		return (_Myt(*this, _Off, _Count, get_allocator()));
; 2113 : 		}
; 2114 : 
; 2115 : 	int compare(const _Myt& _Right) const _NOEXCEPT
; 2116 : 		{	// compare [0, _Mysize) with _Right
; 2117 : 		return (compare(0, this->_Mysize, _Right._Myptr(), _Right.size()));
; 2118 : 		}
; 2119 : 
; 2120 : 	int compare(size_type _Off, size_type _N0,
; 2121 : 		const _Myt& _Right) const
; 2122 : 		{	// compare [_Off, _Off + _N0) with _Right
; 2123 : 		return (compare(_Off, _N0, _Right, 0, npos));
; 2124 : 		}
; 2125 : 
; 2126 : 	int compare(size_type _Off,
; 2127 : 		size_type _N0, const _Myt& _Right,
; 2128 : 		size_type _Roff, size_type _Count) const
; 2129 : 		{	// compare [_Off, _Off + _N0) with _Right [_Roff, _Roff + _Count)
; 2130 : 		if (_Right.size() < _Roff)
; 2131 : 			_Xran();	// _Off off end
; 2132 : 		if (_Right._Mysize - _Roff < _Count)
; 2133 : 			_Count = _Right._Mysize - _Roff;	// trim _Count to size
; 2134 : 		return (compare(_Off, _N0, _Right._Myptr() + _Roff, _Count));
; 2135 : 		}
; 2136 : 
; 2137 : 	int compare(const _Elem *_Ptr) const
; 2138 : 		{	// compare [0, _Mysize) with [_Ptr, <null>)
; 2139 : 		_DEBUG_POINTER(_Ptr);
; 2140 : 		return (compare(0, this->_Mysize, _Ptr, _Traits::length(_Ptr)));
; 2141 : 		}
; 2142 : 
; 2143 : 	int compare(size_type _Off, size_type _N0, const _Elem *_Ptr) const
; 2144 : 		{	// compare [_Off, _Off + _N0) with [_Ptr, <null>)
; 2145 : 		_DEBUG_POINTER(_Ptr);
; 2146 : 		return (compare(_Off, _N0, _Ptr, _Traits::length(_Ptr)));
; 2147 : 		}
; 2148 : 
; 2149 : 	int compare(size_type _Off,
; 2150 : 		size_type _N0, const _Elem *_Ptr, size_type _Count) const
; 2151 : 		{	// compare [_Off, _Off + _N0) with [_Ptr, _Ptr + _Count)
; 2152 :  #if _ITERATOR_DEBUG_LEVEL == 2
; 2153 : 		if (_Count != 0)
; 2154 : 			_DEBUG_POINTER(_Ptr);
; 2155 :  #endif /* _ITERATOR_DEBUG_LEVEL == 2 */
; 2156 : 
; 2157 : 		if (this->_Mysize < _Off)
; 2158 : 			_Xran();	// _Off off end
; 2159 : 		if (this->_Mysize - _Off < _N0)
; 2160 : 			_N0 = this->_Mysize - _Off;	// trim _N0 to size
; 2161 : 
; 2162 : 		size_type _Ans = _Traits::compare(this->_Myptr() + _Off, _Ptr,
; 2163 : 			_N0 < _Count ? _N0 : _Count);
; 2164 : 		return (_Ans != 0 ? (int)_Ans : _N0 < _Count ? -1
; 2165 : 			: _N0 == _Count ? 0 : +1);
; 2166 : 		}
; 2167 : 
; 2168 : 	allocator_type get_allocator() const _NOEXCEPT
; 2169 : 		{	// return allocator object for values
; 2170 : 		return (this->_Getal());
; 2171 : 		}
; 2172 : 
; 2173 : 	void _Chassign(size_type _Off, size_type _Count, _Elem _Ch)
; 2174 : 		{	// assign _Count copies of _Ch beginning at _Off
; 2175 : 		if (_Count == 1)
; 2176 : 			_Traits::assign(*(this->_Myptr() + _Off), _Ch);
; 2177 : 		else
; 2178 : 			_Traits::assign(this->_Myptr() + _Off, _Count, _Ch);
; 2179 : 		}
; 2180 : 
; 2181 : 	void _Copy(size_type _Newsize, size_type _Oldlen)
; 2182 : 		{	// copy _Oldlen elements to newly allocated buffer
; 2183 : 		size_type _Newres = _Newsize | this->_ALLOC_MASK;
; 2184 : 		if (max_size() < _Newres)
; 2185 : 			_Newres = _Newsize;	// undo roundup if too big
; 2186 : 		else if (this->_Myres / 2 <= _Newres / 3)
; 2187 : 			;
; 2188 : 		else if (this->_Myres <= max_size() - this->_Myres / 2)
; 2189 : 			_Newres = this->_Myres
; 2190 : 				+ this->_Myres / 2;	// grow exponentially if possible
; 2191 : 		else
; 2192 : 			_Newres = max_size();	// settle for max_size()
; 2193 : 
; 2194 : 		_Elem *_Ptr;
; 2195 : 		_TRY_BEGIN
; 2196 : 			_Ptr = this->_Getal().allocate(_Newres + 1);
; 2197 : 		_CATCH_ALL
; 2198 : 			_Newres = _Newsize;	// allocation failed, undo roundup and retry
; 2199 : 			_TRY_BEGIN
; 2200 : 				_Ptr = this->_Getal().allocate(_Newres + 1);
; 2201 : 			_CATCH_ALL
; 2202 : 			_Tidy(true);	// failed again, discard storage and reraise
; 2203 : 			_RERAISE;
; 2204 : 			_CATCH_END
; 2205 : 		_CATCH_END
; 2206 : 
; 2207 : 		if (0 < _Oldlen)
; 2208 : 			_Traits::copy(_Ptr, this->_Myptr(),
; 2209 : 				_Oldlen);	// copy existing elements
; 2210 : 		_Tidy(true);
; 2211 : 		this->_Getal().construct(&this->_Bx._Ptr, _Ptr);
; 2212 : 		this->_Myres = _Newres;
; 2213 : 		_Eos(_Oldlen);
; 2214 : 		}
; 2215 : 
; 2216 : 	void _Eos(size_type _Newsize)
; 2217 : 		{	// set new length and null terminator
; 2218 : 		_Traits::assign(this->_Myptr()[this->_Mysize = _Newsize], _Elem());

  000b2	89 7e 10	 mov	 DWORD PTR [esi+16], edi

; 517  : 			: this->_Bx._Buf);

  000b5	72 0f		 jb	 SHORT $LN51@assign
; File c:\program files (x86)\microsoft visual studio 11.0\vc\include\xstddef

; 88   : 		reinterpret_cast<const volatile char&>(_Val)))));

  000b7	8b 06		 mov	 eax, DWORD PTR [esi]
; File c:\program files (x86)\microsoft visual studio 11.0\vc\include\iosfwd

; 564  : 		_Left = _Right;

  000b9	c6 04 38 00	 mov	 BYTE PTR [eax+edi], 0
  000bd	5f		 pop	 edi
; File c:\program files (x86)\microsoft visual studio 11.0\vc\include\xstring

; 1119 : 		return (*this);

  000be	8b c6		 mov	 eax, esi
  000c0	5e		 pop	 esi
  000c1	5b		 pop	 ebx

; 1120 : 		}

  000c2	5d		 pop	 ebp
  000c3	c2 0c 00	 ret	 12			; 0000000cH
$LN51@assign:

; 517  : 			: this->_Bx._Buf);

  000c6	8b c6		 mov	 eax, esi
; File c:\program files (x86)\microsoft visual studio 11.0\vc\include\iosfwd

; 564  : 		_Left = _Right;

  000c8	c6 04 38 00	 mov	 BYTE PTR [eax+edi], 0
$LN55@assign:
  000cc	5f		 pop	 edi
; File c:\program files (x86)\microsoft visual studio 11.0\vc\include\xstring

; 1119 : 		return (*this);

  000cd	8b c6		 mov	 eax, esi
  000cf	5e		 pop	 esi
  000d0	5b		 pop	 ebx

; 1120 : 		}

  000d1	5d		 pop	 ebp
  000d2	c2 0c 00	 ret	 12			; 0000000cH
$LN58@assign:
?assign@?$basic_string@DU?$char_traits@D@std@@V?$allocator@D@2@@std@@QAEAAV12@ABV12@II@Z ENDP ; std::basic_string<char,std::char_traits<char>,std::allocator<char> >::assign
_TEXT	ENDS
; Function compile flags: /Ogtp
; File c:\program files (x86)\microsoft visual studio 11.0\vc\include\xstring
; File c:\program files (x86)\microsoft visual studio 11.0\vc\include\xstddef
; File c:\program files (x86)\microsoft visual studio 11.0\vc\include\iosfwd
; File c:\program files (x86)\microsoft visual studio 11.0\vc\include\xstring
;	COMDAT ?_Grow@?$basic_string@DU?$char_traits@D@std@@V?$allocator@D@2@@std@@QAE_NI_N@Z
_TEXT	SEGMENT
__Newsize$ = 8						; size = 4
__Trim$dead$ = 12					; size = 1
?_Grow@?$basic_string@DU?$char_traits@D@std@@V?$allocator@D@2@@std@@QAE_NI_N@Z PROC ; std::basic_string<char,std::char_traits<char>,std::allocator<char> >::_Grow, COMDAT
; _this$ = ecx

; 2223 : 		{	// ensure buffer is big enough, trim to size if _Trim is true

  00000	55		 push	 ebp
  00001	8b ec		 mov	 ebp, esp
  00003	56		 push	 esi

; 2224 : 		if (max_size() < _Newsize)

  00004	8b 75 08	 mov	 esi, DWORD PTR __Newsize$[ebp]
  00007	83 fe fe	 cmp	 esi, -2			; fffffffeH
  0000a	76 0b		 jbe	 SHORT $LN6@Grow

; 2235 : 
; 2236 : 	bool _Inside(const _Elem *_Ptr)
; 2237 : 		{	// test if _Ptr points inside string
; 2238 : 		if (_Ptr == 0 || _Ptr < this->_Myptr()
; 2239 : 			|| this->_Myptr() + this->_Mysize <= _Ptr)
; 2240 : 			return (false);	// don't ask
; 2241 : 		else
; 2242 : 			return (true);
; 2243 : 		}
; 2244 : 
; 2245 : 	static size_type _Pdif(const_iterator _P2,
; 2246 : 		const_iterator _P1)
; 2247 : 		{	// compute safe iterator difference
; 2248 : 		return (_STRING_ITER_BASE(_P2) == 0 ? 0 : _P2 - _P1);
; 2249 : 		}
; 2250 : 
; 2251 : 	void _Tidy(bool _Built = false,
; 2252 : 		size_type _Newsize = 0)
; 2253 : 		{	// initialize buffer, deallocating any storage
; 2254 : 		if (!_Built)
; 2255 : 			;
; 2256 : 		else if (this->_BUF_SIZE <= this->_Myres)
; 2257 : 			{	// copy any leftovers to small buffer and deallocate
; 2258 : 			pointer _Ptr = this->_Bx._Ptr;
; 2259 : 			this->_Getal().destroy(&this->_Bx._Ptr);
; 2260 : 			if (0 < _Newsize)
; 2261 : 				_Traits::copy(this->_Bx._Buf,
; 2262 : 					_STD addressof(*_Ptr), _Newsize);
; 2263 : 			this->_Getal().deallocate(_Ptr, this->_Myres + 1);
; 2264 : 			}
; 2265 : 		this->_Myres = this->_BUF_SIZE - 1;
; 2266 : 		_Eos(_Newsize);
; 2267 : 		}
; 2268 : 
; 2269 : 	__declspec(noreturn) void _Xlen() const
; 2270 : 		{	// report a length_error
; 2271 : 		_Xlength_error("string too long");

  0000c	68 00 00 00 00	 push	 OFFSET ??_C@_0BA@JFNIOLAK@string?5too?5long?$AA@
  00011	ff 15 00 00 00
	00		 call	 DWORD PTR __imp_?_Xlength_error@std@@YAXPBD@Z
$LN68@Grow:
$LN6@Grow:

; 2225 : 			_Xlen();	// result too long
; 2226 : 		if (this->_Myres < _Newsize)

  00017	8b 41 14	 mov	 eax, DWORD PTR [ecx+20]
  0001a	3b c6		 cmp	 eax, esi
  0001c	73 16		 jae	 SHORT $LN3@Grow

; 2227 : 			_Copy(_Newsize, this->_Mysize);	// reallocate to grow

  0001e	ff 71 10	 push	 DWORD PTR [ecx+16]
  00021	56		 push	 esi
  00022	e8 00 00 00 00	 call	 ?_Copy@?$basic_string@DU?$char_traits@D@std@@V?$allocator@D@2@@std@@QAEXII@Z ; std::basic_string<char,std::char_traits<char>,std::allocator<char> >::_Copy

; 2233 : 		return (0 < _Newsize);	// return true only if more work to do

  00027	33 c0		 xor	 eax, eax
  00029	3b c6		 cmp	 eax, esi
  0002b	1b c0		 sbb	 eax, eax
  0002d	f7 d8		 neg	 eax
  0002f	5e		 pop	 esi

; 2234 : 		}

  00030	5d		 pop	 ebp
  00031	c2 08 00	 ret	 8
$LN3@Grow:

; 2228 : 		else if (_Trim && _Newsize < this->_BUF_SIZE)
; 2229 : 			_Tidy(true,	// copy and deallocate if trimming to small string
; 2230 : 				_Newsize < this->_Mysize ? _Newsize : this->_Mysize);
; 2231 : 		else if (_Newsize == 0)

  00034	85 f6		 test	 esi, esi
  00036	75 0d		 jne	 SHORT $LN64@Grow

; 518  : 		}
; 519  : 
; 520  : 	const value_type *_Myptr() const
; 521  : 		{	// determine current pointer to buffer for nonmutable string
; 522  : 		return (this->_BUF_SIZE <= this->_Myres
; 523  : 			? _STD addressof(*this->_Bx._Ptr)
; 524  : 			: this->_Bx._Buf);
; 525  : 		}
; 526  : 
; 527  : 	union _Bxty
; 528  : 		{	// storage for small buffer or pointer to larger one
; 529  : 		value_type _Buf[_BUF_SIZE];
; 530  : 		pointer _Ptr;
; 531  : 		char _Alias[_BUF_SIZE];	// to permit aliasing
; 532  : 		} _Bx;
; 533  : 
; 534  : 	size_type _Mysize;	// current length of string
; 535  : 	size_type _Myres;	// current storage reserved for string
; 536  : 	};
; 537  : 
; 538  : 		// TEMPLATE CLASS _String_alloc
; 539  : template<bool _Al_has_storage,
; 540  : 	class _Alloc_types>
; 541  : 	class _String_alloc
; 542  : 		: public _String_val<typename _Alloc_types::_Val_types>
; 543  : 	{	// base class for basic_string to hold allocator with storage
; 544  : public:
; 545  : 	typedef _String_alloc<_Al_has_storage, _Alloc_types> _Myt;
; 546  : 	typedef typename _Alloc_types::_Alloc _Alloc;
; 547  : 
; 548  : 	typedef typename _Alloc_types::_Alty _Alty;
; 549  : 
; 550  :  #if _ITERATOR_DEBUG_LEVEL == 0
; 551  : 	_String_alloc(const _Alloc& _Al = _Alloc())
; 552  : 		: _Alval(_Al)
; 553  : 		{	// construct allocator from _Al
; 554  : 		}
; 555  : 
; 556  : 	void _Change_alloc(const _Alty& _Al)
; 557  : 		{	// replace old allocator
; 558  : 		_Alval = _Al;
; 559  : 		}
; 560  : 
; 561  : 	void _Swap_alloc(_Myt& _Right)
; 562  : 		{	// swap allocators
; 563  : 		_Swap_adl(this->_Alval, _Right._Alval);
; 564  : 		}
; 565  : 
; 566  :  #else /* _ITERATOR_DEBUG_LEVEL == 0 */
; 567  : 	_String_alloc(const _Alloc& _Al = _Alloc())
; 568  : 		: _Alval(_Al)
; 569  : 		{	// construct allocator from _Al
; 570  : 		_Alloc_proxy();
; 571  : 		}
; 572  : 
; 573  : 	~_String_alloc() _NOEXCEPT
; 574  : 		{	// destroy the object
; 575  : 		_Free_proxy();
; 576  : 		}
; 577  : 
; 578  : 	void _Change_alloc(const _Alty& _Al)
; 579  : 		{	// replace old allocator
; 580  : 		_Free_proxy();
; 581  : 		_Alval = _Al;
; 582  : 		_Alloc_proxy();
; 583  : 		}
; 584  : 
; 585  : 	void _Swap_alloc(_Myt& _Right)
; 586  : 		{	// swap allocators
; 587  : 		_Swap_adl(_Alval, _Right._Alval);
; 588  : 		_Swap_adl(this->_Myproxy, _Right._Myproxy);
; 589  : 		}
; 590  : 
; 591  : 	void _Alloc_proxy()
; 592  : 		{	// construct proxy from _Alval
; 593  : 		typename _Alloc::template rebind<_Container_proxy>::other
; 594  : 			_Alproxy(_Alval);
; 595  : 		this->_Myproxy = _Alproxy.allocate(1);
; 596  : 		_Alproxy.construct(this->_Myproxy, _Container_proxy());
; 597  : 		this->_Myproxy->_Mycont = this;
; 598  : 		}
; 599  : 
; 600  : 	void _Free_proxy()
; 601  : 		{	// destroy proxy
; 602  : 		typename _Alloc::template rebind<_Container_proxy>::other
; 603  : 			_Alproxy(_Alval);
; 604  : 		this->_Orphan_all();
; 605  : 		_Alproxy.destroy(this->_Myproxy);
; 606  : 		_Alproxy.deallocate(this->_Myproxy, 1);
; 607  : 		this->_Myproxy = 0;
; 608  : 		}
; 609  :  #endif /* _ITERATOR_DEBUG_LEVEL == 0 */
; 610  : 
; 611  : 	_Alty& _Getal()
; 612  : 		{	// get reference to allocator
; 613  : 		return (_Alval);
; 614  : 		}
; 615  : 
; 616  : 	const _Alty& _Getal() const
; 617  : 		{	// get reference to allocator
; 618  : 		return (_Alval);
; 619  : 		}
; 620  : 
; 621  : 	_Alty _Alval;	// allocator object for strings
; 622  : 	};
; 623  : 
; 624  : template<class _Alloc_types>
; 625  : 	class _String_alloc<false, _Alloc_types>
; 626  : 		: public _String_val<typename _Alloc_types::_Val_types>
; 627  : 	{	// base class for basic_string to hold allocator with no storage
; 628  : public:
; 629  : 	typedef _String_alloc<false, _Alloc_types> _Myt;
; 630  : 	typedef typename _Alloc_types::_Alloc _Alloc;
; 631  : 
; 632  : 	typedef typename _Alloc_types::_Alty _Alty;
; 633  : 
; 634  :  #if _ITERATOR_DEBUG_LEVEL == 0
; 635  : 	_String_alloc(const _Alloc& = _Alloc())
; 636  : 		{	// construct allocator from _Al
; 637  : 		}
; 638  : 
; 639  : 	void _Change_alloc(const _Alty&)
; 640  : 		{	// replace old allocator
; 641  : 		}
; 642  : 
; 643  : 	void _Swap_alloc(_Myt&)
; 644  : 		{	// swap allocators
; 645  : 		}
; 646  : 
; 647  :  #else /* _ITERATOR_DEBUG_LEVEL == 0 */
; 648  : 	_String_alloc(const _Alloc& = _Alloc())
; 649  : 		{	// construct allocator from _Al
; 650  : 		_Alloc_proxy();
; 651  : 		}
; 652  : 
; 653  : 	~_String_alloc() _NOEXCEPT
; 654  : 		{	// destroy the object
; 655  : 		_Free_proxy();
; 656  : 		}
; 657  : 
; 658  : 	void _Change_alloc(const _Alty&)
; 659  : 		{	// replace old allocator
; 660  : 		}
; 661  : 
; 662  : 	void _Swap_alloc(_Myt& _Right)
; 663  : 		{	// swap allocators
; 664  : 		_Swap_adl(this->_Myproxy, _Right._Myproxy);
; 665  : 		}
; 666  : 
; 667  : 	void _Alloc_proxy()
; 668  : 		{	// construct proxy from _Alval
; 669  : 		typename _Alloc::template rebind<_Container_proxy>::other
; 670  : 			_Alproxy;
; 671  : 		this->_Myproxy = _Alproxy.allocate(1);
; 672  : 		_Alproxy.construct(this->_Myproxy, _Container_proxy());
; 673  : 		this->_Myproxy->_Mycont = this;
; 674  : 		}
; 675  : 
; 676  : 	void _Free_proxy()
; 677  : 		{	// destroy proxy
; 678  : 		typename _Alloc::template rebind<_Container_proxy>::other
; 679  : 			_Alproxy;
; 680  : 		this->_Orphan_all();
; 681  : 		_Alproxy.destroy(this->_Myproxy);
; 682  : 		_Alproxy.deallocate(this->_Myproxy, 1);
; 683  : 		this->_Myproxy = 0;
; 684  : 		}
; 685  :  #endif /* _ITERATOR_DEBUG_LEVEL == 0 */
; 686  : 
; 687  : 	_Alty _Getal() const
; 688  : 		{	// get reference to allocator
; 689  : 		return (_Alty());
; 690  : 		}
; 691  : 	};
; 692  : 
; 693  : 		// TEMPLATE CLASS basic_string
; 694  : template<class _Elem,
; 695  : 	class _Traits,
; 696  : 	class _Alloc>
; 697  : 	class basic_string
; 698  : 		: public _String_alloc<!is_empty<_Alloc>::value,
; 699  : 			_String_base_types<_Elem, _Alloc> >
; 700  : 	{	// null-terminated transparent array of elements
; 701  : public:
; 702  : 	typedef basic_string<_Elem, _Traits, _Alloc> _Myt;
; 703  : 	typedef _String_alloc<!is_empty<_Alloc>::value,
; 704  : 		_String_base_types<_Elem, _Alloc> > _Mybase;
; 705  : 	typedef _Traits traits_type;
; 706  : 	typedef _Alloc allocator_type;
; 707  : 
; 708  : 	typedef typename _Mybase::_Alty _Alty;
; 709  : 
; 710  : 	typedef typename _Mybase::value_type value_type;
; 711  : 	typedef typename _Mybase::size_type size_type;
; 712  : 	typedef typename _Mybase::difference_type difference_type;
; 713  : 	typedef typename _Mybase::pointer pointer;
; 714  : 	typedef typename _Mybase::const_pointer const_pointer;
; 715  : 	typedef typename _Mybase::reference reference;
; 716  : 	typedef typename _Mybase::const_reference const_reference;
; 717  : 
; 718  : 	typedef typename _Mybase::iterator iterator;
; 719  : 	typedef typename _Mybase::const_iterator const_iterator;
; 720  : 
; 721  : 	typedef _STD reverse_iterator<iterator> reverse_iterator;
; 722  : 	typedef _STD reverse_iterator<const_iterator> const_reverse_iterator;
; 723  : 
; 724  : 	basic_string(const _Myt& _Right)
; 725  : 
; 726  :  #if _HAS_CPP0X
; 727  : 		: _Mybase(_Right._Getal().select_on_container_copy_construction())
; 728  : 
; 729  :  #else /* _HAS_CPP0X */
; 730  : 		: _Mybase(_Right._Getal())
; 731  :  #endif /* _HAS_CPP0X */
; 732  : 
; 733  : 		{	// construct by copying _Right
; 734  : 		_Tidy();
; 735  : 		assign(_Right, 0, npos);
; 736  : 		}
; 737  : 
; 738  :  #if _HAS_CPP0X
; 739  : 	basic_string(const _Myt& _Right, const _Alloc& _Al)
; 740  : 		: _Mybase(_Al)
; 741  : 		{	// construct by copying with allocator
; 742  : 		_Tidy();
; 743  : 		assign(_Right, 0, npos);
; 744  : 		}
; 745  :  #endif /* _HAS_CPP0X */
; 746  : 
; 747  : 	basic_string()
; 748  : 		: _Mybase()
; 749  : 		{	// construct empty string
; 750  : 		_Tidy();
; 751  : 		}
; 752  : 
; 753  : 	explicit basic_string(const _Alloc& _Al)
; 754  : 		: _Mybase(_Al)
; 755  : 		{	// construct empty string with allocator
; 756  : 		_Tidy();
; 757  : 		}
; 758  : 
; 759  : 	basic_string(const _Myt& _Right, size_type _Roff,
; 760  : 		size_type _Count = npos)
; 761  : 		: _Mybase(_Right._Getal())
; 762  : 		{	// construct from _Right [_Roff, _Roff + _Count)
; 763  : 		_Tidy();
; 764  : 		assign(_Right, _Roff, _Count);
; 765  : 		}
; 766  : 
; 767  : 	basic_string(const _Myt& _Right, size_type _Roff, size_type _Count,
; 768  : 		const _Alloc& _Al)
; 769  : 		: _Mybase(_Al)
; 770  : 		{	// construct from _Right [_Roff, _Roff + _Count) with allocator
; 771  : 		_Tidy();
; 772  : 		assign(_Right, _Roff, _Count);
; 773  : 		}
; 774  : 
; 775  : 	basic_string(const _Elem *_Ptr, size_type _Count)
; 776  : 		: _Mybase()
; 777  : 		{	// construct from [_Ptr, _Ptr + _Count)
; 778  : 		_Tidy();
; 779  : 		assign(_Ptr, _Count);
; 780  : 		}
; 781  : 
; 782  : 	basic_string(const _Elem *_Ptr, size_type _Count, const _Alloc& _Al)
; 783  : 		: _Mybase(_Al)
; 784  : 		{	// construct from [_Ptr, _Ptr + _Count) with allocator
; 785  : 		_Tidy();
; 786  : 		assign(_Ptr, _Count);
; 787  : 		}
; 788  : 
; 789  : 	basic_string(const _Elem *_Ptr)
; 790  : 		: _Mybase()
; 791  : 		{	// construct from [_Ptr, <null>)
; 792  : 		_Tidy();
; 793  : 		assign(_Ptr);
; 794  : 		}
; 795  : 
; 796  : 	basic_string(const _Elem *_Ptr, const _Alloc& _Al)
; 797  : 		: _Mybase(_Al)
; 798  : 		{	// construct from [_Ptr, <null>) with allocator
; 799  : 		_Tidy();
; 800  : 		assign(_Ptr);
; 801  : 		}
; 802  : 
; 803  : 	basic_string(size_type _Count, _Elem _Ch)
; 804  : 		: _Mybase()
; 805  : 		{	// construct from _Count * _Ch
; 806  : 		_Tidy();
; 807  : 		assign(_Count, _Ch);
; 808  : 		}
; 809  : 
; 810  : 	basic_string(size_type _Count, _Elem _Ch, const _Alloc& _Al)
; 811  : 		: _Mybase(_Al)
; 812  : 		{	// construct from _Count * _Ch with allocator
; 813  : 		_Tidy();
; 814  : 		assign(_Count, _Ch);
; 815  : 		}
; 816  : 
; 817  : 	template<class _Iter>
; 818  : 		basic_string(_Iter _First, _Iter _Last,
; 819  : 			typename enable_if<_Is_iterator<_Iter>::value,
; 820  : 				void>::type ** = 0)
; 821  : 		: _Mybase()
; 822  : 		{	// construct from [_First, _Last)
; 823  : 		_Tidy();
; 824  : 		_Construct(_First, _Last, _Iter_cat(_First));
; 825  : 		}
; 826  : 
; 827  : 	template<class _Iter>
; 828  : 		basic_string(_Iter _First, _Iter _Last, const _Alloc& _Al,
; 829  : 			typename enable_if<_Is_iterator<_Iter>::value,
; 830  : 				void>::type ** = 0)
; 831  : 		: _Mybase(_Al)
; 832  : 		{	// construct from [_First, _Last) with allocator
; 833  : 		_Tidy();
; 834  : 		_Construct(_First, _Last, _Iter_cat(_First));
; 835  : 		}
; 836  : 
; 837  : 	template<class _Iter>
; 838  : 		void _Construct(_Iter _First,
; 839  : 			_Iter _Last, input_iterator_tag)
; 840  : 		{	// initialize from [_First, _Last), input iterators
; 841  : 		_TRY_BEGIN
; 842  : 		for (; _First != _Last; ++_First)
; 843  : 			append((size_type)1, (_Elem)*_First);
; 844  : 		_CATCH_ALL
; 845  : 		_Tidy(true);
; 846  : 		_RERAISE;
; 847  : 		_CATCH_END
; 848  : 		}
; 849  : 
; 850  : 	template<class _Iter>
; 851  : 		void _Construct(_Iter _First,
; 852  : 			_Iter _Last, forward_iterator_tag)
; 853  : 		{	// initialize from [_First, _Last), forward iterators
; 854  : 		_DEBUG_RANGE(_First, _Last);
; 855  : 		size_type _Count = 0;
; 856  : 		_Distance(_First, _Last, _Count);
; 857  : 		reserve(_Count);
; 858  : 
; 859  : 		_TRY_BEGIN
; 860  : 		for (; _First != _Last; ++_First)
; 861  : 			append((size_type)1, (_Elem)*_First);
; 862  : 		_CATCH_ALL
; 863  : 		_Tidy(true);
; 864  : 		_RERAISE;
; 865  : 		_CATCH_END
; 866  : 		}
; 867  : 
; 868  : 	basic_string(const_pointer _First, const_pointer _Last)
; 869  : 		: _Mybase()
; 870  : 		{	// construct from [_First, _Last), const pointers
; 871  : 		_DEBUG_RANGE(_First, _Last);
; 872  : 		_Tidy();
; 873  : 		if (_First != _Last)
; 874  : 			assign(&*_First, _Last - _First);
; 875  : 		}
; 876  : 
; 877  : 	basic_string(const_pointer _First, const_pointer _Last,
; 878  : 		const _Alloc& _Al)
; 879  : 		: _Mybase(_Al)
; 880  : 		{	// construct from [_First, _Last), const pointers
; 881  : 		_DEBUG_RANGE(_First, _Last);
; 882  : 		_Tidy();
; 883  : 		if (_First != _Last)
; 884  : 			assign(&*_First, _Last - _First);
; 885  : 		}
; 886  : 
; 887  : 	basic_string(const_iterator _First, const_iterator _Last)
; 888  : 		: _Mybase()
; 889  : 		{	// construct from [_First, _Last), const_iterators
; 890  : 		_DEBUG_RANGE(_First, _Last);
; 891  : 		_Tidy();
; 892  : 		if (_First != _Last)
; 893  : 			assign(&*_First, _Last - _First);
; 894  : 		}
; 895  : 
; 896  : 	basic_string(_Myt&& _Right) _NOEXCEPT
; 897  : 		: _Mybase(_Right._Getal())
; 898  : 		{	// construct by moving _Right
; 899  : 		_Tidy();
; 900  : 		_Assign_rv(_STD forward<_Myt>(_Right));
; 901  : 		}
; 902  : 
; 903  : 	basic_string(_Myt&& _Right, const _Alloc& _Al)
; 904  : 		: _Mybase(_Al)
; 905  : 		{	// construct by moving _Right, allocator
; 906  : 		if (this->_Getal() != _Right._Getal())
; 907  : 			assign(_Right.begin(), _Right.end());
; 908  : 		else
; 909  : 			_Assign_rv(_STD forward<_Myt>(_Right));
; 910  : 		}
; 911  : 
; 912  : 	_Myt& operator=(_Myt&& _Right) _NOEXCEPT
; 913  : 		{	// assign by moving _Right
; 914  : 		if (this != &_Right)
; 915  : 			{	// different, assign it
; 916  : 			_Tidy(true);
; 917  : 
; 918  :  #if _HAS_CPP0X
; 919  : 			if (this->_Getal() != _Right._Getal()
; 920  : 				&& _Alty::propagate_on_container_move_assignment::value)
; 921  : 				this->_Change_alloc(_Right._Getal());
; 922  :  #endif /* _HAS_CPP0X */
; 923  : 
; 924  : 			if (this->_Getal() != _Right._Getal())
; 925  : 				assign(_Right.begin(), _Right.end());
; 926  : 			else
; 927  : 				_Assign_rv(_STD forward<_Myt>(_Right));
; 928  : 			}
; 929  : 		return (*this);
; 930  : 		}
; 931  : 
; 932  : 	_Myt& assign(_Myt&& _Right) _NOEXCEPT
; 933  : 		{	// assign by moving _Right
; 934  : 		if (this == &_Right)
; 935  : 			;
; 936  : 		else if (get_allocator() != _Right.get_allocator()
; 937  : 			&& this->_BUF_SIZE <= _Right._Myres)
; 938  : 			*this = _Right;
; 939  : 		else
; 940  : 			{	// not same, clear this and steal from _Right
; 941  : 			_Tidy(true);
; 942  : 			_Assign_rv(_STD forward<_Myt>(_Right));
; 943  : 			}
; 944  : 		return (*this);
; 945  : 		}
; 946  : 
; 947  : 	void _Assign_rv(_Myt&& _Right)
; 948  : 		{	// assign by moving _Right
; 949  : 		if (_Right._Myres < this->_BUF_SIZE)
; 950  : 			_Traits::move(this->_Bx._Buf, _Right._Bx._Buf,
; 951  : 				_Right._Mysize + 1);
; 952  : 		else
; 953  : 			{	// copy pointer
; 954  : 			this->_Getal().construct(&this->_Bx._Ptr, _Right._Bx._Ptr);
; 955  : 			_Right._Bx._Ptr = pointer();
; 956  : 			}
; 957  : 		this->_Mysize = _Right._Mysize;
; 958  : 		this->_Myres = _Right._Myres;
; 959  : 		_Right._Tidy();
; 960  : 		}
; 961  : 
; 962  : 	~basic_string() _NOEXCEPT
; 963  : 		{	// destroy the string
; 964  : 		_Tidy(true);
; 965  : 		}
; 966  : 
; 967  : 	_PGLOBAL static const size_type npos;	// bad/missing length/position
; 968  : 
; 969  : 	_Myt& operator=(const _Myt& _Right)
; 970  : 		{	// assign _Right
; 971  : 		if (this != &_Right)
; 972  : 			{	// different, assign it
; 973  :  #if _HAS_CPP0X
; 974  : 			if (this->_Getal() != _Right._Getal()
; 975  : 				&& _Alty::propagate_on_container_copy_assignment::value)
; 976  : 				{	// change allocator before copying
; 977  : 				_Tidy(true);
; 978  : 				this->_Change_alloc(_Right._Getal());
; 979  : 				}
; 980  :  #endif /* _HAS_CPP0X */
; 981  : 
; 982  : 			assign(_Right);
; 983  : 			}
; 984  : 		return (*this);
; 985  : 		}
; 986  : 
; 987  : 	_Myt& operator=(const _Elem *_Ptr)
; 988  : 		{	// assign [_Ptr, <null>)
; 989  : 		return (assign(_Ptr));
; 990  : 		}
; 991  : 
; 992  : 	_Myt& operator=(_Elem _Ch)
; 993  : 		{	// assign 1 * _Ch
; 994  : 		return (assign(1, _Ch));
; 995  : 		}
; 996  : 
; 997  : 	_Myt& operator+=(const _Myt& _Right)
; 998  : 		{	// append _Right
; 999  : 		return (append(_Right));
; 1000 : 		}
; 1001 : 
; 1002 : 	_Myt& operator+=(const _Elem *_Ptr)
; 1003 : 		{	// append [_Ptr, <null>)
; 1004 : 		return (append(_Ptr));
; 1005 : 		}
; 1006 : 
; 1007 : 	_Myt& operator+=(_Elem _Ch)
; 1008 : 		{	// append 1 * _Ch
; 1009 : 		return (append((size_type)1, _Ch));
; 1010 : 		}
; 1011 : 
; 1012 : 	_Myt& append(const _Myt& _Right)
; 1013 : 		{	// append _Right
; 1014 : 		return (append(_Right, 0, npos));
; 1015 : 		}
; 1016 : 
; 1017 : 	_Myt& append(const _Myt& _Right,
; 1018 : 		size_type _Roff, size_type _Count)
; 1019 : 		{	// append _Right [_Roff, _Roff + _Count)
; 1020 : 		if (_Right.size() < _Roff)
; 1021 : 			_Xran();	// _Roff off end
; 1022 : 		size_type _Num = _Right.size() - _Roff;
; 1023 : 		if (_Num < _Count)
; 1024 : 			_Count = _Num;	// trim _Count to size
; 1025 : 		if (npos - this->_Mysize <= _Count)
; 1026 : 			_Xlen();	// result too long
; 1027 : 
; 1028 : 		if (0 < _Count && _Grow(_Num = this->_Mysize + _Count))
; 1029 : 			{	// make room and append new stuff
; 1030 : 			_Traits::copy(this->_Myptr() + this->_Mysize,
; 1031 : 				_Right._Myptr() + _Roff, _Count);
; 1032 : 			_Eos(_Num);
; 1033 : 			}
; 1034 : 		return (*this);
; 1035 : 		}
; 1036 : 
; 1037 : 	_Myt& append(const _Elem *_Ptr, size_type _Count)
; 1038 : 		{	// append [_Ptr, _Ptr + _Count)
; 1039 :  #if _ITERATOR_DEBUG_LEVEL == 2
; 1040 : 		if (_Count != 0)
; 1041 : 			_DEBUG_POINTER(_Ptr);
; 1042 :  #endif /* _ITERATOR_DEBUG_LEVEL == 2 */
; 1043 : 
; 1044 : 		if (_Inside(_Ptr))
; 1045 : 			return (append(*this,
; 1046 : 				_Ptr - this->_Myptr(), _Count));	// substring
; 1047 : 		if (npos - this->_Mysize <= _Count)
; 1048 : 			_Xlen();	// result too long
; 1049 : 
; 1050 : 		size_type _Num;
; 1051 : 		if (0 < _Count && _Grow(_Num = this->_Mysize + _Count))
; 1052 : 			{	// make room and append new stuff
; 1053 : 			_Traits::copy(this->_Myptr() + this->_Mysize, _Ptr, _Count);
; 1054 : 			_Eos(_Num);
; 1055 : 			}
; 1056 : 		return (*this);
; 1057 : 		}
; 1058 : 
; 1059 : 	_Myt& append(const _Elem *_Ptr)
; 1060 : 		{	// append [_Ptr, <null>)
; 1061 : 		_DEBUG_POINTER(_Ptr);
; 1062 : 		return (append(_Ptr, _Traits::length(_Ptr)));
; 1063 : 		}
; 1064 : 
; 1065 : 	_Myt& append(size_type _Count, _Elem _Ch)
; 1066 : 		{	// append _Count * _Ch
; 1067 : 		if (npos - this->_Mysize <= _Count)
; 1068 : 			_Xlen();	// result too long
; 1069 : 
; 1070 : 		size_type _Num;
; 1071 : 		if (0 < _Count && _Grow(_Num = this->_Mysize + _Count))
; 1072 : 			{	// make room and append new stuff using assign
; 1073 : 			_Chassign(this->_Mysize, _Count, _Ch);
; 1074 : 			_Eos(_Num);
; 1075 : 			}
; 1076 : 		return (*this);
; 1077 : 		}
; 1078 : 
; 1079 : 	template<class _Iter>
; 1080 : 		typename enable_if<_Is_iterator<_Iter>::value,
; 1081 : 			_Myt&>::type
; 1082 : 		append(_Iter _First, _Iter _Last)
; 1083 : 		{	// append [_First, _Last), input iterators
; 1084 : 		return (replace(end(), end(), _First, _Last));
; 1085 : 		}
; 1086 : 
; 1087 : 	_Myt& append(const_pointer _First, const_pointer _Last)
; 1088 : 		{	// append [_First, _Last), const pointers
; 1089 : 		return (replace(end(), end(), _First, _Last));
; 1090 : 		}
; 1091 : 
; 1092 : 	_Myt& append(const_iterator _First, const_iterator _Last)
; 1093 : 		{	// append [_First, _Last), const_iterators
; 1094 : 		return (replace(end(), end(), _First, _Last));
; 1095 : 		}
; 1096 : 
; 1097 : 	_Myt& assign(const _Myt& _Right)
; 1098 : 		{	// assign _Right
; 1099 : 		return (assign(_Right, 0, npos));
; 1100 : 		}
; 1101 : 
; 1102 : 	_Myt& assign(const _Myt& _Right,
; 1103 : 		size_type _Roff, size_type _Count)
; 1104 : 		{	// assign _Right [_Roff, _Roff + _Count)
; 1105 : 		if (_Right.size() < _Roff)
; 1106 : 			_Xran();	// _Roff off end
; 1107 : 		size_type _Num = _Right.size() - _Roff;
; 1108 : 		if (_Count < _Num)
; 1109 : 			_Num = _Count;	// trim _Num to size
; 1110 : 
; 1111 : 		if (this == &_Right)
; 1112 : 			erase((size_type)(_Roff + _Num)), erase(0, _Roff);	// substring
; 1113 : 		else if (_Grow(_Num))
; 1114 : 			{	// make room and assign new stuff
; 1115 : 			_Traits::copy(this->_Myptr(),
; 1116 : 				_Right._Myptr() + _Roff, _Num);
; 1117 : 			_Eos(_Num);
; 1118 : 			}
; 1119 : 		return (*this);
; 1120 : 		}
; 1121 : 
; 1122 : 	_Myt& assign(const _Elem *_Ptr, size_type _Count)
; 1123 : 		{	// assign [_Ptr, _Ptr + _Count)
; 1124 :  #if _ITERATOR_DEBUG_LEVEL == 2
; 1125 : 		if (_Count != 0)
; 1126 : 			_DEBUG_POINTER(_Ptr);
; 1127 :  #endif /* _ITERATOR_DEBUG_LEVEL == 2 */
; 1128 : 
; 1129 : 		if (_Inside(_Ptr))
; 1130 : 			return (assign(*this,
; 1131 : 				_Ptr - this->_Myptr(), _Count));	// substring
; 1132 : 
; 1133 : 		if (_Grow(_Count))
; 1134 : 			{	// make room and assign new stuff
; 1135 : 			_Traits::copy(this->_Myptr(), _Ptr, _Count);
; 1136 : 			_Eos(_Count);
; 1137 : 			}
; 1138 : 		return (*this);
; 1139 : 		}
; 1140 : 
; 1141 : 	_Myt& assign(const _Elem *_Ptr)
; 1142 : 		{	// assign [_Ptr, <null>)
; 1143 : 		_DEBUG_POINTER(_Ptr);
; 1144 : 		return (assign(_Ptr, _Traits::length(_Ptr)));
; 1145 : 		}
; 1146 : 
; 1147 : 	_Myt& assign(size_type _Count, _Elem _Ch)
; 1148 : 		{	// assign _Count * _Ch
; 1149 : 		if (_Count == npos)
; 1150 : 			_Xlen();	// result too long
; 1151 : 
; 1152 : 		if (_Grow(_Count))
; 1153 : 			{	// make room and assign new stuff
; 1154 : 			_Chassign(0, _Count, _Ch);
; 1155 : 			_Eos(_Count);
; 1156 : 			}
; 1157 : 		return (*this);
; 1158 : 		}
; 1159 : 
; 1160 : 	template<class _Iter>
; 1161 : 		typename enable_if<_Is_iterator<_Iter>::value,
; 1162 : 			_Myt&>::type
; 1163 : 		assign(_Iter _First, _Iter _Last)
; 1164 : 		{	// assign [First, _Last), input iterators
; 1165 : 		return (replace(begin(), end(), _First, _Last));
; 1166 : 		}
; 1167 : 
; 1168 : 	_Myt& assign(const_pointer _First, const_pointer _Last)
; 1169 : 		{	// assign [First, _Last), const pointers
; 1170 : 		return (replace(begin(), end(), _First, _Last));
; 1171 : 		}
; 1172 : 
; 1173 : 	_Myt& assign(const_iterator _First, const_iterator _Last)
; 1174 : 		{	// assign [First, _Last), const_iterators
; 1175 : 		return (replace(begin(), end(), _First, _Last));
; 1176 : 		}
; 1177 : 
; 1178 : 	_Myt& insert(size_type _Off, const _Myt& _Right)
; 1179 : 		{	// insert _Right at _Off
; 1180 : 		return (insert(_Off, _Right, 0, npos));
; 1181 : 		}
; 1182 : 
; 1183 : 	_Myt& insert(size_type _Off,
; 1184 : 		const _Myt& _Right, size_type _Roff, size_type _Count)
; 1185 : 		{	// insert _Right [_Roff, _Roff + _Count) at _Off
; 1186 : 		if (this->_Mysize < _Off || _Right.size() < _Roff)
; 1187 : 			_Xran();	// _Off or _Roff off end
; 1188 : 		size_type _Num = _Right.size() - _Roff;
; 1189 : 		if (_Num < _Count)
; 1190 : 			_Count = _Num;	// trim _Count to size
; 1191 : 		if (npos - this->_Mysize <= _Count)
; 1192 : 			_Xlen();	// result too long
; 1193 : 
; 1194 : 		if (0 < _Count && _Grow(_Num = this->_Mysize + _Count))
; 1195 : 			{	// make room and insert new stuff
; 1196 : 			_Traits::move(this->_Myptr() + _Off + _Count,
; 1197 : 				this->_Myptr() + _Off,
; 1198 : 				this->_Mysize - _Off);	// empty out hole
; 1199 : 			if (this == &_Right)
; 1200 : 				_Traits::move(this->_Myptr() + _Off,
; 1201 : 					this->_Myptr() + (_Off < _Roff ? _Roff + _Count : _Roff),
; 1202 : 						_Count);	// substring
; 1203 : 			else
; 1204 : 				_Traits::copy(this->_Myptr() + _Off,
; 1205 : 					_Right._Myptr() + _Roff, _Count);	// fill hole
; 1206 : 			_Eos(_Num);
; 1207 : 			}
; 1208 : 		return (*this);
; 1209 : 		}
; 1210 : 
; 1211 : 	_Myt& insert(size_type _Off,
; 1212 : 		const _Elem *_Ptr, size_type _Count)
; 1213 : 		{	// insert [_Ptr, _Ptr + _Count) at _Off
; 1214 :  #if _ITERATOR_DEBUG_LEVEL == 2
; 1215 : 		if (_Count != 0)
; 1216 : 			_DEBUG_POINTER(_Ptr);
; 1217 :  #endif /* _ITERATOR_DEBUG_LEVEL == 2 */
; 1218 : 
; 1219 : 		if (_Inside(_Ptr))
; 1220 : 			return (insert(_Off, *this,
; 1221 : 				_Ptr - this->_Myptr(), _Count));	// substring
; 1222 : 		if (this->_Mysize < _Off)
; 1223 : 			_Xran();	// _Off off end
; 1224 : 		if (npos - this->_Mysize <= _Count)
; 1225 : 			_Xlen();	// result too long
; 1226 : 		size_type _Num;
; 1227 : 		if (0 < _Count && _Grow(_Num = this->_Mysize + _Count))
; 1228 : 			{	// make room and insert new stuff
; 1229 : 			_Traits::move(this->_Myptr() + _Off + _Count,
; 1230 : 				this->_Myptr() + _Off,
; 1231 : 				this->_Mysize - _Off);	// empty out hole
; 1232 : 			_Traits::copy(this->_Myptr() + _Off, _Ptr, _Count);	// fill hole
; 1233 : 			_Eos(_Num);
; 1234 : 			}
; 1235 : 		return (*this);
; 1236 : 		}
; 1237 : 
; 1238 : 	_Myt& insert(size_type _Off, const _Elem *_Ptr)
; 1239 : 		{	// insert [_Ptr, <null>) at _Off
; 1240 : 		_DEBUG_POINTER(_Ptr);
; 1241 : 		return (insert(_Off, _Ptr, _Traits::length(_Ptr)));
; 1242 : 		}
; 1243 : 
; 1244 : 	_Myt& insert(size_type _Off,
; 1245 : 		size_type _Count, _Elem _Ch)
; 1246 : 		{	// insert _Count * _Ch at _Off
; 1247 : 		if (this->_Mysize < _Off)
; 1248 : 			_Xran();	// _Off off end
; 1249 : 		if (npos - this->_Mysize <= _Count)
; 1250 : 			_Xlen();	// result too long
; 1251 : 		size_type _Num;
; 1252 : 		if (0 < _Count && _Grow(_Num = this->_Mysize + _Count))
; 1253 : 			{	// make room and insert new stuff
; 1254 : 			_Traits::move(this->_Myptr() + _Off + _Count,
; 1255 : 				this->_Myptr() + _Off,
; 1256 : 				this->_Mysize - _Off);	// empty out hole
; 1257 : 			_Chassign(_Off, _Count, _Ch);	// fill hole
; 1258 : 			_Eos(_Num);
; 1259 : 			}
; 1260 : 		return (*this);
; 1261 : 		}
; 1262 : 
; 1263 : 	iterator insert(const_iterator _Where)
; 1264 : 		{	// insert <null> at _Where
; 1265 : 		return (insert(_Where, _Elem()));
; 1266 : 		}
; 1267 : 
; 1268 : 	iterator insert(const_iterator _Where, _Elem _Ch)
; 1269 : 		{	// insert _Ch at _Where
; 1270 : 		size_type _Off = _Pdif(_Where, begin());
; 1271 : 		insert(_Off, 1, _Ch);
; 1272 : 		return (begin() + _Off);
; 1273 : 		}
; 1274 : 
; 1275 : 	iterator insert(const_iterator _Where, size_type _Count, _Elem _Ch)
; 1276 : 		{	// insert _Count * _Elem at _Where
; 1277 : 		size_type _Off = _Pdif(_Where, begin());
; 1278 : 		insert(_Off, _Count, _Ch);
; 1279 : 		return (begin() + _Off);
; 1280 : 		}
; 1281 : 
; 1282 : 	template<class _Iter>
; 1283 : 		typename enable_if<_Is_iterator<_Iter>::value,
; 1284 : 			iterator>::type
; 1285 : 		insert(const_iterator _Where, _Iter _First, _Iter _Last)
; 1286 : 		{	// insert [_First, _Last) at _Where, input iterators
; 1287 : 		size_type _Off = _Pdif(_Where, begin());
; 1288 : 		replace(_Where, _Where, _First, _Last);
; 1289 : 		return (begin() + _Off);
; 1290 : 		}
; 1291 : 
; 1292 : 	iterator insert(const_iterator _Where,
; 1293 : 		const_pointer _First, const_pointer _Last)
; 1294 : 		{	// insert [_First, _Last) at _Where, const pointers
; 1295 : 		size_type _Off = _Pdif(_Where, begin());
; 1296 : 		replace(_Where, _Where, _First, _Last);
; 1297 : 		return (begin() + _Off);
; 1298 : 		}
; 1299 : 
; 1300 : 	iterator insert(const_iterator _Where,
; 1301 : 		const_iterator _First, const_iterator _Last)
; 1302 : 		{	// insert [_First, _Last) at _Where, const_iterators
; 1303 : 		size_type _Off = _Pdif(_Where, begin());
; 1304 : 		replace(_Where, _Where, _First, _Last);
; 1305 : 		return (begin() + _Off);
; 1306 : 		}
; 1307 : 
; 1308 : 	_Myt& erase(size_type _Off = 0)
; 1309 : 		{	// erase elements [_Off, ...)
; 1310 : 		if (this->_Mysize < _Off)
; 1311 : 			_Xran();	// _Off off end
; 1312 : 		_Eos(_Off);
; 1313 : 		return (*this);
; 1314 : 		}
; 1315 : 
; 1316 : 	_Myt& erase(size_type _Off, size_type _Count)
; 1317 : 		{	// erase elements [_Off, _Off + _Count)
; 1318 : 		if (this->_Mysize < _Off)
; 1319 : 			_Xran();	// _Off off end
; 1320 : 		if (this->_Mysize - _Off <= _Count)
; 1321 : 			_Eos(_Off);	// erase elements [_Off, ...)
; 1322 : 		else if (0 < _Count)
; 1323 : 			{	// move elements down
; 1324 : 			value_type *_Ptr = this->_Myptr() + _Off;
; 1325 : 			size_type _Newsize = this->_Mysize - _Count;
; 1326 : 			_Traits::move(_Ptr, _Ptr + _Count, _Newsize - _Off);
; 1327 : 			_Eos(_Newsize);
; 1328 : 			}
; 1329 : 		return (*this);
; 1330 : 		}
; 1331 : 
; 1332 : 	iterator erase(const_iterator _Where)
; 1333 : 		{	// erase element at _Where
; 1334 : 		size_type _Count = _Pdif(_Where, begin());
; 1335 : 		erase(_Count, 1);
; 1336 : 		return (_STRING_ITERATOR(this->_Myptr() + _Count));
; 1337 : 		}
; 1338 : 
; 1339 : 	iterator erase(const_iterator _First, const_iterator _Last)
; 1340 : 		{	// erase substring [_First, _Last)
; 1341 : 		_DEBUG_RANGE(_First, _Last);
; 1342 : 		size_type _Count = _Pdif(_First, begin());
; 1343 : 		erase(_Count, _Pdif(_Last, _First));
; 1344 : 		return (_STRING_ITERATOR(this->_Myptr() + _Count));
; 1345 : 		}
; 1346 : 
; 1347 : 	void clear() _NOEXCEPT
; 1348 : 		{	// erase all
; 1349 : 		_Eos(0);
; 1350 : 		}
; 1351 : 
; 1352 : 	_Myt& replace(size_type _Off, size_type _N0, const _Myt& _Right)
; 1353 : 		{	// replace [_Off, _Off + _N0) with _Right
; 1354 : 		return (replace(_Off, _N0, _Right, 0, npos));
; 1355 : 		}
; 1356 : 
; 1357 : 	_Myt& replace(size_type _Off,
; 1358 : 		size_type _N0, const _Myt& _Right, size_type _Roff, size_type _Count)
; 1359 : 		{	// replace [_Off, _Off + _N0) with _Right [_Roff, _Roff + _Count)
; 1360 : 		if (this->_Mysize < _Off || _Right.size() < _Roff)
; 1361 : 			_Xran();	// _Off or _Roff off end
; 1362 : 		if (this->_Mysize - _Off < _N0)
; 1363 : 			_N0 = this->_Mysize - _Off;	// trim _N0 to size
; 1364 : 		size_type _Num = _Right.size() - _Roff;
; 1365 : 		if (_Num < _Count)
; 1366 : 			_Count = _Num;	// trim _Count to size
; 1367 : 		if (npos - _Count <= this->_Mysize - _N0)
; 1368 : 			_Xlen();	// result too long
; 1369 : 
; 1370 : 		size_type _Nm = this->_Mysize - _N0 - _Off;	// length of kept tail
; 1371 : 		size_type _Newsize = this->_Mysize + _Count - _N0;
; 1372 : 		if (this->_Mysize < _Newsize)
; 1373 : 			_Grow(_Newsize);
; 1374 : 
; 1375 : 		if (this != &_Right)
; 1376 : 			{	// no overlap, just move down and copy in new stuff
; 1377 : 			_Traits::move(this->_Myptr() + _Off + _Count,
; 1378 : 				this->_Myptr() + _Off + _N0, _Nm);	// empty hole
; 1379 : 			_Traits::copy(this->_Myptr() + _Off,
; 1380 : 				_Right._Myptr() + _Roff, _Count);	// fill hole
; 1381 : 			}
; 1382 : 		else if (_Count <= _N0)
; 1383 : 			{	// hole doesn't get larger, just copy in substring
; 1384 : 			_Traits::move(this->_Myptr() + _Off,
; 1385 : 				this->_Myptr() + _Roff, _Count);	// fill hole
; 1386 : 			_Traits::move(this->_Myptr() + _Off + _Count,
; 1387 : 				this->_Myptr() + _Off + _N0, _Nm);	// move tail down
; 1388 : 			}
; 1389 : 		else if (_Roff <= _Off)
; 1390 : 			{	// hole gets larger, substring begins before hole
; 1391 : 			_Traits::move(this->_Myptr() + _Off + _Count,
; 1392 : 				this->_Myptr() + _Off + _N0, _Nm);	// move tail down
; 1393 : 			_Traits::move(this->_Myptr() + _Off,
; 1394 : 				this->_Myptr() + _Roff, _Count);	// fill hole
; 1395 : 			}
; 1396 : 		else if (_Off + _N0 <= _Roff)
; 1397 : 			{	// hole gets larger, substring begins after hole
; 1398 : 			_Traits::move(this->_Myptr() + _Off + _Count,
; 1399 : 				this->_Myptr() + _Off + _N0, _Nm);	// move tail down
; 1400 : 			_Traits::move(this->_Myptr() + _Off,
; 1401 : 				this->_Myptr() + (_Roff + _Count - _N0),
; 1402 : 				_Count);	// fill hole
; 1403 : 			}
; 1404 : 		else
; 1405 : 			{	// hole gets larger, substring begins in hole
; 1406 : 			_Traits::move(this->_Myptr() + _Off,
; 1407 : 				this->_Myptr() + _Roff, _N0);	// fill old hole
; 1408 : 			_Traits::move(this->_Myptr() + _Off + _Count,
; 1409 : 				this->_Myptr() + _Off + _N0, _Nm);	// move tail down
; 1410 : 			_Traits::move(this->_Myptr() + _Off + _N0,
; 1411 : 				this->_Myptr() + _Roff + _Count,
; 1412 : 				_Count - _N0);	// fill rest of new hole
; 1413 : 			}
; 1414 : 
; 1415 : 		_Eos(_Newsize);
; 1416 : 		return (*this);
; 1417 : 		}
; 1418 : 
; 1419 : 	_Myt& replace(size_type _Off,
; 1420 : 		size_type _N0, const _Elem *_Ptr, size_type _Count)
; 1421 : 		{	// replace [_Off, _Off + _N0) with [_Ptr, _Ptr + _Count)
; 1422 :  #if _ITERATOR_DEBUG_LEVEL == 2
; 1423 : 		if (_Count != 0)
; 1424 : 			_DEBUG_POINTER(_Ptr);
; 1425 :  #endif /* _ITERATOR_DEBUG_LEVEL == 2 */
; 1426 : 
; 1427 : 		if (_Inside(_Ptr))
; 1428 : 			return (replace(_Off, _N0, *this,
; 1429 : 				_Ptr - this->_Myptr(),
; 1430 : 				_Count));	// substring, replace carefully
; 1431 : 		if (this->_Mysize < _Off)
; 1432 : 			_Xran();	// _Off off end
; 1433 : 		if (this->_Mysize - _Off < _N0)
; 1434 : 			_N0 = this->_Mysize - _Off;	// trim _N0 to size
; 1435 : 		if (npos - _Count <= this->_Mysize - _N0)
; 1436 : 			_Xlen();	// result too long
; 1437 : 		size_type _Nm = this->_Mysize - _N0 - _Off;
; 1438 : 
; 1439 : 		if (_Count < _N0)
; 1440 : 			_Traits::move(this->_Myptr() + _Off + _Count,
; 1441 : 				this->_Myptr() + _Off + _N0,
; 1442 : 				_Nm);	// smaller hole, move tail up
; 1443 : 		size_type _Num;
; 1444 : 		if ((0 < _Count || 0 < _N0)
; 1445 : 			&& _Grow(_Num = this->_Mysize + _Count - _N0))
; 1446 : 			{	// make room and rearrange
; 1447 : 			if (_N0 < _Count)
; 1448 : 				_Traits::move(this->_Myptr() + _Off + _Count,
; 1449 : 					this->_Myptr() + _Off + _N0, _Nm);	// move tail down
; 1450 : 			_Traits::copy(this->_Myptr() + _Off, _Ptr, _Count);	// fill hole
; 1451 : 			_Eos(_Num);
; 1452 : 			}
; 1453 : 		return (*this);
; 1454 : 		}
; 1455 : 
; 1456 : 	_Myt& replace(size_type _Off, size_type _N0, const _Elem *_Ptr)
; 1457 : 		{	// replace [_Off, _Off + _N0) with [_Ptr, <null>)
; 1458 : 		_DEBUG_POINTER(_Ptr);
; 1459 : 		return (replace(_Off, _N0, _Ptr, _Traits::length(_Ptr)));
; 1460 : 		}
; 1461 : 
; 1462 : 	_Myt& replace(size_type _Off,
; 1463 : 		size_type _N0, size_type _Count, _Elem _Ch)
; 1464 : 		{	// replace [_Off, _Off + _N0) with _Count * _Ch
; 1465 : 		if (this->_Mysize < _Off)
; 1466 : 			_Xran();	// _Off off end
; 1467 : 		if (this->_Mysize - _Off < _N0)
; 1468 : 			_N0 = this->_Mysize - _Off;	// trim _N0 to size
; 1469 : 		if (npos - _Count <= this->_Mysize - _N0)
; 1470 : 			_Xlen();	// result too long
; 1471 : 		size_type _Nm = this->_Mysize - _N0 - _Off;
; 1472 : 
; 1473 : 		if (_Count < _N0)
; 1474 : 			_Traits::move(this->_Myptr() + _Off + _Count,
; 1475 : 				this->_Myptr() + _Off + _N0,
; 1476 : 				_Nm);	// smaller hole, move tail up
; 1477 : 		size_type _Num;
; 1478 : 		if ((0 < _Count || 0 < _N0)
; 1479 : 			&& _Grow(_Num = this->_Mysize + _Count - _N0))
; 1480 : 			{	// make room and rearrange
; 1481 : 			if (_N0 < _Count)
; 1482 : 				_Traits::move(this->_Myptr() + _Off + _Count,
; 1483 : 					this->_Myptr() + _Off + _N0, _Nm);	// move tail down
; 1484 : 			_Chassign(_Off, _Count, _Ch);	// fill hole
; 1485 : 			_Eos(_Num);
; 1486 : 			}
; 1487 : 		return (*this);
; 1488 : 		}
; 1489 : 
; 1490 : 	_Myt& replace(const_iterator _First, const_iterator _Last,
; 1491 : 		const _Myt& _Right)
; 1492 : 		{	// replace [_First, _Last) with _Right
; 1493 : 		return (replace(
; 1494 : 			_Pdif(_First, begin()), _Pdif(_Last, _First), _Right));
; 1495 : 		}
; 1496 : 
; 1497 : 	_Myt& replace(const_iterator _First, const_iterator _Last,
; 1498 : 		const _Elem *_Ptr, size_type _Count)
; 1499 : 		{	// replace [_First, _Last) with [_Ptr, _Ptr + _Count)
; 1500 : 		return (replace(
; 1501 : 			_Pdif(_First, begin()), _Pdif(_Last, _First), _Ptr, _Count));
; 1502 : 		}
; 1503 : 
; 1504 : 	_Myt& replace(const_iterator _First, const_iterator _Last,
; 1505 : 		const _Elem *_Ptr)
; 1506 : 		{	// replace [_First, _Last) with [_Ptr, <null>)
; 1507 : 		return (replace(
; 1508 : 			_Pdif(_First, begin()), _Pdif(_Last, _First), _Ptr));
; 1509 : 		}
; 1510 : 
; 1511 : 	_Myt& replace(const_iterator _First, const_iterator _Last,
; 1512 : 		size_type _Count, _Elem _Ch)
; 1513 : 		{	// replace [_First, _Last) with _Count * _Ch
; 1514 : 		return (replace(
; 1515 : 			_Pdif(_First, begin()), _Pdif(_Last, _First), _Count, _Ch));
; 1516 : 		}
; 1517 : 
; 1518 : 	template<class _Iter>
; 1519 : 		typename enable_if<_Is_iterator<_Iter>::value,
; 1520 : 			_Myt&>::type
; 1521 : 		replace(const_iterator _First, const_iterator _Last,
; 1522 : 			_Iter _First2, _Iter _Last2)
; 1523 : 		{	// replace [_First, _Last) with [_First2, _Last2), input iterators
; 1524 : 		_Myt _Right(_First2, _Last2);
; 1525 : 		replace(_First, _Last, _Right);
; 1526 : 		return (*this);
; 1527 : 		}
; 1528 : 
; 1529 : 	_Myt& replace(const_iterator _First, const_iterator _Last,
; 1530 : 		const_pointer _First2, const_pointer _Last2)
; 1531 : 		{	// replace [_First, _Last) with [_First2, _Last2), const pointers
; 1532 : 		if (_First2 == _Last2)
; 1533 : 			erase(_Pdif(_First, begin()), _Pdif(_Last, _First));
; 1534 : 		else
; 1535 : 			replace(_Pdif(_First, begin()), _Pdif(_Last, _First),
; 1536 : 				&*_First2, _Last2 - _First2);
; 1537 : 		return (*this);
; 1538 : 		}
; 1539 : 
; 1540 : 	_Myt& replace(const_iterator _First, const_iterator _Last,
; 1541 : 		pointer _First2, pointer _Last2)
; 1542 : 		{	// replace [_First, _Last) with [_First2, _Last2), const pointers
; 1543 : 		if (_First2 == _Last2)
; 1544 : 			erase(_Pdif(_First, begin()), _Pdif(_Last, _First));
; 1545 : 		else
; 1546 : 			replace(_Pdif(_First, begin()), _Pdif(_Last, _First),
; 1547 : 				&*_First2, _Last2 - _First2);
; 1548 : 		return (*this);
; 1549 : 		}
; 1550 : 
; 1551 : 	_Myt& replace(const_iterator _First, const_iterator _Last,
; 1552 : 		const_iterator _First2, const_iterator _Last2)
; 1553 : 		{	// replace [_First, _Last) with [_First2, _Last2), const_iterators
; 1554 : 		if (_First2 == _Last2)
; 1555 : 			erase(_Pdif(_First, begin()), _Pdif(_Last, _First));
; 1556 : 		else
; 1557 : 			replace(_Pdif(_First, begin()), _Pdif(_Last, _First),
; 1558 : 				&*_First2, _Last2 - _First2);
; 1559 : 		return (*this);
; 1560 : 		}
; 1561 : 
; 1562 : 	_Myt& replace(const_iterator _First, const_iterator _Last,
; 1563 : 		iterator _First2, iterator _Last2)
; 1564 : 		{	// replace [_First, _Last) with [_First2, _Last2), const_iterators
; 1565 : 		if (_First2 == _Last2)
; 1566 : 			erase(_Pdif(_First, begin()), _Pdif(_Last, _First));
; 1567 : 		else
; 1568 : 			replace(_Pdif(_First, begin()), _Pdif(_Last, _First),
; 1569 : 				&*_First2, _Last2 - _First2);
; 1570 : 		return (*this);
; 1571 : 		}
; 1572 : 
; 1573 : 	iterator begin() _NOEXCEPT
; 1574 : 		{	// return iterator for beginning of mutable sequence
; 1575 : 		return (_STRING_ITERATOR(this->_Myptr()));
; 1576 : 		}
; 1577 : 
; 1578 : 	const_iterator begin() const _NOEXCEPT
; 1579 : 		{	// return iterator for beginning of nonmutable sequence
; 1580 : 		return (_STRING_CONST_ITERATOR(this->_Myptr()));
; 1581 : 		}
; 1582 : 
; 1583 : 	iterator end() _NOEXCEPT
; 1584 : 		{	// return iterator for end of mutable sequence
; 1585 : 		return (_STRING_ITERATOR(this->_Myptr() + this->_Mysize));
; 1586 : 		}
; 1587 : 
; 1588 : 	const_iterator end() const _NOEXCEPT
; 1589 : 		{	// return iterator for end of nonmutable sequence
; 1590 : 		return (_STRING_CONST_ITERATOR(this->_Myptr() + this->_Mysize));
; 1591 : 		}
; 1592 : 
; 1593 : 	reverse_iterator rbegin() _NOEXCEPT
; 1594 : 		{	// return iterator for beginning of reversed mutable sequence
; 1595 : 		return (reverse_iterator(end()));
; 1596 : 		}
; 1597 : 
; 1598 : 	const_reverse_iterator rbegin() const _NOEXCEPT
; 1599 : 		{	// return iterator for beginning of reversed nonmutable sequence
; 1600 : 		return (const_reverse_iterator(end()));
; 1601 : 		}
; 1602 : 
; 1603 : 	reverse_iterator rend() _NOEXCEPT
; 1604 : 		{	// return iterator for end of reversed mutable sequence
; 1605 : 		return (reverse_iterator(begin()));
; 1606 : 		}
; 1607 : 
; 1608 : 	const_reverse_iterator rend() const _NOEXCEPT
; 1609 : 		{	// return iterator for end of reversed nonmutable sequence
; 1610 : 		return (const_reverse_iterator(begin()));
; 1611 : 		}
; 1612 : 
; 1613 :  #if _HAS_CPP0X
; 1614 : 	const_iterator cbegin() const _NOEXCEPT
; 1615 : 		{	// return iterator for beginning of nonmutable sequence
; 1616 : 		return (((const _Myt *)this)->begin());
; 1617 : 		}
; 1618 : 
; 1619 : 	const_iterator cend() const _NOEXCEPT
; 1620 : 		{	// return iterator for end of nonmutable sequence
; 1621 : 		return (((const _Myt *)this)->end());
; 1622 : 		}
; 1623 : 
; 1624 : 	const_reverse_iterator crbegin() const _NOEXCEPT
; 1625 : 		{	// return iterator for beginning of reversed nonmutable sequence
; 1626 : 		return (((const _Myt *)this)->rbegin());
; 1627 : 		}
; 1628 : 
; 1629 : 	const_reverse_iterator crend() const _NOEXCEPT
; 1630 : 		{	// return iterator for end of reversed nonmutable sequence
; 1631 : 		return (((const _Myt *)this)->rend());
; 1632 : 		}
; 1633 : 
; 1634 : 	void shrink_to_fit()
; 1635 : 		{	// reduce capacity
; 1636 : 		if ((size() | this->_ALLOC_MASK) < capacity())
; 1637 : 			{	// worth shrinking, do it
; 1638 : 			_Myt _Tmp(*this);
; 1639 : 			swap(_Tmp);
; 1640 : 			}
; 1641 : 		}
; 1642 :  #endif /* _HAS_CPP0X */
; 1643 : 
; 1644 : 	reference at(size_type _Off)
; 1645 : 		{	// subscript mutable sequence with checking
; 1646 : 		if (this->_Mysize <= _Off)
; 1647 : 			_Xran();	// _Off off end
; 1648 : 		return (this->_Myptr()[_Off]);
; 1649 : 		}
; 1650 : 
; 1651 : 	const_reference at(size_type _Off) const
; 1652 : 		{	// subscript nonmutable sequence with checking
; 1653 : 		if (this->_Mysize <= _Off)
; 1654 : 			_Xran();	// _Off off end
; 1655 : 		return (this->_Myptr()[_Off]);
; 1656 : 		}
; 1657 : 
; 1658 : 	reference operator[](size_type _Off)
; 1659 : 		{	// subscript mutable sequence
; 1660 :  #if _ITERATOR_DEBUG_LEVEL == 2
; 1661 : 		if (this->_Mysize < _Off)	// sic
; 1662 : 			_DEBUG_ERROR("string subscript out of range");
; 1663 : 
; 1664 :  #elif _ITERATOR_DEBUG_LEVEL == 1
; 1665 : 		_SCL_SECURE_VALIDATE_RANGE(_Off <= this->_Mysize);	// sic
; 1666 :  #endif /* _ITERATOR_DEBUG_LEVEL == 2 */
; 1667 : 
; 1668 : 		return (this->_Myptr()[_Off]);
; 1669 : 		}
; 1670 : 
; 1671 : 	const_reference operator[](size_type _Off) const
; 1672 : 		{	// subscript nonmutable sequence
; 1673 :  #if _ITERATOR_DEBUG_LEVEL == 2
; 1674 : 		if (this->_Mysize < _Off)	// sic
; 1675 : 			_DEBUG_ERROR("string subscript out of range");
; 1676 : 
; 1677 :  #elif _ITERATOR_DEBUG_LEVEL == 1
; 1678 : 		_SCL_SECURE_VALIDATE_RANGE(_Off <= this->_Mysize);	// sic
; 1679 :  #endif /* _ITERATOR_DEBUG_LEVEL == 2 */
; 1680 : 
; 1681 : 		return (this->_Myptr()[_Off]);
; 1682 : 		}
; 1683 : 
; 1684 : 	void push_back(_Elem _Ch)
; 1685 : 		{	// insert element at end
; 1686 : 		insert(end(), _Ch);
; 1687 : 		}
; 1688 : 
; 1689 :  #if _HAS_CPP0X
; 1690 : 	void pop_back()
; 1691 : 		{	// erase element at end
; 1692 : 		erase(this->_Mysize - 1);	// throws if _Mysize == 0
; 1693 : 		}
; 1694 : 
; 1695 : 	reference front()
; 1696 : 		{	// return first element of mutable sequence
; 1697 : 		return (*begin());
; 1698 : 		}
; 1699 : 
; 1700 : 	const_reference front() const
; 1701 : 		{	// return first element of nonmutable sequence
; 1702 : 		return (*begin());
; 1703 : 		}
; 1704 : 
; 1705 : 	reference back()
; 1706 : 		{	// return last element of mutable sequence
; 1707 : 		return (*(end() - 1));
; 1708 : 		}
; 1709 : 
; 1710 : 	const_reference back() const
; 1711 : 		{	// return last element of nonmutable sequence
; 1712 : 		return (*(end() - 1));
; 1713 : 		}
; 1714 :  #endif /* _HAS_CPP0X */
; 1715 : 
; 1716 : 	const _Elem *c_str() const _NOEXCEPT
; 1717 : 		{	// return pointer to null-terminated nonmutable array
; 1718 : 		return (this->_Myptr());
; 1719 : 		}
; 1720 : 
; 1721 : 	const _Elem *data() const _NOEXCEPT
; 1722 : 		{	// return pointer to nonmutable array
; 1723 : 		return (c_str());
; 1724 : 		}
; 1725 : 
; 1726 : 	size_type length() const _NOEXCEPT
; 1727 : 		{	// return length of sequence
; 1728 : 		return (this->_Mysize);
; 1729 : 		}
; 1730 : 
; 1731 : 	size_type size() const _NOEXCEPT
; 1732 : 		{	// return length of sequence
; 1733 : 		return (this->_Mysize);
; 1734 : 		}
; 1735 : 
; 1736 : 	size_type max_size() const _NOEXCEPT
; 1737 : 		{	// return maximum possible length of sequence
; 1738 : 		size_type _Num = this->_Getal().max_size();
; 1739 : 		return (_Num <= 1 ? 1 : _Num - 1);
; 1740 : 		}
; 1741 : 
; 1742 : 	void resize(size_type _Newsize)
; 1743 : 		{	// determine new length, padding with null elements as needed
; 1744 : 		resize(_Newsize, _Elem());
; 1745 : 		}
; 1746 : 
; 1747 : 	void resize(size_type _Newsize, _Elem _Ch)
; 1748 : 		{	// determine new length, padding with _Ch elements as needed
; 1749 : 		if (_Newsize <= this->_Mysize)
; 1750 : 			_Eos(_Newsize);
; 1751 : 		else
; 1752 : 			append(_Newsize - this->_Mysize, _Ch);
; 1753 : 		}
; 1754 : 
; 1755 : 	size_type capacity() const _NOEXCEPT
; 1756 : 		{	// return current length of allocated storage
; 1757 : 		return (this->_Myres);
; 1758 : 		}
; 1759 : 
; 1760 : 	void reserve(size_type _Newcap = 0)
; 1761 : 		{	// determine new minimum length of allocated storage
; 1762 : 		if (this->_Mysize <= _Newcap && this->_Myres != _Newcap)
; 1763 : 			{	// change reservation
; 1764 : 			size_type _Size = this->_Mysize;
; 1765 : 			if (_Grow(_Newcap, true))
; 1766 : 				_Eos(_Size);
; 1767 : 			}
; 1768 : 		}
; 1769 : 
; 1770 : 	bool empty() const _NOEXCEPT
; 1771 : 		{	// test if sequence is empty
; 1772 : 		return (this->_Mysize == 0);
; 1773 : 		}
; 1774 : 
; 1775 : 	_SCL_INSECURE_DEPRECATE
; 1776 : 
; 1777 : 	size_type copy(_Elem *_Ptr,
; 1778 : 		size_type _Count, size_type _Off = 0) const
; 1779 : 		{	// copy [_Off, _Off + _Count) to [_Ptr, _Ptr + _Count)
; 1780 :  #if _ITERATOR_DEBUG_LEVEL == 2
; 1781 : 		if (_Count != 0)
; 1782 : 			_DEBUG_POINTER(_Ptr);
; 1783 :  #endif /* _ITERATOR_DEBUG_LEVEL == 2 */
; 1784 : 
; 1785 : 		if (this->_Mysize < _Off)
; 1786 : 			_Xran();	// _Off off end
; 1787 : 		if (this->_Mysize - _Off < _Count)
; 1788 : 			_Count = this->_Mysize - _Off;
; 1789 : 		_Traits::copy(_Ptr, this->_Myptr() + _Off, _Count);
; 1790 : 		return (_Count);
; 1791 : 		}
; 1792 : 
; 1793 : 	size_type _Copy_s(_Elem *_Dest, size_type _Dest_size,
; 1794 : 		size_type _Count, size_type _Off = 0) const
; 1795 : 		{	// copy [_Off, _Off + _Count) to [_Dest, _Dest + _Count)
; 1796 :  #if _ITERATOR_DEBUG_LEVEL == 2
; 1797 : 		if (_Count != 0)
; 1798 : 			_DEBUG_POINTER(_Dest);
; 1799 :  #endif /* _ITERATOR_DEBUG_LEVEL == 2 */
; 1800 : 
; 1801 : 		if (this->_Mysize < _Off)
; 1802 : 			_Xran();	// _Off off end
; 1803 : 		if (this->_Mysize - _Off < _Count)
; 1804 : 			_Count = this->_Mysize - _Off;
; 1805 : 		_Traits::_Copy_s(_Dest, _Dest_size, this->_Myptr() + _Off, _Count);
; 1806 : 		return (_Count);
; 1807 : 		}
; 1808 : 
; 1809 : 	void _Swap_bx(_Myt& _Right)
; 1810 : 		{	// exchange _Bx with _Right._Bx
; 1811 : 		if (this->_BUF_SIZE <= this->_Myres)
; 1812 : 			if (this->_BUF_SIZE <= _Right._Myres)
; 1813 : 				_Swap_adl(this->_Bx._Ptr, _Right._Bx._Ptr);
; 1814 : 			else
; 1815 : 				{	// swap large with small
; 1816 : 				pointer _Ptr = this->_Bx._Ptr;
; 1817 : 				this->_Getal().destroy(&this->_Bx._Ptr);
; 1818 : 				_Traits::copy(this->_Bx._Buf,
; 1819 : 					_Right._Bx._Buf, _Right._Mysize + 1);
; 1820 : 				this->_Getal().construct(&_Right._Bx._Ptr, _Ptr);
; 1821 : 				}
; 1822 : 		else
; 1823 : 			if (_Right._Myres < this->_BUF_SIZE)
; 1824 : 				_STD swap(this->_Bx._Buf, _Right._Bx._Buf);
; 1825 : 			else
; 1826 : 				{	// swap small with large
; 1827 : 				pointer _Ptr = _Right._Bx._Ptr;
; 1828 : 				this->_Getal().destroy(&_Right._Bx._Ptr);
; 1829 : 				_Traits::copy(_Right._Bx._Buf,
; 1830 : 					this->_Bx._Buf, this->_Mysize + 1);
; 1831 : 				this->_Getal().construct(&this->_Bx._Ptr, _Ptr);
; 1832 : 				}
; 1833 : 		}
; 1834 : 
; 1835 : 	void swap(_Myt& _Right)
; 1836 : 		{	// exchange contents with _Right
; 1837 : 		if (this == &_Right)
; 1838 : 			;	// same object, do nothing
; 1839 : 		else if (this->_Getal() == _Right._Getal())
; 1840 : 			{	// same allocator, swap control information
; 1841 : 			this->_Swap_all(_Right);
; 1842 : 			_Swap_bx(_Right);
; 1843 : 			_STD swap(this->_Mysize, _Right._Mysize);
; 1844 : 			_STD swap(this->_Myres, _Right._Myres);
; 1845 : 			}
; 1846 : 
; 1847 :  #if _HAS_CPP0X
; 1848 : 		else if (_Alty::propagate_on_container_swap::value)
; 1849 : 			{	// swap allocators and control information
; 1850 : 			this->_Swap_alloc(_Right);
; 1851 : 			_Swap_bx(_Right);
; 1852 : 			_STD swap(this->_Bx, _Right._Bx);	// pointer bitwise copyable?
; 1853 : 			_STD swap(this->_Mysize, _Right._Mysize);
; 1854 : 			_STD swap(this->_Myres, _Right._Myres);
; 1855 : 			}
; 1856 :  #endif /* _HAS_CPP0X */
; 1857 : 
; 1858 : 		else
; 1859 : 			{	// different allocator, do multiple assigns
; 1860 : 			_Myt _Tmp = *this;
; 1861 : 
; 1862 : 			*this = _Right;
; 1863 : 			_Right = _Tmp;
; 1864 : 			}
; 1865 : 		}
; 1866 : 
; 1867 : 	size_type find(const _Myt& _Right, size_type _Off = 0) const _NOEXCEPT
; 1868 : 		{	// look for _Right beginning at or after _Off
; 1869 : 		return (find(_Right._Myptr(), _Off, _Right.size()));
; 1870 : 		}
; 1871 : 
; 1872 : 	size_type find(const _Elem *_Ptr,
; 1873 : 		size_type _Off, size_type _Count) const
; 1874 : 		{	// look for [_Ptr, _Ptr + _Count) beginning at or after _Off
; 1875 :  #if _ITERATOR_DEBUG_LEVEL == 2
; 1876 : 		if (_Count != 0)
; 1877 : 			_DEBUG_POINTER(_Ptr);
; 1878 :  #endif /* _ITERATOR_DEBUG_LEVEL == 2 */
; 1879 : 
; 1880 : 		if (_Count == 0 && _Off <= this->_Mysize)
; 1881 : 			return (_Off);	// null string always matches (if inside string)
; 1882 : 
; 1883 : 		size_type _Nm;
; 1884 : 		if (_Off < this->_Mysize && _Count <= (_Nm = this->_Mysize - _Off))
; 1885 : 			{	// room for match, look for it
; 1886 : 			const _Elem *_Uptr, *_Vptr;
; 1887 : 			for (_Nm -= _Count - 1, _Vptr = this->_Myptr() + _Off;
; 1888 : 				(_Uptr = _Traits::find(_Vptr, _Nm, *_Ptr)) != 0;
; 1889 : 				_Nm -= _Uptr - _Vptr + 1, _Vptr = _Uptr + 1)
; 1890 : 				if (_Traits::compare(_Uptr, _Ptr, _Count) == 0)
; 1891 : 					return (_Uptr - this->_Myptr());	// found a match
; 1892 : 			}
; 1893 : 
; 1894 : 		return (npos);	// no match
; 1895 : 		}
; 1896 : 
; 1897 : 	size_type find(const _Elem *_Ptr, size_type _Off = 0) const
; 1898 : 		{	// look for [_Ptr, <null>) beginning at or after _Off
; 1899 : 		_DEBUG_POINTER(_Ptr);
; 1900 : 		return (find(_Ptr, _Off, _Traits::length(_Ptr)));
; 1901 : 		}
; 1902 : 
; 1903 : 	size_type find(_Elem _Ch, size_type _Off = 0) const
; 1904 : 		{	// look for _Ch at or after _Off
; 1905 : 		return (find((const _Elem *)&_Ch, _Off, 1));
; 1906 : 		}
; 1907 : 
; 1908 : 	size_type rfind(const _Myt& _Right, size_type _Off = npos) const _NOEXCEPT
; 1909 : 		{	// look for _Right beginning before _Off
; 1910 : 		return (rfind(_Right._Myptr(), _Off, _Right.size()));
; 1911 : 		}
; 1912 : 
; 1913 : 	size_type rfind(const _Elem *_Ptr,
; 1914 : 		size_type _Off, size_type _Count) const
; 1915 : 		{	// look for [_Ptr, _Ptr + _Count) beginning before _Off
; 1916 :  #if _ITERATOR_DEBUG_LEVEL == 2
; 1917 : 		if (_Count != 0)
; 1918 : 			_DEBUG_POINTER(_Ptr);
; 1919 :  #endif /* _ITERATOR_DEBUG_LEVEL == 2 */
; 1920 : 
; 1921 : 		if (_Count == 0)
; 1922 : 			return (_Off < this->_Mysize ? _Off
; 1923 : 				: this->_Mysize);	// null always matches
; 1924 : 		if (_Count <= this->_Mysize)
; 1925 : 			{	// room for match, look for it
; 1926 : 			const _Elem *_Uptr = this->_Myptr() +
; 1927 : 				(_Off < this->_Mysize - _Count ? _Off
; 1928 : 					: this->_Mysize - _Count);
; 1929 : 			for (; ; --_Uptr)
; 1930 : 				if (_Traits::eq(*_Uptr, *_Ptr)
; 1931 : 					&& _Traits::compare(_Uptr, _Ptr, _Count) == 0)
; 1932 : 					return (_Uptr - this->_Myptr());	// found a match
; 1933 : 				else if (_Uptr == this->_Myptr())
; 1934 : 					break;	// at beginning, no more chance for match
; 1935 : 			}
; 1936 : 
; 1937 : 		return (npos);	// no match
; 1938 : 		}
; 1939 : 
; 1940 : 	size_type rfind(const _Elem *_Ptr, size_type _Off = npos) const
; 1941 : 		{	// look for [_Ptr, <null>) beginning before _Off
; 1942 : 		_DEBUG_POINTER(_Ptr);
; 1943 : 		return (rfind(_Ptr, _Off, _Traits::length(_Ptr)));
; 1944 : 		}
; 1945 : 
; 1946 : 	size_type rfind(_Elem _Ch, size_type _Off = npos) const
; 1947 : 		{	// look for _Ch before _Off
; 1948 : 		return (rfind((const _Elem *)&_Ch, _Off, 1));
; 1949 : 		}
; 1950 : 
; 1951 : 	size_type find_first_of(const _Myt& _Right,
; 1952 : 		size_type _Off = 0) const _NOEXCEPT
; 1953 : 		{	// look for one of _Right at or after _Off
; 1954 : 		return (find_first_of(_Right._Myptr(), _Off, _Right.size()));
; 1955 : 		}
; 1956 : 
; 1957 : 	size_type find_first_of(const _Elem *_Ptr,
; 1958 : 		size_type _Off, size_type _Count) const
; 1959 : 		{	// look for one of [_Ptr, _Ptr + _Count) at or after _Off
; 1960 :  #if _ITERATOR_DEBUG_LEVEL == 2
; 1961 : 		if (_Count != 0)
; 1962 : 			_DEBUG_POINTER(_Ptr);
; 1963 :  #endif /* _ITERATOR_DEBUG_LEVEL == 2 */
; 1964 : 
; 1965 : 		if (0 < _Count && _Off < this->_Mysize)
; 1966 : 			{	// room for match, look for it
; 1967 : 			const _Elem *const _Vptr = this->_Myptr() + this->_Mysize;
; 1968 : 			for (const _Elem *_Uptr = this->_Myptr() + _Off;
; 1969 : 				_Uptr < _Vptr; ++_Uptr)
; 1970 : 				if (_Traits::find(_Ptr, _Count, *_Uptr) != 0)
; 1971 : 					return (_Uptr - this->_Myptr());	// found a match
; 1972 : 			}
; 1973 : 
; 1974 : 		return (npos);	// no match
; 1975 : 		}
; 1976 : 
; 1977 : 	size_type find_first_of(const _Elem *_Ptr,
; 1978 : 		size_type _Off = 0) const
; 1979 : 		{	// look for one of [_Ptr, <null>) at or after _Off
; 1980 : 		_DEBUG_POINTER(_Ptr);
; 1981 : 		return (find_first_of(_Ptr, _Off, _Traits::length(_Ptr)));
; 1982 : 		}
; 1983 : 
; 1984 : 	size_type find_first_of(_Elem _Ch,
; 1985 : 		size_type _Off = 0) const
; 1986 : 		{	// look for _Ch at or after _Off
; 1987 : 		return (find((const _Elem *)&_Ch, _Off, 1));
; 1988 : 		}
; 1989 : 
; 1990 : 	size_type find_last_of(const _Myt& _Right,
; 1991 : 		size_type _Off = npos) const _NOEXCEPT
; 1992 : 		{	// look for one of _Right before _Off
; 1993 : 		return (find_last_of(_Right._Myptr(), _Off, _Right.size()));
; 1994 : 		}
; 1995 : 
; 1996 : 	size_type find_last_of(const _Elem *_Ptr,
; 1997 : 		size_type _Off, size_type _Count) const
; 1998 : 		{	// look for one of [_Ptr, _Ptr + _Count) before _Off
; 1999 :  #if _ITERATOR_DEBUG_LEVEL == 2
; 2000 : 		if (_Count != 0)
; 2001 : 			_DEBUG_POINTER(_Ptr);
; 2002 :  #endif /* _ITERATOR_DEBUG_LEVEL == 2 */
; 2003 : 
; 2004 : 		if (0 < _Count && 0 < this->_Mysize)
; 2005 : 			{	// worth searching, do it
; 2006 : 			const _Elem *_Uptr = this->_Myptr()
; 2007 : 				+ (_Off < this->_Mysize ? _Off : this->_Mysize - 1);
; 2008 : 			for (; ; --_Uptr)
; 2009 : 				if (_Traits::find(_Ptr, _Count, *_Uptr) != 0)
; 2010 : 					return (_Uptr - this->_Myptr());	// found a match
; 2011 : 				else if (_Uptr == this->_Myptr())
; 2012 : 					break;	// at beginning, no more chance for match
; 2013 : 			}
; 2014 : 
; 2015 : 		return (npos);	// no match
; 2016 : 		}
; 2017 : 
; 2018 : 	size_type find_last_of(const _Elem *_Ptr,
; 2019 : 		size_type _Off = npos) const
; 2020 : 		{	// look for one of [_Ptr, <null>) before _Off
; 2021 : 		_DEBUG_POINTER(_Ptr);
; 2022 : 		return (find_last_of(_Ptr, _Off, _Traits::length(_Ptr)));
; 2023 : 		}
; 2024 : 
; 2025 : 	size_type find_last_of(_Elem _Ch,
; 2026 : 		size_type _Off = npos) const
; 2027 : 		{	// look for _Ch before _Off
; 2028 : 		return (rfind((const _Elem *)&_Ch, _Off, 1));
; 2029 : 		}
; 2030 : 
; 2031 : 	size_type find_first_not_of(const _Myt& _Right,
; 2032 : 		size_type _Off = 0) const _NOEXCEPT
; 2033 : 		{	// look for none of _Right at or after _Off
; 2034 : 		return (find_first_not_of(_Right._Myptr(), _Off,
; 2035 : 			_Right.size()));
; 2036 : 		}
; 2037 : 
; 2038 : 	size_type find_first_not_of(const _Elem *_Ptr,
; 2039 : 		size_type _Off, size_type _Count) const
; 2040 : 		{	// look for none of [_Ptr, _Ptr + _Count) at or after _Off
; 2041 :  #if _ITERATOR_DEBUG_LEVEL == 2
; 2042 : 		if (_Count != 0)
; 2043 : 			_DEBUG_POINTER(_Ptr);
; 2044 :  #endif /* _ITERATOR_DEBUG_LEVEL == 2 */
; 2045 : 
; 2046 : 		if (_Off < this->_Mysize)
; 2047 : 			{	// room for match, look for it
; 2048 : 			const _Elem *const _Vptr = this->_Myptr() + this->_Mysize;
; 2049 : 			for (const _Elem *_Uptr = this->_Myptr() + _Off;
; 2050 : 				_Uptr < _Vptr; ++_Uptr)
; 2051 : 				if (_Traits::find(_Ptr, _Count, *_Uptr) == 0)
; 2052 : 					return (_Uptr - this->_Myptr());
; 2053 : 			}
; 2054 : 		return (npos);
; 2055 : 		}
; 2056 : 
; 2057 : 	size_type find_first_not_of(const _Elem *_Ptr,
; 2058 : 		size_type _Off = 0) const
; 2059 : 		{	// look for one of [_Ptr, <null>) at or after _Off
; 2060 : 		_DEBUG_POINTER(_Ptr);
; 2061 : 		return (find_first_not_of(_Ptr, _Off, _Traits::length(_Ptr)));
; 2062 : 		}
; 2063 : 
; 2064 : 	size_type find_first_not_of(_Elem _Ch,
; 2065 : 		size_type _Off = 0) const
; 2066 : 		{	// look for non _Ch at or after _Off
; 2067 : 		return (find_first_not_of((const _Elem *)&_Ch, _Off, 1));
; 2068 : 		}
; 2069 : 
; 2070 : 	size_type find_last_not_of(const _Myt& _Right,
; 2071 : 		size_type _Off = npos) const _NOEXCEPT
; 2072 : 		{	// look for none of _Right before _Off
; 2073 : 		return (find_last_not_of(_Right._Myptr(), _Off, _Right.size()));
; 2074 : 		}
; 2075 : 
; 2076 : 	size_type find_last_not_of(const _Elem *_Ptr,
; 2077 : 		size_type _Off, size_type _Count) const
; 2078 : 		{	// look for none of [_Ptr, _Ptr + _Count) before _Off
; 2079 :  #if _ITERATOR_DEBUG_LEVEL == 2
; 2080 : 		if (_Count != 0)
; 2081 : 			_DEBUG_POINTER(_Ptr);
; 2082 :  #endif /* _ITERATOR_DEBUG_LEVEL == 2 */
; 2083 : 
; 2084 : 		if (0 < this->_Mysize)
; 2085 : 			{	// worth searching, do it
; 2086 : 			const _Elem *_Uptr = this->_Myptr()
; 2087 : 				+ (_Off < this->_Mysize ? _Off : this->_Mysize - 1);
; 2088 : 			for (; ; --_Uptr)
; 2089 : 				if (_Traits::find(_Ptr, _Count, *_Uptr) == 0)
; 2090 : 					return (_Uptr - this->_Myptr());
; 2091 : 				else if (_Uptr == this->_Myptr())
; 2092 : 					break;
; 2093 : 			}
; 2094 : 		return (npos);
; 2095 : 		}
; 2096 : 
; 2097 : 	size_type find_last_not_of(const _Elem *_Ptr,
; 2098 : 		size_type _Off = npos) const
; 2099 : 		{	// look for none of [_Ptr, <null>) before _Off
; 2100 : 		_DEBUG_POINTER(_Ptr);
; 2101 : 		return (find_last_not_of(_Ptr, _Off, _Traits::length(_Ptr)));
; 2102 : 		}
; 2103 : 
; 2104 : 	size_type find_last_not_of(_Elem _Ch,
; 2105 : 		size_type _Off = npos) const
; 2106 : 		{	// look for non _Ch before _Off
; 2107 : 		return (find_last_not_of((const _Elem *)&_Ch, _Off, 1));
; 2108 : 		}
; 2109 : 
; 2110 : 	_Myt substr(size_type _Off = 0, size_type _Count = npos) const
; 2111 : 		{	// return [_Off, _Off + _Count) as new string
; 2112 : 		return (_Myt(*this, _Off, _Count, get_allocator()));
; 2113 : 		}
; 2114 : 
; 2115 : 	int compare(const _Myt& _Right) const _NOEXCEPT
; 2116 : 		{	// compare [0, _Mysize) with _Right
; 2117 : 		return (compare(0, this->_Mysize, _Right._Myptr(), _Right.size()));
; 2118 : 		}
; 2119 : 
; 2120 : 	int compare(size_type _Off, size_type _N0,
; 2121 : 		const _Myt& _Right) const
; 2122 : 		{	// compare [_Off, _Off + _N0) with _Right
; 2123 : 		return (compare(_Off, _N0, _Right, 0, npos));
; 2124 : 		}
; 2125 : 
; 2126 : 	int compare(size_type _Off,
; 2127 : 		size_type _N0, const _Myt& _Right,
; 2128 : 		size_type _Roff, size_type _Count) const
; 2129 : 		{	// compare [_Off, _Off + _N0) with _Right [_Roff, _Roff + _Count)
; 2130 : 		if (_Right.size() < _Roff)
; 2131 : 			_Xran();	// _Off off end
; 2132 : 		if (_Right._Mysize - _Roff < _Count)
; 2133 : 			_Count = _Right._Mysize - _Roff;	// trim _Count to size
; 2134 : 		return (compare(_Off, _N0, _Right._Myptr() + _Roff, _Count));
; 2135 : 		}
; 2136 : 
; 2137 : 	int compare(const _Elem *_Ptr) const
; 2138 : 		{	// compare [0, _Mysize) with [_Ptr, <null>)
; 2139 : 		_DEBUG_POINTER(_Ptr);
; 2140 : 		return (compare(0, this->_Mysize, _Ptr, _Traits::length(_Ptr)));
; 2141 : 		}
; 2142 : 
; 2143 : 	int compare(size_type _Off, size_type _N0, const _Elem *_Ptr) const
; 2144 : 		{	// compare [_Off, _Off + _N0) with [_Ptr, <null>)
; 2145 : 		_DEBUG_POINTER(_Ptr);
; 2146 : 		return (compare(_Off, _N0, _Ptr, _Traits::length(_Ptr)));
; 2147 : 		}
; 2148 : 
; 2149 : 	int compare(size_type _Off,
; 2150 : 		size_type _N0, const _Elem *_Ptr, size_type _Count) const
; 2151 : 		{	// compare [_Off, _Off + _N0) with [_Ptr, _Ptr + _Count)
; 2152 :  #if _ITERATOR_DEBUG_LEVEL == 2
; 2153 : 		if (_Count != 0)
; 2154 : 			_DEBUG_POINTER(_Ptr);
; 2155 :  #endif /* _ITERATOR_DEBUG_LEVEL == 2 */
; 2156 : 
; 2157 : 		if (this->_Mysize < _Off)
; 2158 : 			_Xran();	// _Off off end
; 2159 : 		if (this->_Mysize - _Off < _N0)
; 2160 : 			_N0 = this->_Mysize - _Off;	// trim _N0 to size
; 2161 : 
; 2162 : 		size_type _Ans = _Traits::compare(this->_Myptr() + _Off, _Ptr,
; 2163 : 			_N0 < _Count ? _N0 : _Count);
; 2164 : 		return (_Ans != 0 ? (int)_Ans : _N0 < _Count ? -1
; 2165 : 			: _N0 == _Count ? 0 : +1);
; 2166 : 		}
; 2167 : 
; 2168 : 	allocator_type get_allocator() const _NOEXCEPT
; 2169 : 		{	// return allocator object for values
; 2170 : 		return (this->_Getal());
; 2171 : 		}
; 2172 : 
; 2173 : 	void _Chassign(size_type _Off, size_type _Count, _Elem _Ch)
; 2174 : 		{	// assign _Count copies of _Ch beginning at _Off
; 2175 : 		if (_Count == 1)
; 2176 : 			_Traits::assign(*(this->_Myptr() + _Off), _Ch);
; 2177 : 		else
; 2178 : 			_Traits::assign(this->_Myptr() + _Off, _Count, _Ch);
; 2179 : 		}
; 2180 : 
; 2181 : 	void _Copy(size_type _Newsize, size_type _Oldlen)
; 2182 : 		{	// copy _Oldlen elements to newly allocated buffer
; 2183 : 		size_type _Newres = _Newsize | this->_ALLOC_MASK;
; 2184 : 		if (max_size() < _Newres)
; 2185 : 			_Newres = _Newsize;	// undo roundup if too big
; 2186 : 		else if (this->_Myres / 2 <= _Newres / 3)
; 2187 : 			;
; 2188 : 		else if (this->_Myres <= max_size() - this->_Myres / 2)
; 2189 : 			_Newres = this->_Myres
; 2190 : 				+ this->_Myres / 2;	// grow exponentially if possible
; 2191 : 		else
; 2192 : 			_Newres = max_size();	// settle for max_size()
; 2193 : 
; 2194 : 		_Elem *_Ptr;
; 2195 : 		_TRY_BEGIN
; 2196 : 			_Ptr = this->_Getal().allocate(_Newres + 1);
; 2197 : 		_CATCH_ALL
; 2198 : 			_Newres = _Newsize;	// allocation failed, undo roundup and retry
; 2199 : 			_TRY_BEGIN
; 2200 : 				_Ptr = this->_Getal().allocate(_Newres + 1);
; 2201 : 			_CATCH_ALL
; 2202 : 			_Tidy(true);	// failed again, discard storage and reraise
; 2203 : 			_RERAISE;
; 2204 : 			_CATCH_END
; 2205 : 		_CATCH_END
; 2206 : 
; 2207 : 		if (0 < _Oldlen)
; 2208 : 			_Traits::copy(_Ptr, this->_Myptr(),
; 2209 : 				_Oldlen);	// copy existing elements
; 2210 : 		_Tidy(true);
; 2211 : 		this->_Getal().construct(&this->_Bx._Ptr, _Ptr);
; 2212 : 		this->_Myres = _Newres;
; 2213 : 		_Eos(_Oldlen);
; 2214 : 		}
; 2215 : 
; 2216 : 	void _Eos(size_type _Newsize)
; 2217 : 		{	// set new length and null terminator
; 2218 : 		_Traits::assign(this->_Myptr()[this->_Mysize = _Newsize], _Elem());

  00038	89 71 10	 mov	 DWORD PTR [ecx+16], esi

; 517  : 			: this->_Bx._Buf);

  0003b	83 f8 10	 cmp	 eax, 16			; 00000010H
  0003e	72 02		 jb	 SHORT $LN60@Grow
; File c:\program files (x86)\microsoft visual studio 11.0\vc\include\xstddef

; 88   : 		reinterpret_cast<const volatile char&>(_Val)))));

  00040	8b 09		 mov	 ecx, DWORD PTR [ecx]
$LN60@Grow:
; File c:\program files (x86)\microsoft visual studio 11.0\vc\include\iosfwd

; 564  : 		_Left = _Right;

  00042	c6 01 00	 mov	 BYTE PTR [ecx], 0
$LN64@Grow:
; File c:\program files (x86)\microsoft visual studio 11.0\vc\include\xstring

; 2233 : 		return (0 < _Newsize);	// return true only if more work to do

  00045	33 c0		 xor	 eax, eax
  00047	3b c6		 cmp	 eax, esi
  00049	1b c0		 sbb	 eax, eax
  0004b	f7 d8		 neg	 eax
  0004d	5e		 pop	 esi

; 2234 : 		}

  0004e	5d		 pop	 ebp
  0004f	c2 08 00	 ret	 8
$LN67@Grow:
?_Grow@?$basic_string@DU?$char_traits@D@std@@V?$allocator@D@2@@std@@QAE_NI_N@Z ENDP ; std::basic_string<char,std::char_traits<char>,std::allocator<char> >::_Grow
_TEXT	ENDS
; Function compile flags: /Ogtp
; File c:\program files (x86)\microsoft visual studio 11.0\vc\include\xstring
; File c:\program files (x86)\microsoft visual studio 11.0\vc\include\xstddef
; File c:\program files (x86)\microsoft visual studio 11.0\vc\include\xstring
; File c:\program files (x86)\microsoft visual studio 11.0\vc\include\xstddef
; File c:\program files (x86)\microsoft visual studio 11.0\vc\include\xstring
;	COMDAT ?_Inside@?$basic_string@DU?$char_traits@D@std@@V?$allocator@D@2@@std@@QAE_NPBD@Z
_TEXT	SEGMENT
__Ptr$ = 8						; size = 4
?_Inside@?$basic_string@DU?$char_traits@D@std@@V?$allocator@D@2@@std@@QAE_NPBD@Z PROC ; std::basic_string<char,std::char_traits<char>,std::allocator<char> >::_Inside, COMDAT
; _this$ = ecx

; 2237 : 		{	// test if _Ptr points inside string

  00000	55		 push	 ebp
  00001	8b ec		 mov	 ebp, esp

; 2238 : 		if (_Ptr == 0 || _Ptr < this->_Myptr()
; 2239 : 			|| this->_Myptr() + this->_Mysize <= _Ptr)

  00003	8b 55 08	 mov	 edx, DWORD PTR __Ptr$[ebp]
  00006	56		 push	 esi
  00007	85 d2		 test	 edx, edx
  00009	74 2d		 je	 SHORT $LN2@Inside

; 517  : 			: this->_Bx._Buf);

  0000b	8b 41 14	 mov	 eax, DWORD PTR [ecx+20]
  0000e	83 f8 10	 cmp	 eax, 16			; 00000010H
  00011	72 04		 jb	 SHORT $LN8@Inside
; File c:\program files (x86)\microsoft visual studio 11.0\vc\include\xstddef

; 88   : 		reinterpret_cast<const volatile char&>(_Val)))));

  00013	8b 31		 mov	 esi, DWORD PTR [ecx]
; File c:\program files (x86)\microsoft visual studio 11.0\vc\include\xstring

; 517  : 			: this->_Bx._Buf);

  00015	eb 02		 jmp	 SHORT $LN9@Inside
$LN8@Inside:
  00017	8b f1		 mov	 esi, ecx
$LN9@Inside:

; 2238 : 		if (_Ptr == 0 || _Ptr < this->_Myptr()
; 2239 : 			|| this->_Myptr() + this->_Mysize <= _Ptr)

  00019	3b d6		 cmp	 edx, esi
  0001b	72 1b		 jb	 SHORT $LN2@Inside

; 517  : 			: this->_Bx._Buf);

  0001d	83 f8 10	 cmp	 eax, 16			; 00000010H
  00020	72 04		 jb	 SHORT $LN14@Inside
; File c:\program files (x86)\microsoft visual studio 11.0\vc\include\xstddef

; 88   : 		reinterpret_cast<const volatile char&>(_Val)))));

  00022	8b 31		 mov	 esi, DWORD PTR [ecx]
; File c:\program files (x86)\microsoft visual studio 11.0\vc\include\xstring

; 517  : 			: this->_Bx._Buf);

  00024	eb 02		 jmp	 SHORT $LN15@Inside
$LN14@Inside:
  00026	8b f1		 mov	 esi, ecx
$LN15@Inside:

; 2238 : 		if (_Ptr == 0 || _Ptr < this->_Myptr()
; 2239 : 			|| this->_Myptr() + this->_Mysize <= _Ptr)

  00028	8b 41 10	 mov	 eax, DWORD PTR [ecx+16]
  0002b	03 c6		 add	 eax, esi
  0002d	3b c2		 cmp	 eax, edx
  0002f	76 07		 jbe	 SHORT $LN2@Inside

; 2241 : 		else
; 2242 : 			return (true);

  00031	b0 01		 mov	 al, 1
  00033	5e		 pop	 esi

; 2243 : 		}

  00034	5d		 pop	 ebp
  00035	c2 04 00	 ret	 4
$LN2@Inside:

; 2240 : 			return (false);	// don't ask

  00038	32 c0		 xor	 al, al
  0003a	5e		 pop	 esi

; 2243 : 		}

  0003b	5d		 pop	 ebp
  0003c	c2 04 00	 ret	 4
?_Inside@?$basic_string@DU?$char_traits@D@std@@V?$allocator@D@2@@std@@QAE_NPBD@Z ENDP ; std::basic_string<char,std::char_traits<char>,std::allocator<char> >::_Inside
_TEXT	ENDS
; Function compile flags: /Ogtp
; File c:\program files (x86)\microsoft visual studio 11.0\vc\include\xstring
;	COMDAT ?_Xlen@?$basic_string@DU?$char_traits@D@std@@V?$allocator@D@2@@std@@QBEXXZ
_TEXT	SEGMENT
?_Xlen@?$basic_string@DU?$char_traits@D@std@@V?$allocator@D@2@@std@@QBEXXZ PROC ; std::basic_string<char,std::char_traits<char>,std::allocator<char> >::_Xlen, COMDAT
; _this$dead$ = ecx

; 2271 : 		_Xlength_error("string too long");

  00000	68 00 00 00 00	 push	 OFFSET ??_C@_0BA@JFNIOLAK@string?5too?5long?$AA@
  00005	ff 15 00 00 00
	00		 call	 DWORD PTR __imp_?_Xlength_error@std@@YAXPBD@Z
$LN4@Xlen:
$LN3@Xlen:
  0000b	cc		 int	 3
?_Xlen@?$basic_string@DU?$char_traits@D@std@@V?$allocator@D@2@@std@@QBEXXZ ENDP ; std::basic_string<char,std::char_traits<char>,std::allocator<char> >::_Xlen
_TEXT	ENDS
; Function compile flags: /Ogtp
; File c:\program files (x86)\microsoft visual studio 11.0\vc\include\xmemory0
;	COMDAT ?deallocate@?$allocator@D@std@@QAEXPADI@Z
_TEXT	SEGMENT
__Ptr$ = 8						; size = 4
___formal$dead$ = 12					; size = 4
?deallocate@?$allocator@D@std@@QAEXPADI@Z PROC		; std::allocator<char>::deallocate, COMDAT
; _this$dead$ = ecx

; 585  : 		{	// deallocate object at _Ptr, ignore size

  00000	55		 push	 ebp
  00001	8b ec		 mov	 ebp, esp

; 586  : 		::operator delete(_Ptr);

  00003	ff 75 08	 push	 DWORD PTR __Ptr$[ebp]
  00006	ff 15 00 00 00
	00		 call	 DWORD PTR __imp_??3@YAXPAX@Z
  0000c	83 c4 04	 add	 esp, 4

; 587  : 		}

  0000f	5d		 pop	 ebp
  00010	c2 08 00	 ret	 8
?deallocate@?$allocator@D@std@@QAEXPADI@Z ENDP		; std::allocator<char>::deallocate
_TEXT	ENDS
; Function compile flags: /Ogtp
; File c:\program files (x86)\microsoft visual studio 11.0\vc\include\xstring
;	COMDAT ?_Myptr@?$_String_val@U?$_Simple_types@D@std@@@std@@QAEPADXZ
_TEXT	SEGMENT
?_Myptr@?$_String_val@U?$_Simple_types@D@std@@@std@@QAEPADXZ PROC ; std::_String_val<std::_Simple_types<char> >::_Myptr, COMDAT
; _this$ = ecx

; 515  : 		return (this->_BUF_SIZE <= this->_Myres
; 516  : 			? _STD addressof(*this->_Bx._Ptr)
; 517  : 			: this->_Bx._Buf);

  00000	83 79 14 10	 cmp	 DWORD PTR [ecx+20], 16	; 00000010H
  00004	72 03		 jb	 SHORT $LN3@Myptr
  00006	8b 01		 mov	 eax, DWORD PTR [ecx]

; 518  : 		}

  00008	c3		 ret	 0
$LN3@Myptr:

; 515  : 		return (this->_BUF_SIZE <= this->_Myres
; 516  : 			? _STD addressof(*this->_Bx._Ptr)
; 517  : 			: this->_Bx._Buf);

  00009	8b c1		 mov	 eax, ecx

; 518  : 		}

  0000b	c3		 ret	 0
?_Myptr@?$_String_val@U?$_Simple_types@D@std@@@std@@QAEPADXZ ENDP ; std::_String_val<std::_Simple_types<char> >::_Myptr
_TEXT	ENDS
; Function compile flags: /Ogtp
; File c:\program files (x86)\microsoft visual studio 11.0\vc\include\xstring
; File c:\program files (x86)\microsoft visual studio 11.0\vc\include\xstddef
; File c:\program files (x86)\microsoft visual studio 11.0\vc\include\iosfwd
; File c:\program files (x86)\microsoft visual studio 11.0\vc\include\xstring
; File c:\program files (x86)\microsoft visual studio 11.0\vc\include\iosfwd
; File c:\program files (x86)\microsoft visual studio 11.0\vc\include\xstring
;	COMDAT ?erase@?$basic_string@DU?$char_traits@D@std@@V?$allocator@D@2@@std@@QAEAAV12@I@Z
_TEXT	SEGMENT
__Off$ = 8						; size = 4
?erase@?$basic_string@DU?$char_traits@D@std@@V?$allocator@D@2@@std@@QAEAAV12@I@Z PROC ; std::basic_string<char,std::char_traits<char>,std::allocator<char> >::erase, COMDAT
; _this$ = ecx

; 1309 : 		{	// erase elements [_Off, ...)

  00000	55		 push	 ebp
  00001	8b ec		 mov	 ebp, esp

; 1310 : 		if (this->_Mysize < _Off)

  00003	8b 45 08	 mov	 eax, DWORD PTR __Off$[ebp]
  00006	39 41 10	 cmp	 DWORD PTR [ecx+16], eax
  00009	73 0b		 jae	 SHORT $LN1@erase

; 2219 : 		}
; 2220 : 
; 2221 : 	bool _Grow(size_type _Newsize,
; 2222 : 		bool _Trim = false)
; 2223 : 		{	// ensure buffer is big enough, trim to size if _Trim is true
; 2224 : 		if (max_size() < _Newsize)
; 2225 : 			_Xlen();	// result too long
; 2226 : 		if (this->_Myres < _Newsize)
; 2227 : 			_Copy(_Newsize, this->_Mysize);	// reallocate to grow
; 2228 : 		else if (_Trim && _Newsize < this->_BUF_SIZE)
; 2229 : 			_Tidy(true,	// copy and deallocate if trimming to small string
; 2230 : 				_Newsize < this->_Mysize ? _Newsize : this->_Mysize);
; 2231 : 		else if (_Newsize == 0)
; 2232 : 			_Eos(0);	// new size is zero, just null terminate
; 2233 : 		return (0 < _Newsize);	// return true only if more work to do
; 2234 : 		}
; 2235 : 
; 2236 : 	bool _Inside(const _Elem *_Ptr)
; 2237 : 		{	// test if _Ptr points inside string
; 2238 : 		if (_Ptr == 0 || _Ptr < this->_Myptr()
; 2239 : 			|| this->_Myptr() + this->_Mysize <= _Ptr)
; 2240 : 			return (false);	// don't ask
; 2241 : 		else
; 2242 : 			return (true);
; 2243 : 		}
; 2244 : 
; 2245 : 	static size_type _Pdif(const_iterator _P2,
; 2246 : 		const_iterator _P1)
; 2247 : 		{	// compute safe iterator difference
; 2248 : 		return (_STRING_ITER_BASE(_P2) == 0 ? 0 : _P2 - _P1);
; 2249 : 		}
; 2250 : 
; 2251 : 	void _Tidy(bool _Built = false,
; 2252 : 		size_type _Newsize = 0)
; 2253 : 		{	// initialize buffer, deallocating any storage
; 2254 : 		if (!_Built)
; 2255 : 			;
; 2256 : 		else if (this->_BUF_SIZE <= this->_Myres)
; 2257 : 			{	// copy any leftovers to small buffer and deallocate
; 2258 : 			pointer _Ptr = this->_Bx._Ptr;
; 2259 : 			this->_Getal().destroy(&this->_Bx._Ptr);
; 2260 : 			if (0 < _Newsize)
; 2261 : 				_Traits::copy(this->_Bx._Buf,
; 2262 : 					_STD addressof(*_Ptr), _Newsize);
; 2263 : 			this->_Getal().deallocate(_Ptr, this->_Myres + 1);
; 2264 : 			}
; 2265 : 		this->_Myres = this->_BUF_SIZE - 1;
; 2266 : 		_Eos(_Newsize);
; 2267 : 		}
; 2268 : 
; 2269 : 	__declspec(noreturn) void _Xlen() const
; 2270 : 		{	// report a length_error
; 2271 : 		_Xlength_error("string too long");
; 2272 : 		}
; 2273 : 
; 2274 : 	__declspec(noreturn) void _Xran() const
; 2275 : 		{	// report an out_of_range error
; 2276 : 		_Xout_of_range("invalid string position");

  0000b	68 00 00 00 00	 push	 OFFSET ??_C@_0BI@CFPLBAOH@invalid?5string?5position?$AA@
  00010	ff 15 00 00 00
	00		 call	 DWORD PTR __imp_?_Xout_of_range@std@@YAXPBD@Z
$LN19@erase:
$LN1@erase:

; 517  : 			: this->_Bx._Buf);

  00016	83 79 14 10	 cmp	 DWORD PTR [ecx+20], 16	; 00000010H

; 1315 : 
; 1316 : 	_Myt& erase(size_type _Off, size_type _Count)
; 1317 : 		{	// erase elements [_Off, _Off + _Count)
; 1318 : 		if (this->_Mysize < _Off)
; 1319 : 			_Xran();	// _Off off end
; 1320 : 		if (this->_Mysize - _Off <= _Count)
; 1321 : 			_Eos(_Off);	// erase elements [_Off, ...)
; 1322 : 		else if (0 < _Count)
; 1323 : 			{	// move elements down
; 1324 : 			value_type *_Ptr = this->_Myptr() + _Off;
; 1325 : 			size_type _Newsize = this->_Mysize - _Count;
; 1326 : 			_Traits::move(_Ptr, _Ptr + _Count, _Newsize - _Off);
; 1327 : 			_Eos(_Newsize);
; 1328 : 			}
; 1329 : 		return (*this);
; 1330 : 		}
; 1331 : 
; 1332 : 	iterator erase(const_iterator _Where)
; 1333 : 		{	// erase element at _Where
; 1334 : 		size_type _Count = _Pdif(_Where, begin());
; 1335 : 		erase(_Count, 1);
; 1336 : 		return (_STRING_ITERATOR(this->_Myptr() + _Count));
; 1337 : 		}
; 1338 : 
; 1339 : 	iterator erase(const_iterator _First, const_iterator _Last)
; 1340 : 		{	// erase substring [_First, _Last)
; 1341 : 		_DEBUG_RANGE(_First, _Last);
; 1342 : 		size_type _Count = _Pdif(_First, begin());
; 1343 : 		erase(_Count, _Pdif(_Last, _First));
; 1344 : 		return (_STRING_ITERATOR(this->_Myptr() + _Count));
; 1345 : 		}
; 1346 : 
; 1347 : 	void clear() _NOEXCEPT
; 1348 : 		{	// erase all
; 1349 : 		_Eos(0);
; 1350 : 		}
; 1351 : 
; 1352 : 	_Myt& replace(size_type _Off, size_type _N0, const _Myt& _Right)
; 1353 : 		{	// replace [_Off, _Off + _N0) with _Right
; 1354 : 		return (replace(_Off, _N0, _Right, 0, npos));
; 1355 : 		}
; 1356 : 
; 1357 : 	_Myt& replace(size_type _Off,
; 1358 : 		size_type _N0, const _Myt& _Right, size_type _Roff, size_type _Count)
; 1359 : 		{	// replace [_Off, _Off + _N0) with _Right [_Roff, _Roff + _Count)
; 1360 : 		if (this->_Mysize < _Off || _Right.size() < _Roff)
; 1361 : 			_Xran();	// _Off or _Roff off end
; 1362 : 		if (this->_Mysize - _Off < _N0)
; 1363 : 			_N0 = this->_Mysize - _Off;	// trim _N0 to size
; 1364 : 		size_type _Num = _Right.size() - _Roff;
; 1365 : 		if (_Num < _Count)
; 1366 : 			_Count = _Num;	// trim _Count to size
; 1367 : 		if (npos - _Count <= this->_Mysize - _N0)
; 1368 : 			_Xlen();	// result too long
; 1369 : 
; 1370 : 		size_type _Nm = this->_Mysize - _N0 - _Off;	// length of kept tail
; 1371 : 		size_type _Newsize = this->_Mysize + _Count - _N0;
; 1372 : 		if (this->_Mysize < _Newsize)
; 1373 : 			_Grow(_Newsize);
; 1374 : 
; 1375 : 		if (this != &_Right)
; 1376 : 			{	// no overlap, just move down and copy in new stuff
; 1377 : 			_Traits::move(this->_Myptr() + _Off + _Count,
; 1378 : 				this->_Myptr() + _Off + _N0, _Nm);	// empty hole
; 1379 : 			_Traits::copy(this->_Myptr() + _Off,
; 1380 : 				_Right._Myptr() + _Roff, _Count);	// fill hole
; 1381 : 			}
; 1382 : 		else if (_Count <= _N0)
; 1383 : 			{	// hole doesn't get larger, just copy in substring
; 1384 : 			_Traits::move(this->_Myptr() + _Off,
; 1385 : 				this->_Myptr() + _Roff, _Count);	// fill hole
; 1386 : 			_Traits::move(this->_Myptr() + _Off + _Count,
; 1387 : 				this->_Myptr() + _Off + _N0, _Nm);	// move tail down
; 1388 : 			}
; 1389 : 		else if (_Roff <= _Off)
; 1390 : 			{	// hole gets larger, substring begins before hole
; 1391 : 			_Traits::move(this->_Myptr() + _Off + _Count,
; 1392 : 				this->_Myptr() + _Off + _N0, _Nm);	// move tail down
; 1393 : 			_Traits::move(this->_Myptr() + _Off,
; 1394 : 				this->_Myptr() + _Roff, _Count);	// fill hole
; 1395 : 			}
; 1396 : 		else if (_Off + _N0 <= _Roff)
; 1397 : 			{	// hole gets larger, substring begins after hole
; 1398 : 			_Traits::move(this->_Myptr() + _Off + _Count,
; 1399 : 				this->_Myptr() + _Off + _N0, _Nm);	// move tail down
; 1400 : 			_Traits::move(this->_Myptr() + _Off,
; 1401 : 				this->_Myptr() + (_Roff + _Count - _N0),
; 1402 : 				_Count);	// fill hole
; 1403 : 			}
; 1404 : 		else
; 1405 : 			{	// hole gets larger, substring begins in hole
; 1406 : 			_Traits::move(this->_Myptr() + _Off,
; 1407 : 				this->_Myptr() + _Roff, _N0);	// fill old hole
; 1408 : 			_Traits::move(this->_Myptr() + _Off + _Count,
; 1409 : 				this->_Myptr() + _Off + _N0, _Nm);	// move tail down
; 1410 : 			_Traits::move(this->_Myptr() + _Off + _N0,
; 1411 : 				this->_Myptr() + _Roff + _Count,
; 1412 : 				_Count - _N0);	// fill rest of new hole
; 1413 : 			}
; 1414 : 
; 1415 : 		_Eos(_Newsize);
; 1416 : 		return (*this);
; 1417 : 		}
; 1418 : 
; 1419 : 	_Myt& replace(size_type _Off,
; 1420 : 		size_type _N0, const _Elem *_Ptr, size_type _Count)
; 1421 : 		{	// replace [_Off, _Off + _N0) with [_Ptr, _Ptr + _Count)
; 1422 :  #if _ITERATOR_DEBUG_LEVEL == 2
; 1423 : 		if (_Count != 0)
; 1424 : 			_DEBUG_POINTER(_Ptr);
; 1425 :  #endif /* _ITERATOR_DEBUG_LEVEL == 2 */
; 1426 : 
; 1427 : 		if (_Inside(_Ptr))
; 1428 : 			return (replace(_Off, _N0, *this,
; 1429 : 				_Ptr - this->_Myptr(),
; 1430 : 				_Count));	// substring, replace carefully
; 1431 : 		if (this->_Mysize < _Off)
; 1432 : 			_Xran();	// _Off off end
; 1433 : 		if (this->_Mysize - _Off < _N0)
; 1434 : 			_N0 = this->_Mysize - _Off;	// trim _N0 to size
; 1435 : 		if (npos - _Count <= this->_Mysize - _N0)
; 1436 : 			_Xlen();	// result too long
; 1437 : 		size_type _Nm = this->_Mysize - _N0 - _Off;
; 1438 : 
; 1439 : 		if (_Count < _N0)
; 1440 : 			_Traits::move(this->_Myptr() + _Off + _Count,
; 1441 : 				this->_Myptr() + _Off + _N0,
; 1442 : 				_Nm);	// smaller hole, move tail up
; 1443 : 		size_type _Num;
; 1444 : 		if ((0 < _Count || 0 < _N0)
; 1445 : 			&& _Grow(_Num = this->_Mysize + _Count - _N0))
; 1446 : 			{	// make room and rearrange
; 1447 : 			if (_N0 < _Count)
; 1448 : 				_Traits::move(this->_Myptr() + _Off + _Count,
; 1449 : 					this->_Myptr() + _Off + _N0, _Nm);	// move tail down
; 1450 : 			_Traits::copy(this->_Myptr() + _Off, _Ptr, _Count);	// fill hole
; 1451 : 			_Eos(_Num);
; 1452 : 			}
; 1453 : 		return (*this);
; 1454 : 		}
; 1455 : 
; 1456 : 	_Myt& replace(size_type _Off, size_type _N0, const _Elem *_Ptr)
; 1457 : 		{	// replace [_Off, _Off + _N0) with [_Ptr, <null>)
; 1458 : 		_DEBUG_POINTER(_Ptr);
; 1459 : 		return (replace(_Off, _N0, _Ptr, _Traits::length(_Ptr)));
; 1460 : 		}
; 1461 : 
; 1462 : 	_Myt& replace(size_type _Off,
; 1463 : 		size_type _N0, size_type _Count, _Elem _Ch)
; 1464 : 		{	// replace [_Off, _Off + _N0) with _Count * _Ch
; 1465 : 		if (this->_Mysize < _Off)
; 1466 : 			_Xran();	// _Off off end
; 1467 : 		if (this->_Mysize - _Off < _N0)
; 1468 : 			_N0 = this->_Mysize - _Off;	// trim _N0 to size
; 1469 : 		if (npos - _Count <= this->_Mysize - _N0)
; 1470 : 			_Xlen();	// result too long
; 1471 : 		size_type _Nm = this->_Mysize - _N0 - _Off;
; 1472 : 
; 1473 : 		if (_Count < _N0)
; 1474 : 			_Traits::move(this->_Myptr() + _Off + _Count,
; 1475 : 				this->_Myptr() + _Off + _N0,
; 1476 : 				_Nm);	// smaller hole, move tail up
; 1477 : 		size_type _Num;
; 1478 : 		if ((0 < _Count || 0 < _N0)
; 1479 : 			&& _Grow(_Num = this->_Mysize + _Count - _N0))
; 1480 : 			{	// make room and rearrange
; 1481 : 			if (_N0 < _Count)
; 1482 : 				_Traits::move(this->_Myptr() + _Off + _Count,
; 1483 : 					this->_Myptr() + _Off + _N0, _Nm);	// move tail down
; 1484 : 			_Chassign(_Off, _Count, _Ch);	// fill hole
; 1485 : 			_Eos(_Num);
; 1486 : 			}
; 1487 : 		return (*this);
; 1488 : 		}
; 1489 : 
; 1490 : 	_Myt& replace(const_iterator _First, const_iterator _Last,
; 1491 : 		const _Myt& _Right)
; 1492 : 		{	// replace [_First, _Last) with _Right
; 1493 : 		return (replace(
; 1494 : 			_Pdif(_First, begin()), _Pdif(_Last, _First), _Right));
; 1495 : 		}
; 1496 : 
; 1497 : 	_Myt& replace(const_iterator _First, const_iterator _Last,
; 1498 : 		const _Elem *_Ptr, size_type _Count)
; 1499 : 		{	// replace [_First, _Last) with [_Ptr, _Ptr + _Count)
; 1500 : 		return (replace(
; 1501 : 			_Pdif(_First, begin()), _Pdif(_Last, _First), _Ptr, _Count));
; 1502 : 		}
; 1503 : 
; 1504 : 	_Myt& replace(const_iterator _First, const_iterator _Last,
; 1505 : 		const _Elem *_Ptr)
; 1506 : 		{	// replace [_First, _Last) with [_Ptr, <null>)
; 1507 : 		return (replace(
; 1508 : 			_Pdif(_First, begin()), _Pdif(_Last, _First), _Ptr));
; 1509 : 		}
; 1510 : 
; 1511 : 	_Myt& replace(const_iterator _First, const_iterator _Last,
; 1512 : 		size_type _Count, _Elem _Ch)
; 1513 : 		{	// replace [_First, _Last) with _Count * _Ch
; 1514 : 		return (replace(
; 1515 : 			_Pdif(_First, begin()), _Pdif(_Last, _First), _Count, _Ch));
; 1516 : 		}
; 1517 : 
; 1518 : 	template<class _Iter>
; 1519 : 		typename enable_if<_Is_iterator<_Iter>::value,
; 1520 : 			_Myt&>::type
; 1521 : 		replace(const_iterator _First, const_iterator _Last,
; 1522 : 			_Iter _First2, _Iter _Last2)
; 1523 : 		{	// replace [_First, _Last) with [_First2, _Last2), input iterators
; 1524 : 		_Myt _Right(_First2, _Last2);
; 1525 : 		replace(_First, _Last, _Right);
; 1526 : 		return (*this);
; 1527 : 		}
; 1528 : 
; 1529 : 	_Myt& replace(const_iterator _First, const_iterator _Last,
; 1530 : 		const_pointer _First2, const_pointer _Last2)
; 1531 : 		{	// replace [_First, _Last) with [_First2, _Last2), const pointers
; 1532 : 		if (_First2 == _Last2)
; 1533 : 			erase(_Pdif(_First, begin()), _Pdif(_Last, _First));
; 1534 : 		else
; 1535 : 			replace(_Pdif(_First, begin()), _Pdif(_Last, _First),
; 1536 : 				&*_First2, _Last2 - _First2);
; 1537 : 		return (*this);
; 1538 : 		}
; 1539 : 
; 1540 : 	_Myt& replace(const_iterator _First, const_iterator _Last,
; 1541 : 		pointer _First2, pointer _Last2)
; 1542 : 		{	// replace [_First, _Last) with [_First2, _Last2), const pointers
; 1543 : 		if (_First2 == _Last2)
; 1544 : 			erase(_Pdif(_First, begin()), _Pdif(_Last, _First));
; 1545 : 		else
; 1546 : 			replace(_Pdif(_First, begin()), _Pdif(_Last, _First),
; 1547 : 				&*_First2, _Last2 - _First2);
; 1548 : 		return (*this);
; 1549 : 		}
; 1550 : 
; 1551 : 	_Myt& replace(const_iterator _First, const_iterator _Last,
; 1552 : 		const_iterator _First2, const_iterator _Last2)
; 1553 : 		{	// replace [_First, _Last) with [_First2, _Last2), const_iterators
; 1554 : 		if (_First2 == _Last2)
; 1555 : 			erase(_Pdif(_First, begin()), _Pdif(_Last, _First));
; 1556 : 		else
; 1557 : 			replace(_Pdif(_First, begin()), _Pdif(_Last, _First),
; 1558 : 				&*_First2, _Last2 - _First2);
; 1559 : 		return (*this);
; 1560 : 		}
; 1561 : 
; 1562 : 	_Myt& replace(const_iterator _First, const_iterator _Last,
; 1563 : 		iterator _First2, iterator _Last2)
; 1564 : 		{	// replace [_First, _Last) with [_First2, _Last2), const_iterators
; 1565 : 		if (_First2 == _Last2)
; 1566 : 			erase(_Pdif(_First, begin()), _Pdif(_Last, _First));
; 1567 : 		else
; 1568 : 			replace(_Pdif(_First, begin()), _Pdif(_Last, _First),
; 1569 : 				&*_First2, _Last2 - _First2);
; 1570 : 		return (*this);
; 1571 : 		}
; 1572 : 
; 1573 : 	iterator begin() _NOEXCEPT
; 1574 : 		{	// return iterator for beginning of mutable sequence
; 1575 : 		return (_STRING_ITERATOR(this->_Myptr()));
; 1576 : 		}
; 1577 : 
; 1578 : 	const_iterator begin() const _NOEXCEPT
; 1579 : 		{	// return iterator for beginning of nonmutable sequence
; 1580 : 		return (_STRING_CONST_ITERATOR(this->_Myptr()));
; 1581 : 		}
; 1582 : 
; 1583 : 	iterator end() _NOEXCEPT
; 1584 : 		{	// return iterator for end of mutable sequence
; 1585 : 		return (_STRING_ITERATOR(this->_Myptr() + this->_Mysize));
; 1586 : 		}
; 1587 : 
; 1588 : 	const_iterator end() const _NOEXCEPT
; 1589 : 		{	// return iterator for end of nonmutable sequence
; 1590 : 		return (_STRING_CONST_ITERATOR(this->_Myptr() + this->_Mysize));
; 1591 : 		}
; 1592 : 
; 1593 : 	reverse_iterator rbegin() _NOEXCEPT
; 1594 : 		{	// return iterator for beginning of reversed mutable sequence
; 1595 : 		return (reverse_iterator(end()));
; 1596 : 		}
; 1597 : 
; 1598 : 	const_reverse_iterator rbegin() const _NOEXCEPT
; 1599 : 		{	// return iterator for beginning of reversed nonmutable sequence
; 1600 : 		return (const_reverse_iterator(end()));
; 1601 : 		}
; 1602 : 
; 1603 : 	reverse_iterator rend() _NOEXCEPT
; 1604 : 		{	// return iterator for end of reversed mutable sequence
; 1605 : 		return (reverse_iterator(begin()));
; 1606 : 		}
; 1607 : 
; 1608 : 	const_reverse_iterator rend() const _NOEXCEPT
; 1609 : 		{	// return iterator for end of reversed nonmutable sequence
; 1610 : 		return (const_reverse_iterator(begin()));
; 1611 : 		}
; 1612 : 
; 1613 :  #if _HAS_CPP0X
; 1614 : 	const_iterator cbegin() const _NOEXCEPT
; 1615 : 		{	// return iterator for beginning of nonmutable sequence
; 1616 : 		return (((const _Myt *)this)->begin());
; 1617 : 		}
; 1618 : 
; 1619 : 	const_iterator cend() const _NOEXCEPT
; 1620 : 		{	// return iterator for end of nonmutable sequence
; 1621 : 		return (((const _Myt *)this)->end());
; 1622 : 		}
; 1623 : 
; 1624 : 	const_reverse_iterator crbegin() const _NOEXCEPT
; 1625 : 		{	// return iterator for beginning of reversed nonmutable sequence
; 1626 : 		return (((const _Myt *)this)->rbegin());
; 1627 : 		}
; 1628 : 
; 1629 : 	const_reverse_iterator crend() const _NOEXCEPT
; 1630 : 		{	// return iterator for end of reversed nonmutable sequence
; 1631 : 		return (((const _Myt *)this)->rend());
; 1632 : 		}
; 1633 : 
; 1634 : 	void shrink_to_fit()
; 1635 : 		{	// reduce capacity
; 1636 : 		if ((size() | this->_ALLOC_MASK) < capacity())
; 1637 : 			{	// worth shrinking, do it
; 1638 : 			_Myt _Tmp(*this);
; 1639 : 			swap(_Tmp);
; 1640 : 			}
; 1641 : 		}
; 1642 :  #endif /* _HAS_CPP0X */
; 1643 : 
; 1644 : 	reference at(size_type _Off)
; 1645 : 		{	// subscript mutable sequence with checking
; 1646 : 		if (this->_Mysize <= _Off)
; 1647 : 			_Xran();	// _Off off end
; 1648 : 		return (this->_Myptr()[_Off]);
; 1649 : 		}
; 1650 : 
; 1651 : 	const_reference at(size_type _Off) const
; 1652 : 		{	// subscript nonmutable sequence with checking
; 1653 : 		if (this->_Mysize <= _Off)
; 1654 : 			_Xran();	// _Off off end
; 1655 : 		return (this->_Myptr()[_Off]);
; 1656 : 		}
; 1657 : 
; 1658 : 	reference operator[](size_type _Off)
; 1659 : 		{	// subscript mutable sequence
; 1660 :  #if _ITERATOR_DEBUG_LEVEL == 2
; 1661 : 		if (this->_Mysize < _Off)	// sic
; 1662 : 			_DEBUG_ERROR("string subscript out of range");
; 1663 : 
; 1664 :  #elif _ITERATOR_DEBUG_LEVEL == 1
; 1665 : 		_SCL_SECURE_VALIDATE_RANGE(_Off <= this->_Mysize);	// sic
; 1666 :  #endif /* _ITERATOR_DEBUG_LEVEL == 2 */
; 1667 : 
; 1668 : 		return (this->_Myptr()[_Off]);
; 1669 : 		}
; 1670 : 
; 1671 : 	const_reference operator[](size_type _Off) const
; 1672 : 		{	// subscript nonmutable sequence
; 1673 :  #if _ITERATOR_DEBUG_LEVEL == 2
; 1674 : 		if (this->_Mysize < _Off)	// sic
; 1675 : 			_DEBUG_ERROR("string subscript out of range");
; 1676 : 
; 1677 :  #elif _ITERATOR_DEBUG_LEVEL == 1
; 1678 : 		_SCL_SECURE_VALIDATE_RANGE(_Off <= this->_Mysize);	// sic
; 1679 :  #endif /* _ITERATOR_DEBUG_LEVEL == 2 */
; 1680 : 
; 1681 : 		return (this->_Myptr()[_Off]);
; 1682 : 		}
; 1683 : 
; 1684 : 	void push_back(_Elem _Ch)
; 1685 : 		{	// insert element at end
; 1686 : 		insert(end(), _Ch);
; 1687 : 		}
; 1688 : 
; 1689 :  #if _HAS_CPP0X
; 1690 : 	void pop_back()
; 1691 : 		{	// erase element at end
; 1692 : 		erase(this->_Mysize - 1);	// throws if _Mysize == 0
; 1693 : 		}
; 1694 : 
; 1695 : 	reference front()
; 1696 : 		{	// return first element of mutable sequence
; 1697 : 		return (*begin());
; 1698 : 		}
; 1699 : 
; 1700 : 	const_reference front() const
; 1701 : 		{	// return first element of nonmutable sequence
; 1702 : 		return (*begin());
; 1703 : 		}
; 1704 : 
; 1705 : 	reference back()
; 1706 : 		{	// return last element of mutable sequence
; 1707 : 		return (*(end() - 1));
; 1708 : 		}
; 1709 : 
; 1710 : 	const_reference back() const
; 1711 : 		{	// return last element of nonmutable sequence
; 1712 : 		return (*(end() - 1));
; 1713 : 		}
; 1714 :  #endif /* _HAS_CPP0X */
; 1715 : 
; 1716 : 	const _Elem *c_str() const _NOEXCEPT
; 1717 : 		{	// return pointer to null-terminated nonmutable array
; 1718 : 		return (this->_Myptr());
; 1719 : 		}
; 1720 : 
; 1721 : 	const _Elem *data() const _NOEXCEPT
; 1722 : 		{	// return pointer to nonmutable array
; 1723 : 		return (c_str());
; 1724 : 		}
; 1725 : 
; 1726 : 	size_type length() const _NOEXCEPT
; 1727 : 		{	// return length of sequence
; 1728 : 		return (this->_Mysize);
; 1729 : 		}
; 1730 : 
; 1731 : 	size_type size() const _NOEXCEPT
; 1732 : 		{	// return length of sequence
; 1733 : 		return (this->_Mysize);
; 1734 : 		}
; 1735 : 
; 1736 : 	size_type max_size() const _NOEXCEPT
; 1737 : 		{	// return maximum possible length of sequence
; 1738 : 		size_type _Num = this->_Getal().max_size();
; 1739 : 		return (_Num <= 1 ? 1 : _Num - 1);
; 1740 : 		}
; 1741 : 
; 1742 : 	void resize(size_type _Newsize)
; 1743 : 		{	// determine new length, padding with null elements as needed
; 1744 : 		resize(_Newsize, _Elem());
; 1745 : 		}
; 1746 : 
; 1747 : 	void resize(size_type _Newsize, _Elem _Ch)
; 1748 : 		{	// determine new length, padding with _Ch elements as needed
; 1749 : 		if (_Newsize <= this->_Mysize)
; 1750 : 			_Eos(_Newsize);
; 1751 : 		else
; 1752 : 			append(_Newsize - this->_Mysize, _Ch);
; 1753 : 		}
; 1754 : 
; 1755 : 	size_type capacity() const _NOEXCEPT
; 1756 : 		{	// return current length of allocated storage
; 1757 : 		return (this->_Myres);
; 1758 : 		}
; 1759 : 
; 1760 : 	void reserve(size_type _Newcap = 0)
; 1761 : 		{	// determine new minimum length of allocated storage
; 1762 : 		if (this->_Mysize <= _Newcap && this->_Myres != _Newcap)
; 1763 : 			{	// change reservation
; 1764 : 			size_type _Size = this->_Mysize;
; 1765 : 			if (_Grow(_Newcap, true))
; 1766 : 				_Eos(_Size);
; 1767 : 			}
; 1768 : 		}
; 1769 : 
; 1770 : 	bool empty() const _NOEXCEPT
; 1771 : 		{	// test if sequence is empty
; 1772 : 		return (this->_Mysize == 0);
; 1773 : 		}
; 1774 : 
; 1775 : 	_SCL_INSECURE_DEPRECATE
; 1776 : 
; 1777 : 	size_type copy(_Elem *_Ptr,
; 1778 : 		size_type _Count, size_type _Off = 0) const
; 1779 : 		{	// copy [_Off, _Off + _Count) to [_Ptr, _Ptr + _Count)
; 1780 :  #if _ITERATOR_DEBUG_LEVEL == 2
; 1781 : 		if (_Count != 0)
; 1782 : 			_DEBUG_POINTER(_Ptr);
; 1783 :  #endif /* _ITERATOR_DEBUG_LEVEL == 2 */
; 1784 : 
; 1785 : 		if (this->_Mysize < _Off)
; 1786 : 			_Xran();	// _Off off end
; 1787 : 		if (this->_Mysize - _Off < _Count)
; 1788 : 			_Count = this->_Mysize - _Off;
; 1789 : 		_Traits::copy(_Ptr, this->_Myptr() + _Off, _Count);
; 1790 : 		return (_Count);
; 1791 : 		}
; 1792 : 
; 1793 : 	size_type _Copy_s(_Elem *_Dest, size_type _Dest_size,
; 1794 : 		size_type _Count, size_type _Off = 0) const
; 1795 : 		{	// copy [_Off, _Off + _Count) to [_Dest, _Dest + _Count)
; 1796 :  #if _ITERATOR_DEBUG_LEVEL == 2
; 1797 : 		if (_Count != 0)
; 1798 : 			_DEBUG_POINTER(_Dest);
; 1799 :  #endif /* _ITERATOR_DEBUG_LEVEL == 2 */
; 1800 : 
; 1801 : 		if (this->_Mysize < _Off)
; 1802 : 			_Xran();	// _Off off end
; 1803 : 		if (this->_Mysize - _Off < _Count)
; 1804 : 			_Count = this->_Mysize - _Off;
; 1805 : 		_Traits::_Copy_s(_Dest, _Dest_size, this->_Myptr() + _Off, _Count);
; 1806 : 		return (_Count);
; 1807 : 		}
; 1808 : 
; 1809 : 	void _Swap_bx(_Myt& _Right)
; 1810 : 		{	// exchange _Bx with _Right._Bx
; 1811 : 		if (this->_BUF_SIZE <= this->_Myres)
; 1812 : 			if (this->_BUF_SIZE <= _Right._Myres)
; 1813 : 				_Swap_adl(this->_Bx._Ptr, _Right._Bx._Ptr);
; 1814 : 			else
; 1815 : 				{	// swap large with small
; 1816 : 				pointer _Ptr = this->_Bx._Ptr;
; 1817 : 				this->_Getal().destroy(&this->_Bx._Ptr);
; 1818 : 				_Traits::copy(this->_Bx._Buf,
; 1819 : 					_Right._Bx._Buf, _Right._Mysize + 1);
; 1820 : 				this->_Getal().construct(&_Right._Bx._Ptr, _Ptr);
; 1821 : 				}
; 1822 : 		else
; 1823 : 			if (_Right._Myres < this->_BUF_SIZE)
; 1824 : 				_STD swap(this->_Bx._Buf, _Right._Bx._Buf);
; 1825 : 			else
; 1826 : 				{	// swap small with large
; 1827 : 				pointer _Ptr = _Right._Bx._Ptr;
; 1828 : 				this->_Getal().destroy(&_Right._Bx._Ptr);
; 1829 : 				_Traits::copy(_Right._Bx._Buf,
; 1830 : 					this->_Bx._Buf, this->_Mysize + 1);
; 1831 : 				this->_Getal().construct(&this->_Bx._Ptr, _Ptr);
; 1832 : 				}
; 1833 : 		}
; 1834 : 
; 1835 : 	void swap(_Myt& _Right)
; 1836 : 		{	// exchange contents with _Right
; 1837 : 		if (this == &_Right)
; 1838 : 			;	// same object, do nothing
; 1839 : 		else if (this->_Getal() == _Right._Getal())
; 1840 : 			{	// same allocator, swap control information
; 1841 : 			this->_Swap_all(_Right);
; 1842 : 			_Swap_bx(_Right);
; 1843 : 			_STD swap(this->_Mysize, _Right._Mysize);
; 1844 : 			_STD swap(this->_Myres, _Right._Myres);
; 1845 : 			}
; 1846 : 
; 1847 :  #if _HAS_CPP0X
; 1848 : 		else if (_Alty::propagate_on_container_swap::value)
; 1849 : 			{	// swap allocators and control information
; 1850 : 			this->_Swap_alloc(_Right);
; 1851 : 			_Swap_bx(_Right);
; 1852 : 			_STD swap(this->_Bx, _Right._Bx);	// pointer bitwise copyable?
; 1853 : 			_STD swap(this->_Mysize, _Right._Mysize);
; 1854 : 			_STD swap(this->_Myres, _Right._Myres);
; 1855 : 			}
; 1856 :  #endif /* _HAS_CPP0X */
; 1857 : 
; 1858 : 		else
; 1859 : 			{	// different allocator, do multiple assigns
; 1860 : 			_Myt _Tmp = *this;
; 1861 : 
; 1862 : 			*this = _Right;
; 1863 : 			_Right = _Tmp;
; 1864 : 			}
; 1865 : 		}
; 1866 : 
; 1867 : 	size_type find(const _Myt& _Right, size_type _Off = 0) const _NOEXCEPT
; 1868 : 		{	// look for _Right beginning at or after _Off
; 1869 : 		return (find(_Right._Myptr(), _Off, _Right.size()));
; 1870 : 		}
; 1871 : 
; 1872 : 	size_type find(const _Elem *_Ptr,
; 1873 : 		size_type _Off, size_type _Count) const
; 1874 : 		{	// look for [_Ptr, _Ptr + _Count) beginning at or after _Off
; 1875 :  #if _ITERATOR_DEBUG_LEVEL == 2
; 1876 : 		if (_Count != 0)
; 1877 : 			_DEBUG_POINTER(_Ptr);
; 1878 :  #endif /* _ITERATOR_DEBUG_LEVEL == 2 */
; 1879 : 
; 1880 : 		if (_Count == 0 && _Off <= this->_Mysize)
; 1881 : 			return (_Off);	// null string always matches (if inside string)
; 1882 : 
; 1883 : 		size_type _Nm;
; 1884 : 		if (_Off < this->_Mysize && _Count <= (_Nm = this->_Mysize - _Off))
; 1885 : 			{	// room for match, look for it
; 1886 : 			const _Elem *_Uptr, *_Vptr;
; 1887 : 			for (_Nm -= _Count - 1, _Vptr = this->_Myptr() + _Off;
; 1888 : 				(_Uptr = _Traits::find(_Vptr, _Nm, *_Ptr)) != 0;
; 1889 : 				_Nm -= _Uptr - _Vptr + 1, _Vptr = _Uptr + 1)
; 1890 : 				if (_Traits::compare(_Uptr, _Ptr, _Count) == 0)
; 1891 : 					return (_Uptr - this->_Myptr());	// found a match
; 1892 : 			}
; 1893 : 
; 1894 : 		return (npos);	// no match
; 1895 : 		}
; 1896 : 
; 1897 : 	size_type find(const _Elem *_Ptr, size_type _Off = 0) const
; 1898 : 		{	// look for [_Ptr, <null>) beginning at or after _Off
; 1899 : 		_DEBUG_POINTER(_Ptr);
; 1900 : 		return (find(_Ptr, _Off, _Traits::length(_Ptr)));
; 1901 : 		}
; 1902 : 
; 1903 : 	size_type find(_Elem _Ch, size_type _Off = 0) const
; 1904 : 		{	// look for _Ch at or after _Off
; 1905 : 		return (find((const _Elem *)&_Ch, _Off, 1));
; 1906 : 		}
; 1907 : 
; 1908 : 	size_type rfind(const _Myt& _Right, size_type _Off = npos) const _NOEXCEPT
; 1909 : 		{	// look for _Right beginning before _Off
; 1910 : 		return (rfind(_Right._Myptr(), _Off, _Right.size()));
; 1911 : 		}
; 1912 : 
; 1913 : 	size_type rfind(const _Elem *_Ptr,
; 1914 : 		size_type _Off, size_type _Count) const
; 1915 : 		{	// look for [_Ptr, _Ptr + _Count) beginning before _Off
; 1916 :  #if _ITERATOR_DEBUG_LEVEL == 2
; 1917 : 		if (_Count != 0)
; 1918 : 			_DEBUG_POINTER(_Ptr);
; 1919 :  #endif /* _ITERATOR_DEBUG_LEVEL == 2 */
; 1920 : 
; 1921 : 		if (_Count == 0)
; 1922 : 			return (_Off < this->_Mysize ? _Off
; 1923 : 				: this->_Mysize);	// null always matches
; 1924 : 		if (_Count <= this->_Mysize)
; 1925 : 			{	// room for match, look for it
; 1926 : 			const _Elem *_Uptr = this->_Myptr() +
; 1927 : 				(_Off < this->_Mysize - _Count ? _Off
; 1928 : 					: this->_Mysize - _Count);
; 1929 : 			for (; ; --_Uptr)
; 1930 : 				if (_Traits::eq(*_Uptr, *_Ptr)
; 1931 : 					&& _Traits::compare(_Uptr, _Ptr, _Count) == 0)
; 1932 : 					return (_Uptr - this->_Myptr());	// found a match
; 1933 : 				else if (_Uptr == this->_Myptr())
; 1934 : 					break;	// at beginning, no more chance for match
; 1935 : 			}
; 1936 : 
; 1937 : 		return (npos);	// no match
; 1938 : 		}
; 1939 : 
; 1940 : 	size_type rfind(const _Elem *_Ptr, size_type _Off = npos) const
; 1941 : 		{	// look for [_Ptr, <null>) beginning before _Off
; 1942 : 		_DEBUG_POINTER(_Ptr);
; 1943 : 		return (rfind(_Ptr, _Off, _Traits::length(_Ptr)));
; 1944 : 		}
; 1945 : 
; 1946 : 	size_type rfind(_Elem _Ch, size_type _Off = npos) const
; 1947 : 		{	// look for _Ch before _Off
; 1948 : 		return (rfind((const _Elem *)&_Ch, _Off, 1));
; 1949 : 		}
; 1950 : 
; 1951 : 	size_type find_first_of(const _Myt& _Right,
; 1952 : 		size_type _Off = 0) const _NOEXCEPT
; 1953 : 		{	// look for one of _Right at or after _Off
; 1954 : 		return (find_first_of(_Right._Myptr(), _Off, _Right.size()));
; 1955 : 		}
; 1956 : 
; 1957 : 	size_type find_first_of(const _Elem *_Ptr,
; 1958 : 		size_type _Off, size_type _Count) const
; 1959 : 		{	// look for one of [_Ptr, _Ptr + _Count) at or after _Off
; 1960 :  #if _ITERATOR_DEBUG_LEVEL == 2
; 1961 : 		if (_Count != 0)
; 1962 : 			_DEBUG_POINTER(_Ptr);
; 1963 :  #endif /* _ITERATOR_DEBUG_LEVEL == 2 */
; 1964 : 
; 1965 : 		if (0 < _Count && _Off < this->_Mysize)
; 1966 : 			{	// room for match, look for it
; 1967 : 			const _Elem *const _Vptr = this->_Myptr() + this->_Mysize;
; 1968 : 			for (const _Elem *_Uptr = this->_Myptr() + _Off;
; 1969 : 				_Uptr < _Vptr; ++_Uptr)
; 1970 : 				if (_Traits::find(_Ptr, _Count, *_Uptr) != 0)
; 1971 : 					return (_Uptr - this->_Myptr());	// found a match
; 1972 : 			}
; 1973 : 
; 1974 : 		return (npos);	// no match
; 1975 : 		}
; 1976 : 
; 1977 : 	size_type find_first_of(const _Elem *_Ptr,
; 1978 : 		size_type _Off = 0) const
; 1979 : 		{	// look for one of [_Ptr, <null>) at or after _Off
; 1980 : 		_DEBUG_POINTER(_Ptr);
; 1981 : 		return (find_first_of(_Ptr, _Off, _Traits::length(_Ptr)));
; 1982 : 		}
; 1983 : 
; 1984 : 	size_type find_first_of(_Elem _Ch,
; 1985 : 		size_type _Off = 0) const
; 1986 : 		{	// look for _Ch at or after _Off
; 1987 : 		return (find((const _Elem *)&_Ch, _Off, 1));
; 1988 : 		}
; 1989 : 
; 1990 : 	size_type find_last_of(const _Myt& _Right,
; 1991 : 		size_type _Off = npos) const _NOEXCEPT
; 1992 : 		{	// look for one of _Right before _Off
; 1993 : 		return (find_last_of(_Right._Myptr(), _Off, _Right.size()));
; 1994 : 		}
; 1995 : 
; 1996 : 	size_type find_last_of(const _Elem *_Ptr,
; 1997 : 		size_type _Off, size_type _Count) const
; 1998 : 		{	// look for one of [_Ptr, _Ptr + _Count) before _Off
; 1999 :  #if _ITERATOR_DEBUG_LEVEL == 2
; 2000 : 		if (_Count != 0)
; 2001 : 			_DEBUG_POINTER(_Ptr);
; 2002 :  #endif /* _ITERATOR_DEBUG_LEVEL == 2 */
; 2003 : 
; 2004 : 		if (0 < _Count && 0 < this->_Mysize)
; 2005 : 			{	// worth searching, do it
; 2006 : 			const _Elem *_Uptr = this->_Myptr()
; 2007 : 				+ (_Off < this->_Mysize ? _Off : this->_Mysize - 1);
; 2008 : 			for (; ; --_Uptr)
; 2009 : 				if (_Traits::find(_Ptr, _Count, *_Uptr) != 0)
; 2010 : 					return (_Uptr - this->_Myptr());	// found a match
; 2011 : 				else if (_Uptr == this->_Myptr())
; 2012 : 					break;	// at beginning, no more chance for match
; 2013 : 			}
; 2014 : 
; 2015 : 		return (npos);	// no match
; 2016 : 		}
; 2017 : 
; 2018 : 	size_type find_last_of(const _Elem *_Ptr,
; 2019 : 		size_type _Off = npos) const
; 2020 : 		{	// look for one of [_Ptr, <null>) before _Off
; 2021 : 		_DEBUG_POINTER(_Ptr);
; 2022 : 		return (find_last_of(_Ptr, _Off, _Traits::length(_Ptr)));
; 2023 : 		}
; 2024 : 
; 2025 : 	size_type find_last_of(_Elem _Ch,
; 2026 : 		size_type _Off = npos) const
; 2027 : 		{	// look for _Ch before _Off
; 2028 : 		return (rfind((const _Elem *)&_Ch, _Off, 1));
; 2029 : 		}
; 2030 : 
; 2031 : 	size_type find_first_not_of(const _Myt& _Right,
; 2032 : 		size_type _Off = 0) const _NOEXCEPT
; 2033 : 		{	// look for none of _Right at or after _Off
; 2034 : 		return (find_first_not_of(_Right._Myptr(), _Off,
; 2035 : 			_Right.size()));
; 2036 : 		}
; 2037 : 
; 2038 : 	size_type find_first_not_of(const _Elem *_Ptr,
; 2039 : 		size_type _Off, size_type _Count) const
; 2040 : 		{	// look for none of [_Ptr, _Ptr + _Count) at or after _Off
; 2041 :  #if _ITERATOR_DEBUG_LEVEL == 2
; 2042 : 		if (_Count != 0)
; 2043 : 			_DEBUG_POINTER(_Ptr);
; 2044 :  #endif /* _ITERATOR_DEBUG_LEVEL == 2 */
; 2045 : 
; 2046 : 		if (_Off < this->_Mysize)
; 2047 : 			{	// room for match, look for it
; 2048 : 			const _Elem *const _Vptr = this->_Myptr() + this->_Mysize;
; 2049 : 			for (const _Elem *_Uptr = this->_Myptr() + _Off;
; 2050 : 				_Uptr < _Vptr; ++_Uptr)
; 2051 : 				if (_Traits::find(_Ptr, _Count, *_Uptr) == 0)
; 2052 : 					return (_Uptr - this->_Myptr());
; 2053 : 			}
; 2054 : 		return (npos);
; 2055 : 		}
; 2056 : 
; 2057 : 	size_type find_first_not_of(const _Elem *_Ptr,
; 2058 : 		size_type _Off = 0) const
; 2059 : 		{	// look for one of [_Ptr, <null>) at or after _Off
; 2060 : 		_DEBUG_POINTER(_Ptr);
; 2061 : 		return (find_first_not_of(_Ptr, _Off, _Traits::length(_Ptr)));
; 2062 : 		}
; 2063 : 
; 2064 : 	size_type find_first_not_of(_Elem _Ch,
; 2065 : 		size_type _Off = 0) const
; 2066 : 		{	// look for non _Ch at or after _Off
; 2067 : 		return (find_first_not_of((const _Elem *)&_Ch, _Off, 1));
; 2068 : 		}
; 2069 : 
; 2070 : 	size_type find_last_not_of(const _Myt& _Right,
; 2071 : 		size_type _Off = npos) const _NOEXCEPT
; 2072 : 		{	// look for none of _Right before _Off
; 2073 : 		return (find_last_not_of(_Right._Myptr(), _Off, _Right.size()));
; 2074 : 		}
; 2075 : 
; 2076 : 	size_type find_last_not_of(const _Elem *_Ptr,
; 2077 : 		size_type _Off, size_type _Count) const
; 2078 : 		{	// look for none of [_Ptr, _Ptr + _Count) before _Off
; 2079 :  #if _ITERATOR_DEBUG_LEVEL == 2
; 2080 : 		if (_Count != 0)
; 2081 : 			_DEBUG_POINTER(_Ptr);
; 2082 :  #endif /* _ITERATOR_DEBUG_LEVEL == 2 */
; 2083 : 
; 2084 : 		if (0 < this->_Mysize)
; 2085 : 			{	// worth searching, do it
; 2086 : 			const _Elem *_Uptr = this->_Myptr()
; 2087 : 				+ (_Off < this->_Mysize ? _Off : this->_Mysize - 1);
; 2088 : 			for (; ; --_Uptr)
; 2089 : 				if (_Traits::find(_Ptr, _Count, *_Uptr) == 0)
; 2090 : 					return (_Uptr - this->_Myptr());
; 2091 : 				else if (_Uptr == this->_Myptr())
; 2092 : 					break;
; 2093 : 			}
; 2094 : 		return (npos);
; 2095 : 		}
; 2096 : 
; 2097 : 	size_type find_last_not_of(const _Elem *_Ptr,
; 2098 : 		size_type _Off = npos) const
; 2099 : 		{	// look for none of [_Ptr, <null>) before _Off
; 2100 : 		_DEBUG_POINTER(_Ptr);
; 2101 : 		return (find_last_not_of(_Ptr, _Off, _Traits::length(_Ptr)));
; 2102 : 		}
; 2103 : 
; 2104 : 	size_type find_last_not_of(_Elem _Ch,
; 2105 : 		size_type _Off = npos) const
; 2106 : 		{	// look for non _Ch before _Off
; 2107 : 		return (find_last_not_of((const _Elem *)&_Ch, _Off, 1));
; 2108 : 		}
; 2109 : 
; 2110 : 	_Myt substr(size_type _Off = 0, size_type _Count = npos) const
; 2111 : 		{	// return [_Off, _Off + _Count) as new string
; 2112 : 		return (_Myt(*this, _Off, _Count, get_allocator()));
; 2113 : 		}
; 2114 : 
; 2115 : 	int compare(const _Myt& _Right) const _NOEXCEPT
; 2116 : 		{	// compare [0, _Mysize) with _Right
; 2117 : 		return (compare(0, this->_Mysize, _Right._Myptr(), _Right.size()));
; 2118 : 		}
; 2119 : 
; 2120 : 	int compare(size_type _Off, size_type _N0,
; 2121 : 		const _Myt& _Right) const
; 2122 : 		{	// compare [_Off, _Off + _N0) with _Right
; 2123 : 		return (compare(_Off, _N0, _Right, 0, npos));
; 2124 : 		}
; 2125 : 
; 2126 : 	int compare(size_type _Off,
; 2127 : 		size_type _N0, const _Myt& _Right,
; 2128 : 		size_type _Roff, size_type _Count) const
; 2129 : 		{	// compare [_Off, _Off + _N0) with _Right [_Roff, _Roff + _Count)
; 2130 : 		if (_Right.size() < _Roff)
; 2131 : 			_Xran();	// _Off off end
; 2132 : 		if (_Right._Mysize - _Roff < _Count)
; 2133 : 			_Count = _Right._Mysize - _Roff;	// trim _Count to size
; 2134 : 		return (compare(_Off, _N0, _Right._Myptr() + _Roff, _Count));
; 2135 : 		}
; 2136 : 
; 2137 : 	int compare(const _Elem *_Ptr) const
; 2138 : 		{	// compare [0, _Mysize) with [_Ptr, <null>)
; 2139 : 		_DEBUG_POINTER(_Ptr);
; 2140 : 		return (compare(0, this->_Mysize, _Ptr, _Traits::length(_Ptr)));
; 2141 : 		}
; 2142 : 
; 2143 : 	int compare(size_type _Off, size_type _N0, const _Elem *_Ptr) const
; 2144 : 		{	// compare [_Off, _Off + _N0) with [_Ptr, <null>)
; 2145 : 		_DEBUG_POINTER(_Ptr);
; 2146 : 		return (compare(_Off, _N0, _Ptr, _Traits::length(_Ptr)));
; 2147 : 		}
; 2148 : 
; 2149 : 	int compare(size_type _Off,
; 2150 : 		size_type _N0, const _Elem *_Ptr, size_type _Count) const
; 2151 : 		{	// compare [_Off, _Off + _N0) with [_Ptr, _Ptr + _Count)
; 2152 :  #if _ITERATOR_DEBUG_LEVEL == 2
; 2153 : 		if (_Count != 0)
; 2154 : 			_DEBUG_POINTER(_Ptr);
; 2155 :  #endif /* _ITERATOR_DEBUG_LEVEL == 2 */
; 2156 : 
; 2157 : 		if (this->_Mysize < _Off)
; 2158 : 			_Xran();	// _Off off end
; 2159 : 		if (this->_Mysize - _Off < _N0)
; 2160 : 			_N0 = this->_Mysize - _Off;	// trim _N0 to size
; 2161 : 
; 2162 : 		size_type _Ans = _Traits::compare(this->_Myptr() + _Off, _Ptr,
; 2163 : 			_N0 < _Count ? _N0 : _Count);
; 2164 : 		return (_Ans != 0 ? (int)_Ans : _N0 < _Count ? -1
; 2165 : 			: _N0 == _Count ? 0 : +1);
; 2166 : 		}
; 2167 : 
; 2168 : 	allocator_type get_allocator() const _NOEXCEPT
; 2169 : 		{	// return allocator object for values
; 2170 : 		return (this->_Getal());
; 2171 : 		}
; 2172 : 
; 2173 : 	void _Chassign(size_type _Off, size_type _Count, _Elem _Ch)
; 2174 : 		{	// assign _Count copies of _Ch beginning at _Off
; 2175 : 		if (_Count == 1)
; 2176 : 			_Traits::assign(*(this->_Myptr() + _Off), _Ch);
; 2177 : 		else
; 2178 : 			_Traits::assign(this->_Myptr() + _Off, _Count, _Ch);
; 2179 : 		}
; 2180 : 
; 2181 : 	void _Copy(size_type _Newsize, size_type _Oldlen)
; 2182 : 		{	// copy _Oldlen elements to newly allocated buffer
; 2183 : 		size_type _Newres = _Newsize | this->_ALLOC_MASK;
; 2184 : 		if (max_size() < _Newres)
; 2185 : 			_Newres = _Newsize;	// undo roundup if too big
; 2186 : 		else if (this->_Myres / 2 <= _Newres / 3)
; 2187 : 			;
; 2188 : 		else if (this->_Myres <= max_size() - this->_Myres / 2)
; 2189 : 			_Newres = this->_Myres
; 2190 : 				+ this->_Myres / 2;	// grow exponentially if possible
; 2191 : 		else
; 2192 : 			_Newres = max_size();	// settle for max_size()
; 2193 : 
; 2194 : 		_Elem *_Ptr;
; 2195 : 		_TRY_BEGIN
; 2196 : 			_Ptr = this->_Getal().allocate(_Newres + 1);
; 2197 : 		_CATCH_ALL
; 2198 : 			_Newres = _Newsize;	// allocation failed, undo roundup and retry
; 2199 : 			_TRY_BEGIN
; 2200 : 				_Ptr = this->_Getal().allocate(_Newres + 1);
; 2201 : 			_CATCH_ALL
; 2202 : 			_Tidy(true);	// failed again, discard storage and reraise
; 2203 : 			_RERAISE;
; 2204 : 			_CATCH_END
; 2205 : 		_CATCH_END
; 2206 : 
; 2207 : 		if (0 < _Oldlen)
; 2208 : 			_Traits::copy(_Ptr, this->_Myptr(),
; 2209 : 				_Oldlen);	// copy existing elements
; 2210 : 		_Tidy(true);
; 2211 : 		this->_Getal().construct(&this->_Bx._Ptr, _Ptr);
; 2212 : 		this->_Myres = _Newres;
; 2213 : 		_Eos(_Oldlen);
; 2214 : 		}
; 2215 : 
; 2216 : 	void _Eos(size_type _Newsize)
; 2217 : 		{	// set new length and null terminator
; 2218 : 		_Traits::assign(this->_Myptr()[this->_Mysize = _Newsize], _Elem());

  0001a	89 41 10	 mov	 DWORD PTR [ecx+16], eax

; 517  : 			: this->_Bx._Buf);

  0001d	72 0c		 jb	 SHORT $LN11@erase
; File c:\program files (x86)\microsoft visual studio 11.0\vc\include\xstddef

; 88   : 		reinterpret_cast<const volatile char&>(_Val)))));

  0001f	8b 11		 mov	 edx, DWORD PTR [ecx]
; File c:\program files (x86)\microsoft visual studio 11.0\vc\include\iosfwd

; 564  : 		_Left = _Right;

  00021	c6 04 02 00	 mov	 BYTE PTR [edx+eax], 0
; File c:\program files (x86)\microsoft visual studio 11.0\vc\include\xstring

; 1313 : 		return (*this);

  00025	8b c1		 mov	 eax, ecx

; 1314 : 		}

  00027	5d		 pop	 ebp
  00028	c2 04 00	 ret	 4
$LN11@erase:

; 517  : 			: this->_Bx._Buf);

  0002b	8b d1		 mov	 edx, ecx
; File c:\program files (x86)\microsoft visual studio 11.0\vc\include\iosfwd

; 564  : 		_Left = _Right;

  0002d	c6 04 02 00	 mov	 BYTE PTR [edx+eax], 0
; File c:\program files (x86)\microsoft visual studio 11.0\vc\include\xstring

; 1313 : 		return (*this);

  00031	8b c1		 mov	 eax, ecx

; 1314 : 		}

  00033	5d		 pop	 ebp
  00034	c2 04 00	 ret	 4
$LN18@erase:
?erase@?$basic_string@DU?$char_traits@D@std@@V?$allocator@D@2@@std@@QAEAAV12@I@Z ENDP ; std::basic_string<char,std::char_traits<char>,std::allocator<char> >::erase
_TEXT	ENDS
; Function compile flags: /Ogtp
; File c:\program files (x86)\microsoft visual studio 11.0\vc\include\xstring
; File c:\program files (x86)\microsoft visual studio 11.0\vc\include\xstddef
; File c:\program files (x86)\microsoft visual studio 11.0\vc\include\iosfwd
; File c:\program files (x86)\microsoft visual studio 11.0\vc\include\xstring
; File c:\program files (x86)\microsoft visual studio 11.0\vc\include\iosfwd
; File c:\program files (x86)\microsoft visual studio 11.0\vc\include\xstring
; File c:\program files (x86)\microsoft visual studio 11.0\vc\include\xstddef
; File c:\program files (x86)\microsoft visual studio 11.0\vc\include\xstring
; File c:\program files (x86)\microsoft visual studio 11.0\vc\include\iosfwd
; File c:\program files (x86)\microsoft visual studio 11.0\vc\include\xstring
; File c:\program files (x86)\microsoft visual studio 11.0\vc\include\iosfwd
; File c:\program files (x86)\microsoft visual studio 11.0\vc\include\xstring
; File c:\program files (x86)\microsoft visual studio 11.0\vc\include\xstddef
; File c:\program files (x86)\microsoft visual studio 11.0\vc\include\iosfwd
; File c:\program files (x86)\microsoft visual studio 11.0\vc\include\xstring
; File c:\program files (x86)\microsoft visual studio 11.0\vc\include\iosfwd
; File c:\program files (x86)\microsoft visual studio 11.0\vc\include\xstring
;	COMDAT ?erase@?$basic_string@DU?$char_traits@D@std@@V?$allocator@D@2@@std@@QAEAAV12@II@Z
_TEXT	SEGMENT
__Off$dead$ = 8						; size = 4
__Count$ = 12						; size = 4
?erase@?$basic_string@DU?$char_traits@D@std@@V?$allocator@D@2@@std@@QAEAAV12@II@Z PROC ; std::basic_string<char,std::char_traits<char>,std::allocator<char> >::erase, COMDAT
; _this$ = ecx

; 1317 : 		{	// erase elements [_Off, _Off + _Count)

  00000	55		 push	 ebp
  00001	8b ec		 mov	 ebp, esp

; 1318 : 		if (this->_Mysize < _Off)
; 1319 : 			_Xran();	// _Off off end
; 1320 : 		if (this->_Mysize - _Off <= _Count)

  00003	8b 45 0c	 mov	 eax, DWORD PTR __Count$[ebp]
  00006	56		 push	 esi
  00007	8b f1		 mov	 esi, ecx
  00009	57		 push	 edi
  0000a	8b 7e 10	 mov	 edi, DWORD PTR [esi+16]
  0000d	3b f8		 cmp	 edi, eax
  0000f	77 25		 ja	 SHORT $LN3@erase

; 517  : 			: this->_Bx._Buf);

  00011	83 7e 14 10	 cmp	 DWORD PTR [esi+20], 16	; 00000010H

; 1331 : 
; 1332 : 	iterator erase(const_iterator _Where)
; 1333 : 		{	// erase element at _Where
; 1334 : 		size_type _Count = _Pdif(_Where, begin());
; 1335 : 		erase(_Count, 1);
; 1336 : 		return (_STRING_ITERATOR(this->_Myptr() + _Count));
; 1337 : 		}
; 1338 : 
; 1339 : 	iterator erase(const_iterator _First, const_iterator _Last)
; 1340 : 		{	// erase substring [_First, _Last)
; 1341 : 		_DEBUG_RANGE(_First, _Last);
; 1342 : 		size_type _Count = _Pdif(_First, begin());
; 1343 : 		erase(_Count, _Pdif(_Last, _First));
; 1344 : 		return (_STRING_ITERATOR(this->_Myptr() + _Count));
; 1345 : 		}
; 1346 : 
; 1347 : 	void clear() _NOEXCEPT
; 1348 : 		{	// erase all
; 1349 : 		_Eos(0);
; 1350 : 		}
; 1351 : 
; 1352 : 	_Myt& replace(size_type _Off, size_type _N0, const _Myt& _Right)
; 1353 : 		{	// replace [_Off, _Off + _N0) with _Right
; 1354 : 		return (replace(_Off, _N0, _Right, 0, npos));
; 1355 : 		}
; 1356 : 
; 1357 : 	_Myt& replace(size_type _Off,
; 1358 : 		size_type _N0, const _Myt& _Right, size_type _Roff, size_type _Count)
; 1359 : 		{	// replace [_Off, _Off + _N0) with _Right [_Roff, _Roff + _Count)
; 1360 : 		if (this->_Mysize < _Off || _Right.size() < _Roff)
; 1361 : 			_Xran();	// _Off or _Roff off end
; 1362 : 		if (this->_Mysize - _Off < _N0)
; 1363 : 			_N0 = this->_Mysize - _Off;	// trim _N0 to size
; 1364 : 		size_type _Num = _Right.size() - _Roff;
; 1365 : 		if (_Num < _Count)
; 1366 : 			_Count = _Num;	// trim _Count to size
; 1367 : 		if (npos - _Count <= this->_Mysize - _N0)
; 1368 : 			_Xlen();	// result too long
; 1369 : 
; 1370 : 		size_type _Nm = this->_Mysize - _N0 - _Off;	// length of kept tail
; 1371 : 		size_type _Newsize = this->_Mysize + _Count - _N0;
; 1372 : 		if (this->_Mysize < _Newsize)
; 1373 : 			_Grow(_Newsize);
; 1374 : 
; 1375 : 		if (this != &_Right)
; 1376 : 			{	// no overlap, just move down and copy in new stuff
; 1377 : 			_Traits::move(this->_Myptr() + _Off + _Count,
; 1378 : 				this->_Myptr() + _Off + _N0, _Nm);	// empty hole
; 1379 : 			_Traits::copy(this->_Myptr() + _Off,
; 1380 : 				_Right._Myptr() + _Roff, _Count);	// fill hole
; 1381 : 			}
; 1382 : 		else if (_Count <= _N0)
; 1383 : 			{	// hole doesn't get larger, just copy in substring
; 1384 : 			_Traits::move(this->_Myptr() + _Off,
; 1385 : 				this->_Myptr() + _Roff, _Count);	// fill hole
; 1386 : 			_Traits::move(this->_Myptr() + _Off + _Count,
; 1387 : 				this->_Myptr() + _Off + _N0, _Nm);	// move tail down
; 1388 : 			}
; 1389 : 		else if (_Roff <= _Off)
; 1390 : 			{	// hole gets larger, substring begins before hole
; 1391 : 			_Traits::move(this->_Myptr() + _Off + _Count,
; 1392 : 				this->_Myptr() + _Off + _N0, _Nm);	// move tail down
; 1393 : 			_Traits::move(this->_Myptr() + _Off,
; 1394 : 				this->_Myptr() + _Roff, _Count);	// fill hole
; 1395 : 			}
; 1396 : 		else if (_Off + _N0 <= _Roff)
; 1397 : 			{	// hole gets larger, substring begins after hole
; 1398 : 			_Traits::move(this->_Myptr() + _Off + _Count,
; 1399 : 				this->_Myptr() + _Off + _N0, _Nm);	// move tail down
; 1400 : 			_Traits::move(this->_Myptr() + _Off,
; 1401 : 				this->_Myptr() + (_Roff + _Count - _N0),
; 1402 : 				_Count);	// fill hole
; 1403 : 			}
; 1404 : 		else
; 1405 : 			{	// hole gets larger, substring begins in hole
; 1406 : 			_Traits::move(this->_Myptr() + _Off,
; 1407 : 				this->_Myptr() + _Roff, _N0);	// fill old hole
; 1408 : 			_Traits::move(this->_Myptr() + _Off + _Count,
; 1409 : 				this->_Myptr() + _Off + _N0, _Nm);	// move tail down
; 1410 : 			_Traits::move(this->_Myptr() + _Off + _N0,
; 1411 : 				this->_Myptr() + _Roff + _Count,
; 1412 : 				_Count - _N0);	// fill rest of new hole
; 1413 : 			}
; 1414 : 
; 1415 : 		_Eos(_Newsize);
; 1416 : 		return (*this);
; 1417 : 		}
; 1418 : 
; 1419 : 	_Myt& replace(size_type _Off,
; 1420 : 		size_type _N0, const _Elem *_Ptr, size_type _Count)
; 1421 : 		{	// replace [_Off, _Off + _N0) with [_Ptr, _Ptr + _Count)
; 1422 :  #if _ITERATOR_DEBUG_LEVEL == 2
; 1423 : 		if (_Count != 0)
; 1424 : 			_DEBUG_POINTER(_Ptr);
; 1425 :  #endif /* _ITERATOR_DEBUG_LEVEL == 2 */
; 1426 : 
; 1427 : 		if (_Inside(_Ptr))
; 1428 : 			return (replace(_Off, _N0, *this,
; 1429 : 				_Ptr - this->_Myptr(),
; 1430 : 				_Count));	// substring, replace carefully
; 1431 : 		if (this->_Mysize < _Off)
; 1432 : 			_Xran();	// _Off off end
; 1433 : 		if (this->_Mysize - _Off < _N0)
; 1434 : 			_N0 = this->_Mysize - _Off;	// trim _N0 to size
; 1435 : 		if (npos - _Count <= this->_Mysize - _N0)
; 1436 : 			_Xlen();	// result too long
; 1437 : 		size_type _Nm = this->_Mysize - _N0 - _Off;
; 1438 : 
; 1439 : 		if (_Count < _N0)
; 1440 : 			_Traits::move(this->_Myptr() + _Off + _Count,
; 1441 : 				this->_Myptr() + _Off + _N0,
; 1442 : 				_Nm);	// smaller hole, move tail up
; 1443 : 		size_type _Num;
; 1444 : 		if ((0 < _Count || 0 < _N0)
; 1445 : 			&& _Grow(_Num = this->_Mysize + _Count - _N0))
; 1446 : 			{	// make room and rearrange
; 1447 : 			if (_N0 < _Count)
; 1448 : 				_Traits::move(this->_Myptr() + _Off + _Count,
; 1449 : 					this->_Myptr() + _Off + _N0, _Nm);	// move tail down
; 1450 : 			_Traits::copy(this->_Myptr() + _Off, _Ptr, _Count);	// fill hole
; 1451 : 			_Eos(_Num);
; 1452 : 			}
; 1453 : 		return (*this);
; 1454 : 		}
; 1455 : 
; 1456 : 	_Myt& replace(size_type _Off, size_type _N0, const _Elem *_Ptr)
; 1457 : 		{	// replace [_Off, _Off + _N0) with [_Ptr, <null>)
; 1458 : 		_DEBUG_POINTER(_Ptr);
; 1459 : 		return (replace(_Off, _N0, _Ptr, _Traits::length(_Ptr)));
; 1460 : 		}
; 1461 : 
; 1462 : 	_Myt& replace(size_type _Off,
; 1463 : 		size_type _N0, size_type _Count, _Elem _Ch)
; 1464 : 		{	// replace [_Off, _Off + _N0) with _Count * _Ch
; 1465 : 		if (this->_Mysize < _Off)
; 1466 : 			_Xran();	// _Off off end
; 1467 : 		if (this->_Mysize - _Off < _N0)
; 1468 : 			_N0 = this->_Mysize - _Off;	// trim _N0 to size
; 1469 : 		if (npos - _Count <= this->_Mysize - _N0)
; 1470 : 			_Xlen();	// result too long
; 1471 : 		size_type _Nm = this->_Mysize - _N0 - _Off;
; 1472 : 
; 1473 : 		if (_Count < _N0)
; 1474 : 			_Traits::move(this->_Myptr() + _Off + _Count,
; 1475 : 				this->_Myptr() + _Off + _N0,
; 1476 : 				_Nm);	// smaller hole, move tail up
; 1477 : 		size_type _Num;
; 1478 : 		if ((0 < _Count || 0 < _N0)
; 1479 : 			&& _Grow(_Num = this->_Mysize + _Count - _N0))
; 1480 : 			{	// make room and rearrange
; 1481 : 			if (_N0 < _Count)
; 1482 : 				_Traits::move(this->_Myptr() + _Off + _Count,
; 1483 : 					this->_Myptr() + _Off + _N0, _Nm);	// move tail down
; 1484 : 			_Chassign(_Off, _Count, _Ch);	// fill hole
; 1485 : 			_Eos(_Num);
; 1486 : 			}
; 1487 : 		return (*this);
; 1488 : 		}
; 1489 : 
; 1490 : 	_Myt& replace(const_iterator _First, const_iterator _Last,
; 1491 : 		const _Myt& _Right)
; 1492 : 		{	// replace [_First, _Last) with _Right
; 1493 : 		return (replace(
; 1494 : 			_Pdif(_First, begin()), _Pdif(_Last, _First), _Right));
; 1495 : 		}
; 1496 : 
; 1497 : 	_Myt& replace(const_iterator _First, const_iterator _Last,
; 1498 : 		const _Elem *_Ptr, size_type _Count)
; 1499 : 		{	// replace [_First, _Last) with [_Ptr, _Ptr + _Count)
; 1500 : 		return (replace(
; 1501 : 			_Pdif(_First, begin()), _Pdif(_Last, _First), _Ptr, _Count));
; 1502 : 		}
; 1503 : 
; 1504 : 	_Myt& replace(const_iterator _First, const_iterator _Last,
; 1505 : 		const _Elem *_Ptr)
; 1506 : 		{	// replace [_First, _Last) with [_Ptr, <null>)
; 1507 : 		return (replace(
; 1508 : 			_Pdif(_First, begin()), _Pdif(_Last, _First), _Ptr));
; 1509 : 		}
; 1510 : 
; 1511 : 	_Myt& replace(const_iterator _First, const_iterator _Last,
; 1512 : 		size_type _Count, _Elem _Ch)
; 1513 : 		{	// replace [_First, _Last) with _Count * _Ch
; 1514 : 		return (replace(
; 1515 : 			_Pdif(_First, begin()), _Pdif(_Last, _First), _Count, _Ch));
; 1516 : 		}
; 1517 : 
; 1518 : 	template<class _Iter>
; 1519 : 		typename enable_if<_Is_iterator<_Iter>::value,
; 1520 : 			_Myt&>::type
; 1521 : 		replace(const_iterator _First, const_iterator _Last,
; 1522 : 			_Iter _First2, _Iter _Last2)
; 1523 : 		{	// replace [_First, _Last) with [_First2, _Last2), input iterators
; 1524 : 		_Myt _Right(_First2, _Last2);
; 1525 : 		replace(_First, _Last, _Right);
; 1526 : 		return (*this);
; 1527 : 		}
; 1528 : 
; 1529 : 	_Myt& replace(const_iterator _First, const_iterator _Last,
; 1530 : 		const_pointer _First2, const_pointer _Last2)
; 1531 : 		{	// replace [_First, _Last) with [_First2, _Last2), const pointers
; 1532 : 		if (_First2 == _Last2)
; 1533 : 			erase(_Pdif(_First, begin()), _Pdif(_Last, _First));
; 1534 : 		else
; 1535 : 			replace(_Pdif(_First, begin()), _Pdif(_Last, _First),
; 1536 : 				&*_First2, _Last2 - _First2);
; 1537 : 		return (*this);
; 1538 : 		}
; 1539 : 
; 1540 : 	_Myt& replace(const_iterator _First, const_iterator _Last,
; 1541 : 		pointer _First2, pointer _Last2)
; 1542 : 		{	// replace [_First, _Last) with [_First2, _Last2), const pointers
; 1543 : 		if (_First2 == _Last2)
; 1544 : 			erase(_Pdif(_First, begin()), _Pdif(_Last, _First));
; 1545 : 		else
; 1546 : 			replace(_Pdif(_First, begin()), _Pdif(_Last, _First),
; 1547 : 				&*_First2, _Last2 - _First2);
; 1548 : 		return (*this);
; 1549 : 		}
; 1550 : 
; 1551 : 	_Myt& replace(const_iterator _First, const_iterator _Last,
; 1552 : 		const_iterator _First2, const_iterator _Last2)
; 1553 : 		{	// replace [_First, _Last) with [_First2, _Last2), const_iterators
; 1554 : 		if (_First2 == _Last2)
; 1555 : 			erase(_Pdif(_First, begin()), _Pdif(_Last, _First));
; 1556 : 		else
; 1557 : 			replace(_Pdif(_First, begin()), _Pdif(_Last, _First),
; 1558 : 				&*_First2, _Last2 - _First2);
; 1559 : 		return (*this);
; 1560 : 		}
; 1561 : 
; 1562 : 	_Myt& replace(const_iterator _First, const_iterator _Last,
; 1563 : 		iterator _First2, iterator _Last2)
; 1564 : 		{	// replace [_First, _Last) with [_First2, _Last2), const_iterators
; 1565 : 		if (_First2 == _Last2)
; 1566 : 			erase(_Pdif(_First, begin()), _Pdif(_Last, _First));
; 1567 : 		else
; 1568 : 			replace(_Pdif(_First, begin()), _Pdif(_Last, _First),
; 1569 : 				&*_First2, _Last2 - _First2);
; 1570 : 		return (*this);
; 1571 : 		}
; 1572 : 
; 1573 : 	iterator begin() _NOEXCEPT
; 1574 : 		{	// return iterator for beginning of mutable sequence
; 1575 : 		return (_STRING_ITERATOR(this->_Myptr()));
; 1576 : 		}
; 1577 : 
; 1578 : 	const_iterator begin() const _NOEXCEPT
; 1579 : 		{	// return iterator for beginning of nonmutable sequence
; 1580 : 		return (_STRING_CONST_ITERATOR(this->_Myptr()));
; 1581 : 		}
; 1582 : 
; 1583 : 	iterator end() _NOEXCEPT
; 1584 : 		{	// return iterator for end of mutable sequence
; 1585 : 		return (_STRING_ITERATOR(this->_Myptr() + this->_Mysize));
; 1586 : 		}
; 1587 : 
; 1588 : 	const_iterator end() const _NOEXCEPT
; 1589 : 		{	// return iterator for end of nonmutable sequence
; 1590 : 		return (_STRING_CONST_ITERATOR(this->_Myptr() + this->_Mysize));
; 1591 : 		}
; 1592 : 
; 1593 : 	reverse_iterator rbegin() _NOEXCEPT
; 1594 : 		{	// return iterator for beginning of reversed mutable sequence
; 1595 : 		return (reverse_iterator(end()));
; 1596 : 		}
; 1597 : 
; 1598 : 	const_reverse_iterator rbegin() const _NOEXCEPT
; 1599 : 		{	// return iterator for beginning of reversed nonmutable sequence
; 1600 : 		return (const_reverse_iterator(end()));
; 1601 : 		}
; 1602 : 
; 1603 : 	reverse_iterator rend() _NOEXCEPT
; 1604 : 		{	// return iterator for end of reversed mutable sequence
; 1605 : 		return (reverse_iterator(begin()));
; 1606 : 		}
; 1607 : 
; 1608 : 	const_reverse_iterator rend() const _NOEXCEPT
; 1609 : 		{	// return iterator for end of reversed nonmutable sequence
; 1610 : 		return (const_reverse_iterator(begin()));
; 1611 : 		}
; 1612 : 
; 1613 :  #if _HAS_CPP0X
; 1614 : 	const_iterator cbegin() const _NOEXCEPT
; 1615 : 		{	// return iterator for beginning of nonmutable sequence
; 1616 : 		return (((const _Myt *)this)->begin());
; 1617 : 		}
; 1618 : 
; 1619 : 	const_iterator cend() const _NOEXCEPT
; 1620 : 		{	// return iterator for end of nonmutable sequence
; 1621 : 		return (((const _Myt *)this)->end());
; 1622 : 		}
; 1623 : 
; 1624 : 	const_reverse_iterator crbegin() const _NOEXCEPT
; 1625 : 		{	// return iterator for beginning of reversed nonmutable sequence
; 1626 : 		return (((const _Myt *)this)->rbegin());
; 1627 : 		}
; 1628 : 
; 1629 : 	const_reverse_iterator crend() const _NOEXCEPT
; 1630 : 		{	// return iterator for end of reversed nonmutable sequence
; 1631 : 		return (((const _Myt *)this)->rend());
; 1632 : 		}
; 1633 : 
; 1634 : 	void shrink_to_fit()
; 1635 : 		{	// reduce capacity
; 1636 : 		if ((size() | this->_ALLOC_MASK) < capacity())
; 1637 : 			{	// worth shrinking, do it
; 1638 : 			_Myt _Tmp(*this);
; 1639 : 			swap(_Tmp);
; 1640 : 			}
; 1641 : 		}
; 1642 :  #endif /* _HAS_CPP0X */
; 1643 : 
; 1644 : 	reference at(size_type _Off)
; 1645 : 		{	// subscript mutable sequence with checking
; 1646 : 		if (this->_Mysize <= _Off)
; 1647 : 			_Xran();	// _Off off end
; 1648 : 		return (this->_Myptr()[_Off]);
; 1649 : 		}
; 1650 : 
; 1651 : 	const_reference at(size_type _Off) const
; 1652 : 		{	// subscript nonmutable sequence with checking
; 1653 : 		if (this->_Mysize <= _Off)
; 1654 : 			_Xran();	// _Off off end
; 1655 : 		return (this->_Myptr()[_Off]);
; 1656 : 		}
; 1657 : 
; 1658 : 	reference operator[](size_type _Off)
; 1659 : 		{	// subscript mutable sequence
; 1660 :  #if _ITERATOR_DEBUG_LEVEL == 2
; 1661 : 		if (this->_Mysize < _Off)	// sic
; 1662 : 			_DEBUG_ERROR("string subscript out of range");
; 1663 : 
; 1664 :  #elif _ITERATOR_DEBUG_LEVEL == 1
; 1665 : 		_SCL_SECURE_VALIDATE_RANGE(_Off <= this->_Mysize);	// sic
; 1666 :  #endif /* _ITERATOR_DEBUG_LEVEL == 2 */
; 1667 : 
; 1668 : 		return (this->_Myptr()[_Off]);
; 1669 : 		}
; 1670 : 
; 1671 : 	const_reference operator[](size_type _Off) const
; 1672 : 		{	// subscript nonmutable sequence
; 1673 :  #if _ITERATOR_DEBUG_LEVEL == 2
; 1674 : 		if (this->_Mysize < _Off)	// sic
; 1675 : 			_DEBUG_ERROR("string subscript out of range");
; 1676 : 
; 1677 :  #elif _ITERATOR_DEBUG_LEVEL == 1
; 1678 : 		_SCL_SECURE_VALIDATE_RANGE(_Off <= this->_Mysize);	// sic
; 1679 :  #endif /* _ITERATOR_DEBUG_LEVEL == 2 */
; 1680 : 
; 1681 : 		return (this->_Myptr()[_Off]);
; 1682 : 		}
; 1683 : 
; 1684 : 	void push_back(_Elem _Ch)
; 1685 : 		{	// insert element at end
; 1686 : 		insert(end(), _Ch);
; 1687 : 		}
; 1688 : 
; 1689 :  #if _HAS_CPP0X
; 1690 : 	void pop_back()
; 1691 : 		{	// erase element at end
; 1692 : 		erase(this->_Mysize - 1);	// throws if _Mysize == 0
; 1693 : 		}
; 1694 : 
; 1695 : 	reference front()
; 1696 : 		{	// return first element of mutable sequence
; 1697 : 		return (*begin());
; 1698 : 		}
; 1699 : 
; 1700 : 	const_reference front() const
; 1701 : 		{	// return first element of nonmutable sequence
; 1702 : 		return (*begin());
; 1703 : 		}
; 1704 : 
; 1705 : 	reference back()
; 1706 : 		{	// return last element of mutable sequence
; 1707 : 		return (*(end() - 1));
; 1708 : 		}
; 1709 : 
; 1710 : 	const_reference back() const
; 1711 : 		{	// return last element of nonmutable sequence
; 1712 : 		return (*(end() - 1));
; 1713 : 		}
; 1714 :  #endif /* _HAS_CPP0X */
; 1715 : 
; 1716 : 	const _Elem *c_str() const _NOEXCEPT
; 1717 : 		{	// return pointer to null-terminated nonmutable array
; 1718 : 		return (this->_Myptr());
; 1719 : 		}
; 1720 : 
; 1721 : 	const _Elem *data() const _NOEXCEPT
; 1722 : 		{	// return pointer to nonmutable array
; 1723 : 		return (c_str());
; 1724 : 		}
; 1725 : 
; 1726 : 	size_type length() const _NOEXCEPT
; 1727 : 		{	// return length of sequence
; 1728 : 		return (this->_Mysize);
; 1729 : 		}
; 1730 : 
; 1731 : 	size_type size() const _NOEXCEPT
; 1732 : 		{	// return length of sequence
; 1733 : 		return (this->_Mysize);
; 1734 : 		}
; 1735 : 
; 1736 : 	size_type max_size() const _NOEXCEPT
; 1737 : 		{	// return maximum possible length of sequence
; 1738 : 		size_type _Num = this->_Getal().max_size();
; 1739 : 		return (_Num <= 1 ? 1 : _Num - 1);
; 1740 : 		}
; 1741 : 
; 1742 : 	void resize(size_type _Newsize)
; 1743 : 		{	// determine new length, padding with null elements as needed
; 1744 : 		resize(_Newsize, _Elem());
; 1745 : 		}
; 1746 : 
; 1747 : 	void resize(size_type _Newsize, _Elem _Ch)
; 1748 : 		{	// determine new length, padding with _Ch elements as needed
; 1749 : 		if (_Newsize <= this->_Mysize)
; 1750 : 			_Eos(_Newsize);
; 1751 : 		else
; 1752 : 			append(_Newsize - this->_Mysize, _Ch);
; 1753 : 		}
; 1754 : 
; 1755 : 	size_type capacity() const _NOEXCEPT
; 1756 : 		{	// return current length of allocated storage
; 1757 : 		return (this->_Myres);
; 1758 : 		}
; 1759 : 
; 1760 : 	void reserve(size_type _Newcap = 0)
; 1761 : 		{	// determine new minimum length of allocated storage
; 1762 : 		if (this->_Mysize <= _Newcap && this->_Myres != _Newcap)
; 1763 : 			{	// change reservation
; 1764 : 			size_type _Size = this->_Mysize;
; 1765 : 			if (_Grow(_Newcap, true))
; 1766 : 				_Eos(_Size);
; 1767 : 			}
; 1768 : 		}
; 1769 : 
; 1770 : 	bool empty() const _NOEXCEPT
; 1771 : 		{	// test if sequence is empty
; 1772 : 		return (this->_Mysize == 0);
; 1773 : 		}
; 1774 : 
; 1775 : 	_SCL_INSECURE_DEPRECATE
; 1776 : 
; 1777 : 	size_type copy(_Elem *_Ptr,
; 1778 : 		size_type _Count, size_type _Off = 0) const
; 1779 : 		{	// copy [_Off, _Off + _Count) to [_Ptr, _Ptr + _Count)
; 1780 :  #if _ITERATOR_DEBUG_LEVEL == 2
; 1781 : 		if (_Count != 0)
; 1782 : 			_DEBUG_POINTER(_Ptr);
; 1783 :  #endif /* _ITERATOR_DEBUG_LEVEL == 2 */
; 1784 : 
; 1785 : 		if (this->_Mysize < _Off)
; 1786 : 			_Xran();	// _Off off end
; 1787 : 		if (this->_Mysize - _Off < _Count)
; 1788 : 			_Count = this->_Mysize - _Off;
; 1789 : 		_Traits::copy(_Ptr, this->_Myptr() + _Off, _Count);
; 1790 : 		return (_Count);
; 1791 : 		}
; 1792 : 
; 1793 : 	size_type _Copy_s(_Elem *_Dest, size_type _Dest_size,
; 1794 : 		size_type _Count, size_type _Off = 0) const
; 1795 : 		{	// copy [_Off, _Off + _Count) to [_Dest, _Dest + _Count)
; 1796 :  #if _ITERATOR_DEBUG_LEVEL == 2
; 1797 : 		if (_Count != 0)
; 1798 : 			_DEBUG_POINTER(_Dest);
; 1799 :  #endif /* _ITERATOR_DEBUG_LEVEL == 2 */
; 1800 : 
; 1801 : 		if (this->_Mysize < _Off)
; 1802 : 			_Xran();	// _Off off end
; 1803 : 		if (this->_Mysize - _Off < _Count)
; 1804 : 			_Count = this->_Mysize - _Off;
; 1805 : 		_Traits::_Copy_s(_Dest, _Dest_size, this->_Myptr() + _Off, _Count);
; 1806 : 		return (_Count);
; 1807 : 		}
; 1808 : 
; 1809 : 	void _Swap_bx(_Myt& _Right)
; 1810 : 		{	// exchange _Bx with _Right._Bx
; 1811 : 		if (this->_BUF_SIZE <= this->_Myres)
; 1812 : 			if (this->_BUF_SIZE <= _Right._Myres)
; 1813 : 				_Swap_adl(this->_Bx._Ptr, _Right._Bx._Ptr);
; 1814 : 			else
; 1815 : 				{	// swap large with small
; 1816 : 				pointer _Ptr = this->_Bx._Ptr;
; 1817 : 				this->_Getal().destroy(&this->_Bx._Ptr);
; 1818 : 				_Traits::copy(this->_Bx._Buf,
; 1819 : 					_Right._Bx._Buf, _Right._Mysize + 1);
; 1820 : 				this->_Getal().construct(&_Right._Bx._Ptr, _Ptr);
; 1821 : 				}
; 1822 : 		else
; 1823 : 			if (_Right._Myres < this->_BUF_SIZE)
; 1824 : 				_STD swap(this->_Bx._Buf, _Right._Bx._Buf);
; 1825 : 			else
; 1826 : 				{	// swap small with large
; 1827 : 				pointer _Ptr = _Right._Bx._Ptr;
; 1828 : 				this->_Getal().destroy(&_Right._Bx._Ptr);
; 1829 : 				_Traits::copy(_Right._Bx._Buf,
; 1830 : 					this->_Bx._Buf, this->_Mysize + 1);
; 1831 : 				this->_Getal().construct(&this->_Bx._Ptr, _Ptr);
; 1832 : 				}
; 1833 : 		}
; 1834 : 
; 1835 : 	void swap(_Myt& _Right)
; 1836 : 		{	// exchange contents with _Right
; 1837 : 		if (this == &_Right)
; 1838 : 			;	// same object, do nothing
; 1839 : 		else if (this->_Getal() == _Right._Getal())
; 1840 : 			{	// same allocator, swap control information
; 1841 : 			this->_Swap_all(_Right);
; 1842 : 			_Swap_bx(_Right);
; 1843 : 			_STD swap(this->_Mysize, _Right._Mysize);
; 1844 : 			_STD swap(this->_Myres, _Right._Myres);
; 1845 : 			}
; 1846 : 
; 1847 :  #if _HAS_CPP0X
; 1848 : 		else if (_Alty::propagate_on_container_swap::value)
; 1849 : 			{	// swap allocators and control information
; 1850 : 			this->_Swap_alloc(_Right);
; 1851 : 			_Swap_bx(_Right);
; 1852 : 			_STD swap(this->_Bx, _Right._Bx);	// pointer bitwise copyable?
; 1853 : 			_STD swap(this->_Mysize, _Right._Mysize);
; 1854 : 			_STD swap(this->_Myres, _Right._Myres);
; 1855 : 			}
; 1856 :  #endif /* _HAS_CPP0X */
; 1857 : 
; 1858 : 		else
; 1859 : 			{	// different allocator, do multiple assigns
; 1860 : 			_Myt _Tmp = *this;
; 1861 : 
; 1862 : 			*this = _Right;
; 1863 : 			_Right = _Tmp;
; 1864 : 			}
; 1865 : 		}
; 1866 : 
; 1867 : 	size_type find(const _Myt& _Right, size_type _Off = 0) const _NOEXCEPT
; 1868 : 		{	// look for _Right beginning at or after _Off
; 1869 : 		return (find(_Right._Myptr(), _Off, _Right.size()));
; 1870 : 		}
; 1871 : 
; 1872 : 	size_type find(const _Elem *_Ptr,
; 1873 : 		size_type _Off, size_type _Count) const
; 1874 : 		{	// look for [_Ptr, _Ptr + _Count) beginning at or after _Off
; 1875 :  #if _ITERATOR_DEBUG_LEVEL == 2
; 1876 : 		if (_Count != 0)
; 1877 : 			_DEBUG_POINTER(_Ptr);
; 1878 :  #endif /* _ITERATOR_DEBUG_LEVEL == 2 */
; 1879 : 
; 1880 : 		if (_Count == 0 && _Off <= this->_Mysize)
; 1881 : 			return (_Off);	// null string always matches (if inside string)
; 1882 : 
; 1883 : 		size_type _Nm;
; 1884 : 		if (_Off < this->_Mysize && _Count <= (_Nm = this->_Mysize - _Off))
; 1885 : 			{	// room for match, look for it
; 1886 : 			const _Elem *_Uptr, *_Vptr;
; 1887 : 			for (_Nm -= _Count - 1, _Vptr = this->_Myptr() + _Off;
; 1888 : 				(_Uptr = _Traits::find(_Vptr, _Nm, *_Ptr)) != 0;
; 1889 : 				_Nm -= _Uptr - _Vptr + 1, _Vptr = _Uptr + 1)
; 1890 : 				if (_Traits::compare(_Uptr, _Ptr, _Count) == 0)
; 1891 : 					return (_Uptr - this->_Myptr());	// found a match
; 1892 : 			}
; 1893 : 
; 1894 : 		return (npos);	// no match
; 1895 : 		}
; 1896 : 
; 1897 : 	size_type find(const _Elem *_Ptr, size_type _Off = 0) const
; 1898 : 		{	// look for [_Ptr, <null>) beginning at or after _Off
; 1899 : 		_DEBUG_POINTER(_Ptr);
; 1900 : 		return (find(_Ptr, _Off, _Traits::length(_Ptr)));
; 1901 : 		}
; 1902 : 
; 1903 : 	size_type find(_Elem _Ch, size_type _Off = 0) const
; 1904 : 		{	// look for _Ch at or after _Off
; 1905 : 		return (find((const _Elem *)&_Ch, _Off, 1));
; 1906 : 		}
; 1907 : 
; 1908 : 	size_type rfind(const _Myt& _Right, size_type _Off = npos) const _NOEXCEPT
; 1909 : 		{	// look for _Right beginning before _Off
; 1910 : 		return (rfind(_Right._Myptr(), _Off, _Right.size()));
; 1911 : 		}
; 1912 : 
; 1913 : 	size_type rfind(const _Elem *_Ptr,
; 1914 : 		size_type _Off, size_type _Count) const
; 1915 : 		{	// look for [_Ptr, _Ptr + _Count) beginning before _Off
; 1916 :  #if _ITERATOR_DEBUG_LEVEL == 2
; 1917 : 		if (_Count != 0)
; 1918 : 			_DEBUG_POINTER(_Ptr);
; 1919 :  #endif /* _ITERATOR_DEBUG_LEVEL == 2 */
; 1920 : 
; 1921 : 		if (_Count == 0)
; 1922 : 			return (_Off < this->_Mysize ? _Off
; 1923 : 				: this->_Mysize);	// null always matches
; 1924 : 		if (_Count <= this->_Mysize)
; 1925 : 			{	// room for match, look for it
; 1926 : 			const _Elem *_Uptr = this->_Myptr() +
; 1927 : 				(_Off < this->_Mysize - _Count ? _Off
; 1928 : 					: this->_Mysize - _Count);
; 1929 : 			for (; ; --_Uptr)
; 1930 : 				if (_Traits::eq(*_Uptr, *_Ptr)
; 1931 : 					&& _Traits::compare(_Uptr, _Ptr, _Count) == 0)
; 1932 : 					return (_Uptr - this->_Myptr());	// found a match
; 1933 : 				else if (_Uptr == this->_Myptr())
; 1934 : 					break;	// at beginning, no more chance for match
; 1935 : 			}
; 1936 : 
; 1937 : 		return (npos);	// no match
; 1938 : 		}
; 1939 : 
; 1940 : 	size_type rfind(const _Elem *_Ptr, size_type _Off = npos) const
; 1941 : 		{	// look for [_Ptr, <null>) beginning before _Off
; 1942 : 		_DEBUG_POINTER(_Ptr);
; 1943 : 		return (rfind(_Ptr, _Off, _Traits::length(_Ptr)));
; 1944 : 		}
; 1945 : 
; 1946 : 	size_type rfind(_Elem _Ch, size_type _Off = npos) const
; 1947 : 		{	// look for _Ch before _Off
; 1948 : 		return (rfind((const _Elem *)&_Ch, _Off, 1));
; 1949 : 		}
; 1950 : 
; 1951 : 	size_type find_first_of(const _Myt& _Right,
; 1952 : 		size_type _Off = 0) const _NOEXCEPT
; 1953 : 		{	// look for one of _Right at or after _Off
; 1954 : 		return (find_first_of(_Right._Myptr(), _Off, _Right.size()));
; 1955 : 		}
; 1956 : 
; 1957 : 	size_type find_first_of(const _Elem *_Ptr,
; 1958 : 		size_type _Off, size_type _Count) const
; 1959 : 		{	// look for one of [_Ptr, _Ptr + _Count) at or after _Off
; 1960 :  #if _ITERATOR_DEBUG_LEVEL == 2
; 1961 : 		if (_Count != 0)
; 1962 : 			_DEBUG_POINTER(_Ptr);
; 1963 :  #endif /* _ITERATOR_DEBUG_LEVEL == 2 */
; 1964 : 
; 1965 : 		if (0 < _Count && _Off < this->_Mysize)
; 1966 : 			{	// room for match, look for it
; 1967 : 			const _Elem *const _Vptr = this->_Myptr() + this->_Mysize;
; 1968 : 			for (const _Elem *_Uptr = this->_Myptr() + _Off;
; 1969 : 				_Uptr < _Vptr; ++_Uptr)
; 1970 : 				if (_Traits::find(_Ptr, _Count, *_Uptr) != 0)
; 1971 : 					return (_Uptr - this->_Myptr());	// found a match
; 1972 : 			}
; 1973 : 
; 1974 : 		return (npos);	// no match
; 1975 : 		}
; 1976 : 
; 1977 : 	size_type find_first_of(const _Elem *_Ptr,
; 1978 : 		size_type _Off = 0) const
; 1979 : 		{	// look for one of [_Ptr, <null>) at or after _Off
; 1980 : 		_DEBUG_POINTER(_Ptr);
; 1981 : 		return (find_first_of(_Ptr, _Off, _Traits::length(_Ptr)));
; 1982 : 		}
; 1983 : 
; 1984 : 	size_type find_first_of(_Elem _Ch,
; 1985 : 		size_type _Off = 0) const
; 1986 : 		{	// look for _Ch at or after _Off
; 1987 : 		return (find((const _Elem *)&_Ch, _Off, 1));
; 1988 : 		}
; 1989 : 
; 1990 : 	size_type find_last_of(const _Myt& _Right,
; 1991 : 		size_type _Off = npos) const _NOEXCEPT
; 1992 : 		{	// look for one of _Right before _Off
; 1993 : 		return (find_last_of(_Right._Myptr(), _Off, _Right.size()));
; 1994 : 		}
; 1995 : 
; 1996 : 	size_type find_last_of(const _Elem *_Ptr,
; 1997 : 		size_type _Off, size_type _Count) const
; 1998 : 		{	// look for one of [_Ptr, _Ptr + _Count) before _Off
; 1999 :  #if _ITERATOR_DEBUG_LEVEL == 2
; 2000 : 		if (_Count != 0)
; 2001 : 			_DEBUG_POINTER(_Ptr);
; 2002 :  #endif /* _ITERATOR_DEBUG_LEVEL == 2 */
; 2003 : 
; 2004 : 		if (0 < _Count && 0 < this->_Mysize)
; 2005 : 			{	// worth searching, do it
; 2006 : 			const _Elem *_Uptr = this->_Myptr()
; 2007 : 				+ (_Off < this->_Mysize ? _Off : this->_Mysize - 1);
; 2008 : 			for (; ; --_Uptr)
; 2009 : 				if (_Traits::find(_Ptr, _Count, *_Uptr) != 0)
; 2010 : 					return (_Uptr - this->_Myptr());	// found a match
; 2011 : 				else if (_Uptr == this->_Myptr())
; 2012 : 					break;	// at beginning, no more chance for match
; 2013 : 			}
; 2014 : 
; 2015 : 		return (npos);	// no match
; 2016 : 		}
; 2017 : 
; 2018 : 	size_type find_last_of(const _Elem *_Ptr,
; 2019 : 		size_type _Off = npos) const
; 2020 : 		{	// look for one of [_Ptr, <null>) before _Off
; 2021 : 		_DEBUG_POINTER(_Ptr);
; 2022 : 		return (find_last_of(_Ptr, _Off, _Traits::length(_Ptr)));
; 2023 : 		}
; 2024 : 
; 2025 : 	size_type find_last_of(_Elem _Ch,
; 2026 : 		size_type _Off = npos) const
; 2027 : 		{	// look for _Ch before _Off
; 2028 : 		return (rfind((const _Elem *)&_Ch, _Off, 1));
; 2029 : 		}
; 2030 : 
; 2031 : 	size_type find_first_not_of(const _Myt& _Right,
; 2032 : 		size_type _Off = 0) const _NOEXCEPT
; 2033 : 		{	// look for none of _Right at or after _Off
; 2034 : 		return (find_first_not_of(_Right._Myptr(), _Off,
; 2035 : 			_Right.size()));
; 2036 : 		}
; 2037 : 
; 2038 : 	size_type find_first_not_of(const _Elem *_Ptr,
; 2039 : 		size_type _Off, size_type _Count) const
; 2040 : 		{	// look for none of [_Ptr, _Ptr + _Count) at or after _Off
; 2041 :  #if _ITERATOR_DEBUG_LEVEL == 2
; 2042 : 		if (_Count != 0)
; 2043 : 			_DEBUG_POINTER(_Ptr);
; 2044 :  #endif /* _ITERATOR_DEBUG_LEVEL == 2 */
; 2045 : 
; 2046 : 		if (_Off < this->_Mysize)
; 2047 : 			{	// room for match, look for it
; 2048 : 			const _Elem *const _Vptr = this->_Myptr() + this->_Mysize;
; 2049 : 			for (const _Elem *_Uptr = this->_Myptr() + _Off;
; 2050 : 				_Uptr < _Vptr; ++_Uptr)
; 2051 : 				if (_Traits::find(_Ptr, _Count, *_Uptr) == 0)
; 2052 : 					return (_Uptr - this->_Myptr());
; 2053 : 			}
; 2054 : 		return (npos);
; 2055 : 		}
; 2056 : 
; 2057 : 	size_type find_first_not_of(const _Elem *_Ptr,
; 2058 : 		size_type _Off = 0) const
; 2059 : 		{	// look for one of [_Ptr, <null>) at or after _Off
; 2060 : 		_DEBUG_POINTER(_Ptr);
; 2061 : 		return (find_first_not_of(_Ptr, _Off, _Traits::length(_Ptr)));
; 2062 : 		}
; 2063 : 
; 2064 : 	size_type find_first_not_of(_Elem _Ch,
; 2065 : 		size_type _Off = 0) const
; 2066 : 		{	// look for non _Ch at or after _Off
; 2067 : 		return (find_first_not_of((const _Elem *)&_Ch, _Off, 1));
; 2068 : 		}
; 2069 : 
; 2070 : 	size_type find_last_not_of(const _Myt& _Right,
; 2071 : 		size_type _Off = npos) const _NOEXCEPT
; 2072 : 		{	// look for none of _Right before _Off
; 2073 : 		return (find_last_not_of(_Right._Myptr(), _Off, _Right.size()));
; 2074 : 		}
; 2075 : 
; 2076 : 	size_type find_last_not_of(const _Elem *_Ptr,
; 2077 : 		size_type _Off, size_type _Count) const
; 2078 : 		{	// look for none of [_Ptr, _Ptr + _Count) before _Off
; 2079 :  #if _ITERATOR_DEBUG_LEVEL == 2
; 2080 : 		if (_Count != 0)
; 2081 : 			_DEBUG_POINTER(_Ptr);
; 2082 :  #endif /* _ITERATOR_DEBUG_LEVEL == 2 */
; 2083 : 
; 2084 : 		if (0 < this->_Mysize)
; 2085 : 			{	// worth searching, do it
; 2086 : 			const _Elem *_Uptr = this->_Myptr()
; 2087 : 				+ (_Off < this->_Mysize ? _Off : this->_Mysize - 1);
; 2088 : 			for (; ; --_Uptr)
; 2089 : 				if (_Traits::find(_Ptr, _Count, *_Uptr) == 0)
; 2090 : 					return (_Uptr - this->_Myptr());
; 2091 : 				else if (_Uptr == this->_Myptr())
; 2092 : 					break;
; 2093 : 			}
; 2094 : 		return (npos);
; 2095 : 		}
; 2096 : 
; 2097 : 	size_type find_last_not_of(const _Elem *_Ptr,
; 2098 : 		size_type _Off = npos) const
; 2099 : 		{	// look for none of [_Ptr, <null>) before _Off
; 2100 : 		_DEBUG_POINTER(_Ptr);
; 2101 : 		return (find_last_not_of(_Ptr, _Off, _Traits::length(_Ptr)));
; 2102 : 		}
; 2103 : 
; 2104 : 	size_type find_last_not_of(_Elem _Ch,
; 2105 : 		size_type _Off = npos) const
; 2106 : 		{	// look for non _Ch before _Off
; 2107 : 		return (find_last_not_of((const _Elem *)&_Ch, _Off, 1));
; 2108 : 		}
; 2109 : 
; 2110 : 	_Myt substr(size_type _Off = 0, size_type _Count = npos) const
; 2111 : 		{	// return [_Off, _Off + _Count) as new string
; 2112 : 		return (_Myt(*this, _Off, _Count, get_allocator()));
; 2113 : 		}
; 2114 : 
; 2115 : 	int compare(const _Myt& _Right) const _NOEXCEPT
; 2116 : 		{	// compare [0, _Mysize) with _Right
; 2117 : 		return (compare(0, this->_Mysize, _Right._Myptr(), _Right.size()));
; 2118 : 		}
; 2119 : 
; 2120 : 	int compare(size_type _Off, size_type _N0,
; 2121 : 		const _Myt& _Right) const
; 2122 : 		{	// compare [_Off, _Off + _N0) with _Right
; 2123 : 		return (compare(_Off, _N0, _Right, 0, npos));
; 2124 : 		}
; 2125 : 
; 2126 : 	int compare(size_type _Off,
; 2127 : 		size_type _N0, const _Myt& _Right,
; 2128 : 		size_type _Roff, size_type _Count) const
; 2129 : 		{	// compare [_Off, _Off + _N0) with _Right [_Roff, _Roff + _Count)
; 2130 : 		if (_Right.size() < _Roff)
; 2131 : 			_Xran();	// _Off off end
; 2132 : 		if (_Right._Mysize - _Roff < _Count)
; 2133 : 			_Count = _Right._Mysize - _Roff;	// trim _Count to size
; 2134 : 		return (compare(_Off, _N0, _Right._Myptr() + _Roff, _Count));
; 2135 : 		}
; 2136 : 
; 2137 : 	int compare(const _Elem *_Ptr) const
; 2138 : 		{	// compare [0, _Mysize) with [_Ptr, <null>)
; 2139 : 		_DEBUG_POINTER(_Ptr);
; 2140 : 		return (compare(0, this->_Mysize, _Ptr, _Traits::length(_Ptr)));
; 2141 : 		}
; 2142 : 
; 2143 : 	int compare(size_type _Off, size_type _N0, const _Elem *_Ptr) const
; 2144 : 		{	// compare [_Off, _Off + _N0) with [_Ptr, <null>)
; 2145 : 		_DEBUG_POINTER(_Ptr);
; 2146 : 		return (compare(_Off, _N0, _Ptr, _Traits::length(_Ptr)));
; 2147 : 		}
; 2148 : 
; 2149 : 	int compare(size_type _Off,
; 2150 : 		size_type _N0, const _Elem *_Ptr, size_type _Count) const
; 2151 : 		{	// compare [_Off, _Off + _N0) with [_Ptr, _Ptr + _Count)
; 2152 :  #if _ITERATOR_DEBUG_LEVEL == 2
; 2153 : 		if (_Count != 0)
; 2154 : 			_DEBUG_POINTER(_Ptr);
; 2155 :  #endif /* _ITERATOR_DEBUG_LEVEL == 2 */
; 2156 : 
; 2157 : 		if (this->_Mysize < _Off)
; 2158 : 			_Xran();	// _Off off end
; 2159 : 		if (this->_Mysize - _Off < _N0)
; 2160 : 			_N0 = this->_Mysize - _Off;	// trim _N0 to size
; 2161 : 
; 2162 : 		size_type _Ans = _Traits::compare(this->_Myptr() + _Off, _Ptr,
; 2163 : 			_N0 < _Count ? _N0 : _Count);
; 2164 : 		return (_Ans != 0 ? (int)_Ans : _N0 < _Count ? -1
; 2165 : 			: _N0 == _Count ? 0 : +1);
; 2166 : 		}
; 2167 : 
; 2168 : 	allocator_type get_allocator() const _NOEXCEPT
; 2169 : 		{	// return allocator object for values
; 2170 : 		return (this->_Getal());
; 2171 : 		}
; 2172 : 
; 2173 : 	void _Chassign(size_type _Off, size_type _Count, _Elem _Ch)
; 2174 : 		{	// assign _Count copies of _Ch beginning at _Off
; 2175 : 		if (_Count == 1)
; 2176 : 			_Traits::assign(*(this->_Myptr() + _Off), _Ch);
; 2177 : 		else
; 2178 : 			_Traits::assign(this->_Myptr() + _Off, _Count, _Ch);
; 2179 : 		}
; 2180 : 
; 2181 : 	void _Copy(size_type _Newsize, size_type _Oldlen)
; 2182 : 		{	// copy _Oldlen elements to newly allocated buffer
; 2183 : 		size_type _Newres = _Newsize | this->_ALLOC_MASK;
; 2184 : 		if (max_size() < _Newres)
; 2185 : 			_Newres = _Newsize;	// undo roundup if too big
; 2186 : 		else if (this->_Myres / 2 <= _Newres / 3)
; 2187 : 			;
; 2188 : 		else if (this->_Myres <= max_size() - this->_Myres / 2)
; 2189 : 			_Newres = this->_Myres
; 2190 : 				+ this->_Myres / 2;	// grow exponentially if possible
; 2191 : 		else
; 2192 : 			_Newres = max_size();	// settle for max_size()
; 2193 : 
; 2194 : 		_Elem *_Ptr;
; 2195 : 		_TRY_BEGIN
; 2196 : 			_Ptr = this->_Getal().allocate(_Newres + 1);
; 2197 : 		_CATCH_ALL
; 2198 : 			_Newres = _Newsize;	// allocation failed, undo roundup and retry
; 2199 : 			_TRY_BEGIN
; 2200 : 				_Ptr = this->_Getal().allocate(_Newres + 1);
; 2201 : 			_CATCH_ALL
; 2202 : 			_Tidy(true);	// failed again, discard storage and reraise
; 2203 : 			_RERAISE;
; 2204 : 			_CATCH_END
; 2205 : 		_CATCH_END
; 2206 : 
; 2207 : 		if (0 < _Oldlen)
; 2208 : 			_Traits::copy(_Ptr, this->_Myptr(),
; 2209 : 				_Oldlen);	// copy existing elements
; 2210 : 		_Tidy(true);
; 2211 : 		this->_Getal().construct(&this->_Bx._Ptr, _Ptr);
; 2212 : 		this->_Myres = _Newres;
; 2213 : 		_Eos(_Oldlen);
; 2214 : 		}
; 2215 : 
; 2216 : 	void _Eos(size_type _Newsize)
; 2217 : 		{	// set new length and null terminator
; 2218 : 		_Traits::assign(this->_Myptr()[this->_Mysize = _Newsize], _Elem());

  00015	c7 46 10 00 00
	00 00		 mov	 DWORD PTR [esi+16], 0

; 517  : 			: this->_Bx._Buf);

  0001c	72 0d		 jb	 SHORT $LN14@erase
; File c:\program files (x86)\microsoft visual studio 11.0\vc\include\xstddef

; 88   : 		reinterpret_cast<const volatile char&>(_Val)))));

  0001e	8b 06		 mov	 eax, DWORD PTR [esi]
  00020	5f		 pop	 edi
; File c:\program files (x86)\microsoft visual studio 11.0\vc\include\iosfwd

; 564  : 		_Left = _Right;

  00021	c6 00 00	 mov	 BYTE PTR [eax], 0
; File c:\program files (x86)\microsoft visual studio 11.0\vc\include\xstring

; 1329 : 		return (*this);

  00024	8b c6		 mov	 eax, esi
  00026	5e		 pop	 esi

; 1330 : 		}

  00027	5d		 pop	 ebp
  00028	c2 08 00	 ret	 8
$LN14@erase:

; 517  : 			: this->_Bx._Buf);

  0002b	8b c6		 mov	 eax, esi
  0002d	5f		 pop	 edi
; File c:\program files (x86)\microsoft visual studio 11.0\vc\include\iosfwd

; 564  : 		_Left = _Right;

  0002e	c6 00 00	 mov	 BYTE PTR [eax], 0
  00031	5e		 pop	 esi
; File c:\program files (x86)\microsoft visual studio 11.0\vc\include\xstring

; 1330 : 		}

  00032	5d		 pop	 ebp
  00033	c2 08 00	 ret	 8
$LN3@erase:

; 1321 : 			_Eos(_Off);	// erase elements [_Off, ...)
; 1322 : 		else if (0 < _Count)

  00036	85 c0		 test	 eax, eax
  00038	74 37		 je	 SHORT $LN40@erase

; 517  : 			: this->_Bx._Buf);

  0003a	83 7e 14 10	 cmp	 DWORD PTR [esi+20], 16	; 00000010H
  0003e	72 02		 jb	 SHORT $LN23@erase
; File c:\program files (x86)\microsoft visual studio 11.0\vc\include\xstddef

; 88   : 		reinterpret_cast<const volatile char&>(_Val)))));

  00040	8b 0e		 mov	 ecx, DWORD PTR [esi]
$LN23@erase:
; File c:\program files (x86)\microsoft visual studio 11.0\vc\include\xstring

; 1325 : 			size_type _Newsize = this->_Mysize - _Count;

  00042	2b f8		 sub	 edi, eax
; File c:\program files (x86)\microsoft visual studio 11.0\vc\include\iosfwd

; 553  : 			: (_Elem *)_CSTD memmove(_First1, _First2, _Count));

  00044	74 0e		 je	 SHORT $LN29@erase
  00046	57		 push	 edi
; File c:\program files (x86)\microsoft visual studio 11.0\vc\include\xstring

; 1326 : 			_Traits::move(_Ptr, _Ptr + _Count, _Newsize - _Off);

  00047	03 c1		 add	 eax, ecx
; File c:\program files (x86)\microsoft visual studio 11.0\vc\include\iosfwd

; 553  : 			: (_Elem *)_CSTD memmove(_First1, _First2, _Count));

  00049	50		 push	 eax
  0004a	51		 push	 ecx
  0004b	ff 15 00 00 00
	00		 call	 DWORD PTR __imp__memmove
  00051	83 c4 0c	 add	 esp, 12			; 0000000cH
$LN29@erase:
; File c:\program files (x86)\microsoft visual studio 11.0\vc\include\xstring

; 517  : 			: this->_Bx._Buf);

  00054	83 7e 14 10	 cmp	 DWORD PTR [esi+20], 16	; 00000010H

; 1331 : 
; 1332 : 	iterator erase(const_iterator _Where)
; 1333 : 		{	// erase element at _Where
; 1334 : 		size_type _Count = _Pdif(_Where, begin());
; 1335 : 		erase(_Count, 1);
; 1336 : 		return (_STRING_ITERATOR(this->_Myptr() + _Count));
; 1337 : 		}
; 1338 : 
; 1339 : 	iterator erase(const_iterator _First, const_iterator _Last)
; 1340 : 		{	// erase substring [_First, _Last)
; 1341 : 		_DEBUG_RANGE(_First, _Last);
; 1342 : 		size_type _Count = _Pdif(_First, begin());
; 1343 : 		erase(_Count, _Pdif(_Last, _First));
; 1344 : 		return (_STRING_ITERATOR(this->_Myptr() + _Count));
; 1345 : 		}
; 1346 : 
; 1347 : 	void clear() _NOEXCEPT
; 1348 : 		{	// erase all
; 1349 : 		_Eos(0);
; 1350 : 		}
; 1351 : 
; 1352 : 	_Myt& replace(size_type _Off, size_type _N0, const _Myt& _Right)
; 1353 : 		{	// replace [_Off, _Off + _N0) with _Right
; 1354 : 		return (replace(_Off, _N0, _Right, 0, npos));
; 1355 : 		}
; 1356 : 
; 1357 : 	_Myt& replace(size_type _Off,
; 1358 : 		size_type _N0, const _Myt& _Right, size_type _Roff, size_type _Count)
; 1359 : 		{	// replace [_Off, _Off + _N0) with _Right [_Roff, _Roff + _Count)
; 1360 : 		if (this->_Mysize < _Off || _Right.size() < _Roff)
; 1361 : 			_Xran();	// _Off or _Roff off end
; 1362 : 		if (this->_Mysize - _Off < _N0)
; 1363 : 			_N0 = this->_Mysize - _Off;	// trim _N0 to size
; 1364 : 		size_type _Num = _Right.size() - _Roff;
; 1365 : 		if (_Num < _Count)
; 1366 : 			_Count = _Num;	// trim _Count to size
; 1367 : 		if (npos - _Count <= this->_Mysize - _N0)
; 1368 : 			_Xlen();	// result too long
; 1369 : 
; 1370 : 		size_type _Nm = this->_Mysize - _N0 - _Off;	// length of kept tail
; 1371 : 		size_type _Newsize = this->_Mysize + _Count - _N0;
; 1372 : 		if (this->_Mysize < _Newsize)
; 1373 : 			_Grow(_Newsize);
; 1374 : 
; 1375 : 		if (this != &_Right)
; 1376 : 			{	// no overlap, just move down and copy in new stuff
; 1377 : 			_Traits::move(this->_Myptr() + _Off + _Count,
; 1378 : 				this->_Myptr() + _Off + _N0, _Nm);	// empty hole
; 1379 : 			_Traits::copy(this->_Myptr() + _Off,
; 1380 : 				_Right._Myptr() + _Roff, _Count);	// fill hole
; 1381 : 			}
; 1382 : 		else if (_Count <= _N0)
; 1383 : 			{	// hole doesn't get larger, just copy in substring
; 1384 : 			_Traits::move(this->_Myptr() + _Off,
; 1385 : 				this->_Myptr() + _Roff, _Count);	// fill hole
; 1386 : 			_Traits::move(this->_Myptr() + _Off + _Count,
; 1387 : 				this->_Myptr() + _Off + _N0, _Nm);	// move tail down
; 1388 : 			}
; 1389 : 		else if (_Roff <= _Off)
; 1390 : 			{	// hole gets larger, substring begins before hole
; 1391 : 			_Traits::move(this->_Myptr() + _Off + _Count,
; 1392 : 				this->_Myptr() + _Off + _N0, _Nm);	// move tail down
; 1393 : 			_Traits::move(this->_Myptr() + _Off,
; 1394 : 				this->_Myptr() + _Roff, _Count);	// fill hole
; 1395 : 			}
; 1396 : 		else if (_Off + _N0 <= _Roff)
; 1397 : 			{	// hole gets larger, substring begins after hole
; 1398 : 			_Traits::move(this->_Myptr() + _Off + _Count,
; 1399 : 				this->_Myptr() + _Off + _N0, _Nm);	// move tail down
; 1400 : 			_Traits::move(this->_Myptr() + _Off,
; 1401 : 				this->_Myptr() + (_Roff + _Count - _N0),
; 1402 : 				_Count);	// fill hole
; 1403 : 			}
; 1404 : 		else
; 1405 : 			{	// hole gets larger, substring begins in hole
; 1406 : 			_Traits::move(this->_Myptr() + _Off,
; 1407 : 				this->_Myptr() + _Roff, _N0);	// fill old hole
; 1408 : 			_Traits::move(this->_Myptr() + _Off + _Count,
; 1409 : 				this->_Myptr() + _Off + _N0, _Nm);	// move tail down
; 1410 : 			_Traits::move(this->_Myptr() + _Off + _N0,
; 1411 : 				this->_Myptr() + _Roff + _Count,
; 1412 : 				_Count - _N0);	// fill rest of new hole
; 1413 : 			}
; 1414 : 
; 1415 : 		_Eos(_Newsize);
; 1416 : 		return (*this);
; 1417 : 		}
; 1418 : 
; 1419 : 	_Myt& replace(size_type _Off,
; 1420 : 		size_type _N0, const _Elem *_Ptr, size_type _Count)
; 1421 : 		{	// replace [_Off, _Off + _N0) with [_Ptr, _Ptr + _Count)
; 1422 :  #if _ITERATOR_DEBUG_LEVEL == 2
; 1423 : 		if (_Count != 0)
; 1424 : 			_DEBUG_POINTER(_Ptr);
; 1425 :  #endif /* _ITERATOR_DEBUG_LEVEL == 2 */
; 1426 : 
; 1427 : 		if (_Inside(_Ptr))
; 1428 : 			return (replace(_Off, _N0, *this,
; 1429 : 				_Ptr - this->_Myptr(),
; 1430 : 				_Count));	// substring, replace carefully
; 1431 : 		if (this->_Mysize < _Off)
; 1432 : 			_Xran();	// _Off off end
; 1433 : 		if (this->_Mysize - _Off < _N0)
; 1434 : 			_N0 = this->_Mysize - _Off;	// trim _N0 to size
; 1435 : 		if (npos - _Count <= this->_Mysize - _N0)
; 1436 : 			_Xlen();	// result too long
; 1437 : 		size_type _Nm = this->_Mysize - _N0 - _Off;
; 1438 : 
; 1439 : 		if (_Count < _N0)
; 1440 : 			_Traits::move(this->_Myptr() + _Off + _Count,
; 1441 : 				this->_Myptr() + _Off + _N0,
; 1442 : 				_Nm);	// smaller hole, move tail up
; 1443 : 		size_type _Num;
; 1444 : 		if ((0 < _Count || 0 < _N0)
; 1445 : 			&& _Grow(_Num = this->_Mysize + _Count - _N0))
; 1446 : 			{	// make room and rearrange
; 1447 : 			if (_N0 < _Count)
; 1448 : 				_Traits::move(this->_Myptr() + _Off + _Count,
; 1449 : 					this->_Myptr() + _Off + _N0, _Nm);	// move tail down
; 1450 : 			_Traits::copy(this->_Myptr() + _Off, _Ptr, _Count);	// fill hole
; 1451 : 			_Eos(_Num);
; 1452 : 			}
; 1453 : 		return (*this);
; 1454 : 		}
; 1455 : 
; 1456 : 	_Myt& replace(size_type _Off, size_type _N0, const _Elem *_Ptr)
; 1457 : 		{	// replace [_Off, _Off + _N0) with [_Ptr, <null>)
; 1458 : 		_DEBUG_POINTER(_Ptr);
; 1459 : 		return (replace(_Off, _N0, _Ptr, _Traits::length(_Ptr)));
; 1460 : 		}
; 1461 : 
; 1462 : 	_Myt& replace(size_type _Off,
; 1463 : 		size_type _N0, size_type _Count, _Elem _Ch)
; 1464 : 		{	// replace [_Off, _Off + _N0) with _Count * _Ch
; 1465 : 		if (this->_Mysize < _Off)
; 1466 : 			_Xran();	// _Off off end
; 1467 : 		if (this->_Mysize - _Off < _N0)
; 1468 : 			_N0 = this->_Mysize - _Off;	// trim _N0 to size
; 1469 : 		if (npos - _Count <= this->_Mysize - _N0)
; 1470 : 			_Xlen();	// result too long
; 1471 : 		size_type _Nm = this->_Mysize - _N0 - _Off;
; 1472 : 
; 1473 : 		if (_Count < _N0)
; 1474 : 			_Traits::move(this->_Myptr() + _Off + _Count,
; 1475 : 				this->_Myptr() + _Off + _N0,
; 1476 : 				_Nm);	// smaller hole, move tail up
; 1477 : 		size_type _Num;
; 1478 : 		if ((0 < _Count || 0 < _N0)
; 1479 : 			&& _Grow(_Num = this->_Mysize + _Count - _N0))
; 1480 : 			{	// make room and rearrange
; 1481 : 			if (_N0 < _Count)
; 1482 : 				_Traits::move(this->_Myptr() + _Off + _Count,
; 1483 : 					this->_Myptr() + _Off + _N0, _Nm);	// move tail down
; 1484 : 			_Chassign(_Off, _Count, _Ch);	// fill hole
; 1485 : 			_Eos(_Num);
; 1486 : 			}
; 1487 : 		return (*this);
; 1488 : 		}
; 1489 : 
; 1490 : 	_Myt& replace(const_iterator _First, const_iterator _Last,
; 1491 : 		const _Myt& _Right)
; 1492 : 		{	// replace [_First, _Last) with _Right
; 1493 : 		return (replace(
; 1494 : 			_Pdif(_First, begin()), _Pdif(_Last, _First), _Right));
; 1495 : 		}
; 1496 : 
; 1497 : 	_Myt& replace(const_iterator _First, const_iterator _Last,
; 1498 : 		const _Elem *_Ptr, size_type _Count)
; 1499 : 		{	// replace [_First, _Last) with [_Ptr, _Ptr + _Count)
; 1500 : 		return (replace(
; 1501 : 			_Pdif(_First, begin()), _Pdif(_Last, _First), _Ptr, _Count));
; 1502 : 		}
; 1503 : 
; 1504 : 	_Myt& replace(const_iterator _First, const_iterator _Last,
; 1505 : 		const _Elem *_Ptr)
; 1506 : 		{	// replace [_First, _Last) with [_Ptr, <null>)
; 1507 : 		return (replace(
; 1508 : 			_Pdif(_First, begin()), _Pdif(_Last, _First), _Ptr));
; 1509 : 		}
; 1510 : 
; 1511 : 	_Myt& replace(const_iterator _First, const_iterator _Last,
; 1512 : 		size_type _Count, _Elem _Ch)
; 1513 : 		{	// replace [_First, _Last) with _Count * _Ch
; 1514 : 		return (replace(
; 1515 : 			_Pdif(_First, begin()), _Pdif(_Last, _First), _Count, _Ch));
; 1516 : 		}
; 1517 : 
; 1518 : 	template<class _Iter>
; 1519 : 		typename enable_if<_Is_iterator<_Iter>::value,
; 1520 : 			_Myt&>::type
; 1521 : 		replace(const_iterator _First, const_iterator _Last,
; 1522 : 			_Iter _First2, _Iter _Last2)
; 1523 : 		{	// replace [_First, _Last) with [_First2, _Last2), input iterators
; 1524 : 		_Myt _Right(_First2, _Last2);
; 1525 : 		replace(_First, _Last, _Right);
; 1526 : 		return (*this);
; 1527 : 		}
; 1528 : 
; 1529 : 	_Myt& replace(const_iterator _First, const_iterator _Last,
; 1530 : 		const_pointer _First2, const_pointer _Last2)
; 1531 : 		{	// replace [_First, _Last) with [_First2, _Last2), const pointers
; 1532 : 		if (_First2 == _Last2)
; 1533 : 			erase(_Pdif(_First, begin()), _Pdif(_Last, _First));
; 1534 : 		else
; 1535 : 			replace(_Pdif(_First, begin()), _Pdif(_Last, _First),
; 1536 : 				&*_First2, _Last2 - _First2);
; 1537 : 		return (*this);
; 1538 : 		}
; 1539 : 
; 1540 : 	_Myt& replace(const_iterator _First, const_iterator _Last,
; 1541 : 		pointer _First2, pointer _Last2)
; 1542 : 		{	// replace [_First, _Last) with [_First2, _Last2), const pointers
; 1543 : 		if (_First2 == _Last2)
; 1544 : 			erase(_Pdif(_First, begin()), _Pdif(_Last, _First));
; 1545 : 		else
; 1546 : 			replace(_Pdif(_First, begin()), _Pdif(_Last, _First),
; 1547 : 				&*_First2, _Last2 - _First2);
; 1548 : 		return (*this);
; 1549 : 		}
; 1550 : 
; 1551 : 	_Myt& replace(const_iterator _First, const_iterator _Last,
; 1552 : 		const_iterator _First2, const_iterator _Last2)
; 1553 : 		{	// replace [_First, _Last) with [_First2, _Last2), const_iterators
; 1554 : 		if (_First2 == _Last2)
; 1555 : 			erase(_Pdif(_First, begin()), _Pdif(_Last, _First));
; 1556 : 		else
; 1557 : 			replace(_Pdif(_First, begin()), _Pdif(_Last, _First),
; 1558 : 				&*_First2, _Last2 - _First2);
; 1559 : 		return (*this);
; 1560 : 		}
; 1561 : 
; 1562 : 	_Myt& replace(const_iterator _First, const_iterator _Last,
; 1563 : 		iterator _First2, iterator _Last2)
; 1564 : 		{	// replace [_First, _Last) with [_First2, _Last2), const_iterators
; 1565 : 		if (_First2 == _Last2)
; 1566 : 			erase(_Pdif(_First, begin()), _Pdif(_Last, _First));
; 1567 : 		else
; 1568 : 			replace(_Pdif(_First, begin()), _Pdif(_Last, _First),
; 1569 : 				&*_First2, _Last2 - _First2);
; 1570 : 		return (*this);
; 1571 : 		}
; 1572 : 
; 1573 : 	iterator begin() _NOEXCEPT
; 1574 : 		{	// return iterator for beginning of mutable sequence
; 1575 : 		return (_STRING_ITERATOR(this->_Myptr()));
; 1576 : 		}
; 1577 : 
; 1578 : 	const_iterator begin() const _NOEXCEPT
; 1579 : 		{	// return iterator for beginning of nonmutable sequence
; 1580 : 		return (_STRING_CONST_ITERATOR(this->_Myptr()));
; 1581 : 		}
; 1582 : 
; 1583 : 	iterator end() _NOEXCEPT
; 1584 : 		{	// return iterator for end of mutable sequence
; 1585 : 		return (_STRING_ITERATOR(this->_Myptr() + this->_Mysize));
; 1586 : 		}
; 1587 : 
; 1588 : 	const_iterator end() const _NOEXCEPT
; 1589 : 		{	// return iterator for end of nonmutable sequence
; 1590 : 		return (_STRING_CONST_ITERATOR(this->_Myptr() + this->_Mysize));
; 1591 : 		}
; 1592 : 
; 1593 : 	reverse_iterator rbegin() _NOEXCEPT
; 1594 : 		{	// return iterator for beginning of reversed mutable sequence
; 1595 : 		return (reverse_iterator(end()));
; 1596 : 		}
; 1597 : 
; 1598 : 	const_reverse_iterator rbegin() const _NOEXCEPT
; 1599 : 		{	// return iterator for beginning of reversed nonmutable sequence
; 1600 : 		return (const_reverse_iterator(end()));
; 1601 : 		}
; 1602 : 
; 1603 : 	reverse_iterator rend() _NOEXCEPT
; 1604 : 		{	// return iterator for end of reversed mutable sequence
; 1605 : 		return (reverse_iterator(begin()));
; 1606 : 		}
; 1607 : 
; 1608 : 	const_reverse_iterator rend() const _NOEXCEPT
; 1609 : 		{	// return iterator for end of reversed nonmutable sequence
; 1610 : 		return (const_reverse_iterator(begin()));
; 1611 : 		}
; 1612 : 
; 1613 :  #if _HAS_CPP0X
; 1614 : 	const_iterator cbegin() const _NOEXCEPT
; 1615 : 		{	// return iterator for beginning of nonmutable sequence
; 1616 : 		return (((const _Myt *)this)->begin());
; 1617 : 		}
; 1618 : 
; 1619 : 	const_iterator cend() const _NOEXCEPT
; 1620 : 		{	// return iterator for end of nonmutable sequence
; 1621 : 		return (((const _Myt *)this)->end());
; 1622 : 		}
; 1623 : 
; 1624 : 	const_reverse_iterator crbegin() const _NOEXCEPT
; 1625 : 		{	// return iterator for beginning of reversed nonmutable sequence
; 1626 : 		return (((const _Myt *)this)->rbegin());
; 1627 : 		}
; 1628 : 
; 1629 : 	const_reverse_iterator crend() const _NOEXCEPT
; 1630 : 		{	// return iterator for end of reversed nonmutable sequence
; 1631 : 		return (((const _Myt *)this)->rend());
; 1632 : 		}
; 1633 : 
; 1634 : 	void shrink_to_fit()
; 1635 : 		{	// reduce capacity
; 1636 : 		if ((size() | this->_ALLOC_MASK) < capacity())
; 1637 : 			{	// worth shrinking, do it
; 1638 : 			_Myt _Tmp(*this);
; 1639 : 			swap(_Tmp);
; 1640 : 			}
; 1641 : 		}
; 1642 :  #endif /* _HAS_CPP0X */
; 1643 : 
; 1644 : 	reference at(size_type _Off)
; 1645 : 		{	// subscript mutable sequence with checking
; 1646 : 		if (this->_Mysize <= _Off)
; 1647 : 			_Xran();	// _Off off end
; 1648 : 		return (this->_Myptr()[_Off]);
; 1649 : 		}
; 1650 : 
; 1651 : 	const_reference at(size_type _Off) const
; 1652 : 		{	// subscript nonmutable sequence with checking
; 1653 : 		if (this->_Mysize <= _Off)
; 1654 : 			_Xran();	// _Off off end
; 1655 : 		return (this->_Myptr()[_Off]);
; 1656 : 		}
; 1657 : 
; 1658 : 	reference operator[](size_type _Off)
; 1659 : 		{	// subscript mutable sequence
; 1660 :  #if _ITERATOR_DEBUG_LEVEL == 2
; 1661 : 		if (this->_Mysize < _Off)	// sic
; 1662 : 			_DEBUG_ERROR("string subscript out of range");
; 1663 : 
; 1664 :  #elif _ITERATOR_DEBUG_LEVEL == 1
; 1665 : 		_SCL_SECURE_VALIDATE_RANGE(_Off <= this->_Mysize);	// sic
; 1666 :  #endif /* _ITERATOR_DEBUG_LEVEL == 2 */
; 1667 : 
; 1668 : 		return (this->_Myptr()[_Off]);
; 1669 : 		}
; 1670 : 
; 1671 : 	const_reference operator[](size_type _Off) const
; 1672 : 		{	// subscript nonmutable sequence
; 1673 :  #if _ITERATOR_DEBUG_LEVEL == 2
; 1674 : 		if (this->_Mysize < _Off)	// sic
; 1675 : 			_DEBUG_ERROR("string subscript out of range");
; 1676 : 
; 1677 :  #elif _ITERATOR_DEBUG_LEVEL == 1
; 1678 : 		_SCL_SECURE_VALIDATE_RANGE(_Off <= this->_Mysize);	// sic
; 1679 :  #endif /* _ITERATOR_DEBUG_LEVEL == 2 */
; 1680 : 
; 1681 : 		return (this->_Myptr()[_Off]);
; 1682 : 		}
; 1683 : 
; 1684 : 	void push_back(_Elem _Ch)
; 1685 : 		{	// insert element at end
; 1686 : 		insert(end(), _Ch);
; 1687 : 		}
; 1688 : 
; 1689 :  #if _HAS_CPP0X
; 1690 : 	void pop_back()
; 1691 : 		{	// erase element at end
; 1692 : 		erase(this->_Mysize - 1);	// throws if _Mysize == 0
; 1693 : 		}
; 1694 : 
; 1695 : 	reference front()
; 1696 : 		{	// return first element of mutable sequence
; 1697 : 		return (*begin());
; 1698 : 		}
; 1699 : 
; 1700 : 	const_reference front() const
; 1701 : 		{	// return first element of nonmutable sequence
; 1702 : 		return (*begin());
; 1703 : 		}
; 1704 : 
; 1705 : 	reference back()
; 1706 : 		{	// return last element of mutable sequence
; 1707 : 		return (*(end() - 1));
; 1708 : 		}
; 1709 : 
; 1710 : 	const_reference back() const
; 1711 : 		{	// return last element of nonmutable sequence
; 1712 : 		return (*(end() - 1));
; 1713 : 		}
; 1714 :  #endif /* _HAS_CPP0X */
; 1715 : 
; 1716 : 	const _Elem *c_str() const _NOEXCEPT
; 1717 : 		{	// return pointer to null-terminated nonmutable array
; 1718 : 		return (this->_Myptr());
; 1719 : 		}
; 1720 : 
; 1721 : 	const _Elem *data() const _NOEXCEPT
; 1722 : 		{	// return pointer to nonmutable array
; 1723 : 		return (c_str());
; 1724 : 		}
; 1725 : 
; 1726 : 	size_type length() const _NOEXCEPT
; 1727 : 		{	// return length of sequence
; 1728 : 		return (this->_Mysize);
; 1729 : 		}
; 1730 : 
; 1731 : 	size_type size() const _NOEXCEPT
; 1732 : 		{	// return length of sequence
; 1733 : 		return (this->_Mysize);
; 1734 : 		}
; 1735 : 
; 1736 : 	size_type max_size() const _NOEXCEPT
; 1737 : 		{	// return maximum possible length of sequence
; 1738 : 		size_type _Num = this->_Getal().max_size();
; 1739 : 		return (_Num <= 1 ? 1 : _Num - 1);
; 1740 : 		}
; 1741 : 
; 1742 : 	void resize(size_type _Newsize)
; 1743 : 		{	// determine new length, padding with null elements as needed
; 1744 : 		resize(_Newsize, _Elem());
; 1745 : 		}
; 1746 : 
; 1747 : 	void resize(size_type _Newsize, _Elem _Ch)
; 1748 : 		{	// determine new length, padding with _Ch elements as needed
; 1749 : 		if (_Newsize <= this->_Mysize)
; 1750 : 			_Eos(_Newsize);
; 1751 : 		else
; 1752 : 			append(_Newsize - this->_Mysize, _Ch);
; 1753 : 		}
; 1754 : 
; 1755 : 	size_type capacity() const _NOEXCEPT
; 1756 : 		{	// return current length of allocated storage
; 1757 : 		return (this->_Myres);
; 1758 : 		}
; 1759 : 
; 1760 : 	void reserve(size_type _Newcap = 0)
; 1761 : 		{	// determine new minimum length of allocated storage
; 1762 : 		if (this->_Mysize <= _Newcap && this->_Myres != _Newcap)
; 1763 : 			{	// change reservation
; 1764 : 			size_type _Size = this->_Mysize;
; 1765 : 			if (_Grow(_Newcap, true))
; 1766 : 				_Eos(_Size);
; 1767 : 			}
; 1768 : 		}
; 1769 : 
; 1770 : 	bool empty() const _NOEXCEPT
; 1771 : 		{	// test if sequence is empty
; 1772 : 		return (this->_Mysize == 0);
; 1773 : 		}
; 1774 : 
; 1775 : 	_SCL_INSECURE_DEPRECATE
; 1776 : 
; 1777 : 	size_type copy(_Elem *_Ptr,
; 1778 : 		size_type _Count, size_type _Off = 0) const
; 1779 : 		{	// copy [_Off, _Off + _Count) to [_Ptr, _Ptr + _Count)
; 1780 :  #if _ITERATOR_DEBUG_LEVEL == 2
; 1781 : 		if (_Count != 0)
; 1782 : 			_DEBUG_POINTER(_Ptr);
; 1783 :  #endif /* _ITERATOR_DEBUG_LEVEL == 2 */
; 1784 : 
; 1785 : 		if (this->_Mysize < _Off)
; 1786 : 			_Xran();	// _Off off end
; 1787 : 		if (this->_Mysize - _Off < _Count)
; 1788 : 			_Count = this->_Mysize - _Off;
; 1789 : 		_Traits::copy(_Ptr, this->_Myptr() + _Off, _Count);
; 1790 : 		return (_Count);
; 1791 : 		}
; 1792 : 
; 1793 : 	size_type _Copy_s(_Elem *_Dest, size_type _Dest_size,
; 1794 : 		size_type _Count, size_type _Off = 0) const
; 1795 : 		{	// copy [_Off, _Off + _Count) to [_Dest, _Dest + _Count)
; 1796 :  #if _ITERATOR_DEBUG_LEVEL == 2
; 1797 : 		if (_Count != 0)
; 1798 : 			_DEBUG_POINTER(_Dest);
; 1799 :  #endif /* _ITERATOR_DEBUG_LEVEL == 2 */
; 1800 : 
; 1801 : 		if (this->_Mysize < _Off)
; 1802 : 			_Xran();	// _Off off end
; 1803 : 		if (this->_Mysize - _Off < _Count)
; 1804 : 			_Count = this->_Mysize - _Off;
; 1805 : 		_Traits::_Copy_s(_Dest, _Dest_size, this->_Myptr() + _Off, _Count);
; 1806 : 		return (_Count);
; 1807 : 		}
; 1808 : 
; 1809 : 	void _Swap_bx(_Myt& _Right)
; 1810 : 		{	// exchange _Bx with _Right._Bx
; 1811 : 		if (this->_BUF_SIZE <= this->_Myres)
; 1812 : 			if (this->_BUF_SIZE <= _Right._Myres)
; 1813 : 				_Swap_adl(this->_Bx._Ptr, _Right._Bx._Ptr);
; 1814 : 			else
; 1815 : 				{	// swap large with small
; 1816 : 				pointer _Ptr = this->_Bx._Ptr;
; 1817 : 				this->_Getal().destroy(&this->_Bx._Ptr);
; 1818 : 				_Traits::copy(this->_Bx._Buf,
; 1819 : 					_Right._Bx._Buf, _Right._Mysize + 1);
; 1820 : 				this->_Getal().construct(&_Right._Bx._Ptr, _Ptr);
; 1821 : 				}
; 1822 : 		else
; 1823 : 			if (_Right._Myres < this->_BUF_SIZE)
; 1824 : 				_STD swap(this->_Bx._Buf, _Right._Bx._Buf);
; 1825 : 			else
; 1826 : 				{	// swap small with large
; 1827 : 				pointer _Ptr = _Right._Bx._Ptr;
; 1828 : 				this->_Getal().destroy(&_Right._Bx._Ptr);
; 1829 : 				_Traits::copy(_Right._Bx._Buf,
; 1830 : 					this->_Bx._Buf, this->_Mysize + 1);
; 1831 : 				this->_Getal().construct(&this->_Bx._Ptr, _Ptr);
; 1832 : 				}
; 1833 : 		}
; 1834 : 
; 1835 : 	void swap(_Myt& _Right)
; 1836 : 		{	// exchange contents with _Right
; 1837 : 		if (this == &_Right)
; 1838 : 			;	// same object, do nothing
; 1839 : 		else if (this->_Getal() == _Right._Getal())
; 1840 : 			{	// same allocator, swap control information
; 1841 : 			this->_Swap_all(_Right);
; 1842 : 			_Swap_bx(_Right);
; 1843 : 			_STD swap(this->_Mysize, _Right._Mysize);
; 1844 : 			_STD swap(this->_Myres, _Right._Myres);
; 1845 : 			}
; 1846 : 
; 1847 :  #if _HAS_CPP0X
; 1848 : 		else if (_Alty::propagate_on_container_swap::value)
; 1849 : 			{	// swap allocators and control information
; 1850 : 			this->_Swap_alloc(_Right);
; 1851 : 			_Swap_bx(_Right);
; 1852 : 			_STD swap(this->_Bx, _Right._Bx);	// pointer bitwise copyable?
; 1853 : 			_STD swap(this->_Mysize, _Right._Mysize);
; 1854 : 			_STD swap(this->_Myres, _Right._Myres);
; 1855 : 			}
; 1856 :  #endif /* _HAS_CPP0X */
; 1857 : 
; 1858 : 		else
; 1859 : 			{	// different allocator, do multiple assigns
; 1860 : 			_Myt _Tmp = *this;
; 1861 : 
; 1862 : 			*this = _Right;
; 1863 : 			_Right = _Tmp;
; 1864 : 			}
; 1865 : 		}
; 1866 : 
; 1867 : 	size_type find(const _Myt& _Right, size_type _Off = 0) const _NOEXCEPT
; 1868 : 		{	// look for _Right beginning at or after _Off
; 1869 : 		return (find(_Right._Myptr(), _Off, _Right.size()));
; 1870 : 		}
; 1871 : 
; 1872 : 	size_type find(const _Elem *_Ptr,
; 1873 : 		size_type _Off, size_type _Count) const
; 1874 : 		{	// look for [_Ptr, _Ptr + _Count) beginning at or after _Off
; 1875 :  #if _ITERATOR_DEBUG_LEVEL == 2
; 1876 : 		if (_Count != 0)
; 1877 : 			_DEBUG_POINTER(_Ptr);
; 1878 :  #endif /* _ITERATOR_DEBUG_LEVEL == 2 */
; 1879 : 
; 1880 : 		if (_Count == 0 && _Off <= this->_Mysize)
; 1881 : 			return (_Off);	// null string always matches (if inside string)
; 1882 : 
; 1883 : 		size_type _Nm;
; 1884 : 		if (_Off < this->_Mysize && _Count <= (_Nm = this->_Mysize - _Off))
; 1885 : 			{	// room for match, look for it
; 1886 : 			const _Elem *_Uptr, *_Vptr;
; 1887 : 			for (_Nm -= _Count - 1, _Vptr = this->_Myptr() + _Off;
; 1888 : 				(_Uptr = _Traits::find(_Vptr, _Nm, *_Ptr)) != 0;
; 1889 : 				_Nm -= _Uptr - _Vptr + 1, _Vptr = _Uptr + 1)
; 1890 : 				if (_Traits::compare(_Uptr, _Ptr, _Count) == 0)
; 1891 : 					return (_Uptr - this->_Myptr());	// found a match
; 1892 : 			}
; 1893 : 
; 1894 : 		return (npos);	// no match
; 1895 : 		}
; 1896 : 
; 1897 : 	size_type find(const _Elem *_Ptr, size_type _Off = 0) const
; 1898 : 		{	// look for [_Ptr, <null>) beginning at or after _Off
; 1899 : 		_DEBUG_POINTER(_Ptr);
; 1900 : 		return (find(_Ptr, _Off, _Traits::length(_Ptr)));
; 1901 : 		}
; 1902 : 
; 1903 : 	size_type find(_Elem _Ch, size_type _Off = 0) const
; 1904 : 		{	// look for _Ch at or after _Off
; 1905 : 		return (find((const _Elem *)&_Ch, _Off, 1));
; 1906 : 		}
; 1907 : 
; 1908 : 	size_type rfind(const _Myt& _Right, size_type _Off = npos) const _NOEXCEPT
; 1909 : 		{	// look for _Right beginning before _Off
; 1910 : 		return (rfind(_Right._Myptr(), _Off, _Right.size()));
; 1911 : 		}
; 1912 : 
; 1913 : 	size_type rfind(const _Elem *_Ptr,
; 1914 : 		size_type _Off, size_type _Count) const
; 1915 : 		{	// look for [_Ptr, _Ptr + _Count) beginning before _Off
; 1916 :  #if _ITERATOR_DEBUG_LEVEL == 2
; 1917 : 		if (_Count != 0)
; 1918 : 			_DEBUG_POINTER(_Ptr);
; 1919 :  #endif /* _ITERATOR_DEBUG_LEVEL == 2 */
; 1920 : 
; 1921 : 		if (_Count == 0)
; 1922 : 			return (_Off < this->_Mysize ? _Off
; 1923 : 				: this->_Mysize);	// null always matches
; 1924 : 		if (_Count <= this->_Mysize)
; 1925 : 			{	// room for match, look for it
; 1926 : 			const _Elem *_Uptr = this->_Myptr() +
; 1927 : 				(_Off < this->_Mysize - _Count ? _Off
; 1928 : 					: this->_Mysize - _Count);
; 1929 : 			for (; ; --_Uptr)
; 1930 : 				if (_Traits::eq(*_Uptr, *_Ptr)
; 1931 : 					&& _Traits::compare(_Uptr, _Ptr, _Count) == 0)
; 1932 : 					return (_Uptr - this->_Myptr());	// found a match
; 1933 : 				else if (_Uptr == this->_Myptr())
; 1934 : 					break;	// at beginning, no more chance for match
; 1935 : 			}
; 1936 : 
; 1937 : 		return (npos);	// no match
; 1938 : 		}
; 1939 : 
; 1940 : 	size_type rfind(const _Elem *_Ptr, size_type _Off = npos) const
; 1941 : 		{	// look for [_Ptr, <null>) beginning before _Off
; 1942 : 		_DEBUG_POINTER(_Ptr);
; 1943 : 		return (rfind(_Ptr, _Off, _Traits::length(_Ptr)));
; 1944 : 		}
; 1945 : 
; 1946 : 	size_type rfind(_Elem _Ch, size_type _Off = npos) const
; 1947 : 		{	// look for _Ch before _Off
; 1948 : 		return (rfind((const _Elem *)&_Ch, _Off, 1));
; 1949 : 		}
; 1950 : 
; 1951 : 	size_type find_first_of(const _Myt& _Right,
; 1952 : 		size_type _Off = 0) const _NOEXCEPT
; 1953 : 		{	// look for one of _Right at or after _Off
; 1954 : 		return (find_first_of(_Right._Myptr(), _Off, _Right.size()));
; 1955 : 		}
; 1956 : 
; 1957 : 	size_type find_first_of(const _Elem *_Ptr,
; 1958 : 		size_type _Off, size_type _Count) const
; 1959 : 		{	// look for one of [_Ptr, _Ptr + _Count) at or after _Off
; 1960 :  #if _ITERATOR_DEBUG_LEVEL == 2
; 1961 : 		if (_Count != 0)
; 1962 : 			_DEBUG_POINTER(_Ptr);
; 1963 :  #endif /* _ITERATOR_DEBUG_LEVEL == 2 */
; 1964 : 
; 1965 : 		if (0 < _Count && _Off < this->_Mysize)
; 1966 : 			{	// room for match, look for it
; 1967 : 			const _Elem *const _Vptr = this->_Myptr() + this->_Mysize;
; 1968 : 			for (const _Elem *_Uptr = this->_Myptr() + _Off;
; 1969 : 				_Uptr < _Vptr; ++_Uptr)
; 1970 : 				if (_Traits::find(_Ptr, _Count, *_Uptr) != 0)
; 1971 : 					return (_Uptr - this->_Myptr());	// found a match
; 1972 : 			}
; 1973 : 
; 1974 : 		return (npos);	// no match
; 1975 : 		}
; 1976 : 
; 1977 : 	size_type find_first_of(const _Elem *_Ptr,
; 1978 : 		size_type _Off = 0) const
; 1979 : 		{	// look for one of [_Ptr, <null>) at or after _Off
; 1980 : 		_DEBUG_POINTER(_Ptr);
; 1981 : 		return (find_first_of(_Ptr, _Off, _Traits::length(_Ptr)));
; 1982 : 		}
; 1983 : 
; 1984 : 	size_type find_first_of(_Elem _Ch,
; 1985 : 		size_type _Off = 0) const
; 1986 : 		{	// look for _Ch at or after _Off
; 1987 : 		return (find((const _Elem *)&_Ch, _Off, 1));
; 1988 : 		}
; 1989 : 
; 1990 : 	size_type find_last_of(const _Myt& _Right,
; 1991 : 		size_type _Off = npos) const _NOEXCEPT
; 1992 : 		{	// look for one of _Right before _Off
; 1993 : 		return (find_last_of(_Right._Myptr(), _Off, _Right.size()));
; 1994 : 		}
; 1995 : 
; 1996 : 	size_type find_last_of(const _Elem *_Ptr,
; 1997 : 		size_type _Off, size_type _Count) const
; 1998 : 		{	// look for one of [_Ptr, _Ptr + _Count) before _Off
; 1999 :  #if _ITERATOR_DEBUG_LEVEL == 2
; 2000 : 		if (_Count != 0)
; 2001 : 			_DEBUG_POINTER(_Ptr);
; 2002 :  #endif /* _ITERATOR_DEBUG_LEVEL == 2 */
; 2003 : 
; 2004 : 		if (0 < _Count && 0 < this->_Mysize)
; 2005 : 			{	// worth searching, do it
; 2006 : 			const _Elem *_Uptr = this->_Myptr()
; 2007 : 				+ (_Off < this->_Mysize ? _Off : this->_Mysize - 1);
; 2008 : 			for (; ; --_Uptr)
; 2009 : 				if (_Traits::find(_Ptr, _Count, *_Uptr) != 0)
; 2010 : 					return (_Uptr - this->_Myptr());	// found a match
; 2011 : 				else if (_Uptr == this->_Myptr())
; 2012 : 					break;	// at beginning, no more chance for match
; 2013 : 			}
; 2014 : 
; 2015 : 		return (npos);	// no match
; 2016 : 		}
; 2017 : 
; 2018 : 	size_type find_last_of(const _Elem *_Ptr,
; 2019 : 		size_type _Off = npos) const
; 2020 : 		{	// look for one of [_Ptr, <null>) before _Off
; 2021 : 		_DEBUG_POINTER(_Ptr);
; 2022 : 		return (find_last_of(_Ptr, _Off, _Traits::length(_Ptr)));
; 2023 : 		}
; 2024 : 
; 2025 : 	size_type find_last_of(_Elem _Ch,
; 2026 : 		size_type _Off = npos) const
; 2027 : 		{	// look for _Ch before _Off
; 2028 : 		return (rfind((const _Elem *)&_Ch, _Off, 1));
; 2029 : 		}
; 2030 : 
; 2031 : 	size_type find_first_not_of(const _Myt& _Right,
; 2032 : 		size_type _Off = 0) const _NOEXCEPT
; 2033 : 		{	// look for none of _Right at or after _Off
; 2034 : 		return (find_first_not_of(_Right._Myptr(), _Off,
; 2035 : 			_Right.size()));
; 2036 : 		}
; 2037 : 
; 2038 : 	size_type find_first_not_of(const _Elem *_Ptr,
; 2039 : 		size_type _Off, size_type _Count) const
; 2040 : 		{	// look for none of [_Ptr, _Ptr + _Count) at or after _Off
; 2041 :  #if _ITERATOR_DEBUG_LEVEL == 2
; 2042 : 		if (_Count != 0)
; 2043 : 			_DEBUG_POINTER(_Ptr);
; 2044 :  #endif /* _ITERATOR_DEBUG_LEVEL == 2 */
; 2045 : 
; 2046 : 		if (_Off < this->_Mysize)
; 2047 : 			{	// room for match, look for it
; 2048 : 			const _Elem *const _Vptr = this->_Myptr() + this->_Mysize;
; 2049 : 			for (const _Elem *_Uptr = this->_Myptr() + _Off;
; 2050 : 				_Uptr < _Vptr; ++_Uptr)
; 2051 : 				if (_Traits::find(_Ptr, _Count, *_Uptr) == 0)
; 2052 : 					return (_Uptr - this->_Myptr());
; 2053 : 			}
; 2054 : 		return (npos);
; 2055 : 		}
; 2056 : 
; 2057 : 	size_type find_first_not_of(const _Elem *_Ptr,
; 2058 : 		size_type _Off = 0) const
; 2059 : 		{	// look for one of [_Ptr, <null>) at or after _Off
; 2060 : 		_DEBUG_POINTER(_Ptr);
; 2061 : 		return (find_first_not_of(_Ptr, _Off, _Traits::length(_Ptr)));
; 2062 : 		}
; 2063 : 
; 2064 : 	size_type find_first_not_of(_Elem _Ch,
; 2065 : 		size_type _Off = 0) const
; 2066 : 		{	// look for non _Ch at or after _Off
; 2067 : 		return (find_first_not_of((const _Elem *)&_Ch, _Off, 1));
; 2068 : 		}
; 2069 : 
; 2070 : 	size_type find_last_not_of(const _Myt& _Right,
; 2071 : 		size_type _Off = npos) const _NOEXCEPT
; 2072 : 		{	// look for none of _Right before _Off
; 2073 : 		return (find_last_not_of(_Right._Myptr(), _Off, _Right.size()));
; 2074 : 		}
; 2075 : 
; 2076 : 	size_type find_last_not_of(const _Elem *_Ptr,
; 2077 : 		size_type _Off, size_type _Count) const
; 2078 : 		{	// look for none of [_Ptr, _Ptr + _Count) before _Off
; 2079 :  #if _ITERATOR_DEBUG_LEVEL == 2
; 2080 : 		if (_Count != 0)
; 2081 : 			_DEBUG_POINTER(_Ptr);
; 2082 :  #endif /* _ITERATOR_DEBUG_LEVEL == 2 */
; 2083 : 
; 2084 : 		if (0 < this->_Mysize)
; 2085 : 			{	// worth searching, do it
; 2086 : 			const _Elem *_Uptr = this->_Myptr()
; 2087 : 				+ (_Off < this->_Mysize ? _Off : this->_Mysize - 1);
; 2088 : 			for (; ; --_Uptr)
; 2089 : 				if (_Traits::find(_Ptr, _Count, *_Uptr) == 0)
; 2090 : 					return (_Uptr - this->_Myptr());
; 2091 : 				else if (_Uptr == this->_Myptr())
; 2092 : 					break;
; 2093 : 			}
; 2094 : 		return (npos);
; 2095 : 		}
; 2096 : 
; 2097 : 	size_type find_last_not_of(const _Elem *_Ptr,
; 2098 : 		size_type _Off = npos) const
; 2099 : 		{	// look for none of [_Ptr, <null>) before _Off
; 2100 : 		_DEBUG_POINTER(_Ptr);
; 2101 : 		return (find_last_not_of(_Ptr, _Off, _Traits::length(_Ptr)));
; 2102 : 		}
; 2103 : 
; 2104 : 	size_type find_last_not_of(_Elem _Ch,
; 2105 : 		size_type _Off = npos) const
; 2106 : 		{	// look for non _Ch before _Off
; 2107 : 		return (find_last_not_of((const _Elem *)&_Ch, _Off, 1));
; 2108 : 		}
; 2109 : 
; 2110 : 	_Myt substr(size_type _Off = 0, size_type _Count = npos) const
; 2111 : 		{	// return [_Off, _Off + _Count) as new string
; 2112 : 		return (_Myt(*this, _Off, _Count, get_allocator()));
; 2113 : 		}
; 2114 : 
; 2115 : 	int compare(const _Myt& _Right) const _NOEXCEPT
; 2116 : 		{	// compare [0, _Mysize) with _Right
; 2117 : 		return (compare(0, this->_Mysize, _Right._Myptr(), _Right.size()));
; 2118 : 		}
; 2119 : 
; 2120 : 	int compare(size_type _Off, size_type _N0,
; 2121 : 		const _Myt& _Right) const
; 2122 : 		{	// compare [_Off, _Off + _N0) with _Right
; 2123 : 		return (compare(_Off, _N0, _Right, 0, npos));
; 2124 : 		}
; 2125 : 
; 2126 : 	int compare(size_type _Off,
; 2127 : 		size_type _N0, const _Myt& _Right,
; 2128 : 		size_type _Roff, size_type _Count) const
; 2129 : 		{	// compare [_Off, _Off + _N0) with _Right [_Roff, _Roff + _Count)
; 2130 : 		if (_Right.size() < _Roff)
; 2131 : 			_Xran();	// _Off off end
; 2132 : 		if (_Right._Mysize - _Roff < _Count)
; 2133 : 			_Count = _Right._Mysize - _Roff;	// trim _Count to size
; 2134 : 		return (compare(_Off, _N0, _Right._Myptr() + _Roff, _Count));
; 2135 : 		}
; 2136 : 
; 2137 : 	int compare(const _Elem *_Ptr) const
; 2138 : 		{	// compare [0, _Mysize) with [_Ptr, <null>)
; 2139 : 		_DEBUG_POINTER(_Ptr);
; 2140 : 		return (compare(0, this->_Mysize, _Ptr, _Traits::length(_Ptr)));
; 2141 : 		}
; 2142 : 
; 2143 : 	int compare(size_type _Off, size_type _N0, const _Elem *_Ptr) const
; 2144 : 		{	// compare [_Off, _Off + _N0) with [_Ptr, <null>)
; 2145 : 		_DEBUG_POINTER(_Ptr);
; 2146 : 		return (compare(_Off, _N0, _Ptr, _Traits::length(_Ptr)));
; 2147 : 		}
; 2148 : 
; 2149 : 	int compare(size_type _Off,
; 2150 : 		size_type _N0, const _Elem *_Ptr, size_type _Count) const
; 2151 : 		{	// compare [_Off, _Off + _N0) with [_Ptr, _Ptr + _Count)
; 2152 :  #if _ITERATOR_DEBUG_LEVEL == 2
; 2153 : 		if (_Count != 0)
; 2154 : 			_DEBUG_POINTER(_Ptr);
; 2155 :  #endif /* _ITERATOR_DEBUG_LEVEL == 2 */
; 2156 : 
; 2157 : 		if (this->_Mysize < _Off)
; 2158 : 			_Xran();	// _Off off end
; 2159 : 		if (this->_Mysize - _Off < _N0)
; 2160 : 			_N0 = this->_Mysize - _Off;	// trim _N0 to size
; 2161 : 
; 2162 : 		size_type _Ans = _Traits::compare(this->_Myptr() + _Off, _Ptr,
; 2163 : 			_N0 < _Count ? _N0 : _Count);
; 2164 : 		return (_Ans != 0 ? (int)_Ans : _N0 < _Count ? -1
; 2165 : 			: _N0 == _Count ? 0 : +1);
; 2166 : 		}
; 2167 : 
; 2168 : 	allocator_type get_allocator() const _NOEXCEPT
; 2169 : 		{	// return allocator object for values
; 2170 : 		return (this->_Getal());
; 2171 : 		}
; 2172 : 
; 2173 : 	void _Chassign(size_type _Off, size_type _Count, _Elem _Ch)
; 2174 : 		{	// assign _Count copies of _Ch beginning at _Off
; 2175 : 		if (_Count == 1)
; 2176 : 			_Traits::assign(*(this->_Myptr() + _Off), _Ch);
; 2177 : 		else
; 2178 : 			_Traits::assign(this->_Myptr() + _Off, _Count, _Ch);
; 2179 : 		}
; 2180 : 
; 2181 : 	void _Copy(size_type _Newsize, size_type _Oldlen)
; 2182 : 		{	// copy _Oldlen elements to newly allocated buffer
; 2183 : 		size_type _Newres = _Newsize | this->_ALLOC_MASK;
; 2184 : 		if (max_size() < _Newres)
; 2185 : 			_Newres = _Newsize;	// undo roundup if too big
; 2186 : 		else if (this->_Myres / 2 <= _Newres / 3)
; 2187 : 			;
; 2188 : 		else if (this->_Myres <= max_size() - this->_Myres / 2)
; 2189 : 			_Newres = this->_Myres
; 2190 : 				+ this->_Myres / 2;	// grow exponentially if possible
; 2191 : 		else
; 2192 : 			_Newres = max_size();	// settle for max_size()
; 2193 : 
; 2194 : 		_Elem *_Ptr;
; 2195 : 		_TRY_BEGIN
; 2196 : 			_Ptr = this->_Getal().allocate(_Newres + 1);
; 2197 : 		_CATCH_ALL
; 2198 : 			_Newres = _Newsize;	// allocation failed, undo roundup and retry
; 2199 : 			_TRY_BEGIN
; 2200 : 				_Ptr = this->_Getal().allocate(_Newres + 1);
; 2201 : 			_CATCH_ALL
; 2202 : 			_Tidy(true);	// failed again, discard storage and reraise
; 2203 : 			_RERAISE;
; 2204 : 			_CATCH_END
; 2205 : 		_CATCH_END
; 2206 : 
; 2207 : 		if (0 < _Oldlen)
; 2208 : 			_Traits::copy(_Ptr, this->_Myptr(),
; 2209 : 				_Oldlen);	// copy existing elements
; 2210 : 		_Tidy(true);
; 2211 : 		this->_Getal().construct(&this->_Bx._Ptr, _Ptr);
; 2212 : 		this->_Myres = _Newres;
; 2213 : 		_Eos(_Oldlen);
; 2214 : 		}
; 2215 : 
; 2216 : 	void _Eos(size_type _Newsize)
; 2217 : 		{	// set new length and null terminator
; 2218 : 		_Traits::assign(this->_Myptr()[this->_Mysize = _Newsize], _Elem());

  00058	89 7e 10	 mov	 DWORD PTR [esi+16], edi

; 517  : 			: this->_Bx._Buf);

  0005b	72 0e		 jb	 SHORT $LN34@erase
; File c:\program files (x86)\microsoft visual studio 11.0\vc\include\xstddef

; 88   : 		reinterpret_cast<const volatile char&>(_Val)))));

  0005d	8b 06		 mov	 eax, DWORD PTR [esi]
; File c:\program files (x86)\microsoft visual studio 11.0\vc\include\iosfwd

; 564  : 		_Left = _Right;

  0005f	c6 04 38 00	 mov	 BYTE PTR [eax+edi], 0
  00063	5f		 pop	 edi
; File c:\program files (x86)\microsoft visual studio 11.0\vc\include\xstring

; 1329 : 		return (*this);

  00064	8b c6		 mov	 eax, esi
  00066	5e		 pop	 esi

; 1330 : 		}

  00067	5d		 pop	 ebp
  00068	c2 08 00	 ret	 8
$LN34@erase:

; 517  : 			: this->_Bx._Buf);

  0006b	8b c6		 mov	 eax, esi
; File c:\program files (x86)\microsoft visual studio 11.0\vc\include\iosfwd

; 564  : 		_Left = _Right;

  0006d	c6 04 38 00	 mov	 BYTE PTR [eax+edi], 0
$LN40@erase:
  00071	5f		 pop	 edi
; File c:\program files (x86)\microsoft visual studio 11.0\vc\include\xstring

; 1329 : 		return (*this);

  00072	8b c6		 mov	 eax, esi
  00074	5e		 pop	 esi

; 1330 : 		}

  00075	5d		 pop	 ebp
  00076	c2 08 00	 ret	 8
?erase@?$basic_string@DU?$char_traits@D@std@@V?$allocator@D@2@@std@@QAEAAV12@II@Z ENDP ; std::basic_string<char,std::char_traits<char>,std::allocator<char> >::erase
_TEXT	ENDS
; Function compile flags: /Ogtp
; File c:\program files (x86)\microsoft visual studio 11.0\vc\include\xstring
;	COMDAT ?max_size@?$basic_string@DU?$char_traits@D@std@@V?$allocator@D@2@@std@@QBEIXZ
_TEXT	SEGMENT
?max_size@?$basic_string@DU?$char_traits@D@std@@V?$allocator@D@2@@std@@QBEIXZ PROC ; std::basic_string<char,std::char_traits<char>,std::allocator<char> >::max_size, COMDAT
; _this$dead$ = ecx

; 1738 : 		size_type _Num = this->_Getal().max_size();
; 1739 : 		return (_Num <= 1 ? 1 : _Num - 1);

  00000	b8 fe ff ff ff	 mov	 eax, -2			; fffffffeH

; 1740 : 		}

  00005	c3		 ret	 0
?max_size@?$basic_string@DU?$char_traits@D@std@@V?$allocator@D@2@@std@@QBEIXZ ENDP ; std::basic_string<char,std::char_traits<char>,std::allocator<char> >::max_size
_TEXT	ENDS
; Function compile flags: /Ogtp
; File c:\program files (x86)\microsoft visual studio 11.0\vc\include\xstring
; File c:\program files (x86)\microsoft visual studio 11.0\vc\include\xmemory0
; File c:\program files (x86)\microsoft visual studio 11.0\vc\include\xstring
; File c:\program files (x86)\microsoft visual studio 11.0\vc\include\xmemory0
; File c:\program files (x86)\microsoft visual studio 11.0\vc\include\xstring
; File c:\program files (x86)\microsoft visual studio 11.0\vc\include\xstddef
; File c:\program files (x86)\microsoft visual studio 11.0\vc\include\xstring
; File c:\program files (x86)\microsoft visual studio 11.0\vc\include\xmemory0
; File c:\program files (x86)\microsoft visual studio 11.0\vc\include\xstring
; File c:\program files (x86)\microsoft visual studio 11.0\vc\include\iosfwd
; File c:\program files (x86)\microsoft visual studio 11.0\vc\include\xstring
; File c:\program files (x86)\microsoft visual studio 11.0\vc\include\iosfwd
; File c:\program files (x86)\microsoft visual studio 11.0\vc\include\xstring
; File c:\program files (x86)\microsoft visual studio 11.0\vc\include\xmemory0
; File c:\program files (x86)\microsoft visual studio 11.0\vc\include\iosfwd
; File c:\program files (x86)\microsoft visual studio 11.0\vc\include\xmemory0
; File c:\program files (x86)\microsoft visual studio 11.0\vc\include\xstring
; File c:\program files (x86)\microsoft visual studio 11.0\vc\include\xstddef
; File c:\program files (x86)\microsoft visual studio 11.0\vc\include\iosfwd
; File c:\program files (x86)\microsoft visual studio 11.0\vc\include\xstring
;	COMDAT ?_Copy@?$basic_string@DU?$char_traits@D@std@@V?$allocator@D@2@@std@@QAEXII@Z
_TEXT	SEGMENT
_this$ = -24						; size = 4
__Ptr$1$ = -20						; size = 4
__Ptr$ = -20						; size = 4
__$EHRec$ = -16						; size = 16
__Newres$ = 8						; size = 4
__Newsize$ = 8						; size = 4
__Oldlen$ = 12						; size = 4
?_Copy@?$basic_string@DU?$char_traits@D@std@@V?$allocator@D@2@@std@@QAEXII@Z PROC ; std::basic_string<char,std::char_traits<char>,std::allocator<char> >::_Copy, COMDAT
; _this$ = ecx

; 2182 : 		{	// copy _Oldlen elements to newly allocated buffer

  00000	55		 push	 ebp
  00001	8b ec		 mov	 ebp, esp
  00003	6a ff		 push	 -1
  00005	68 00 00 00 00	 push	 __ehhandler$?_Copy@?$basic_string@DU?$char_traits@D@std@@V?$allocator@D@2@@std@@QAEXII@Z
  0000a	64 a1 00 00 00
	00		 mov	 eax, DWORD PTR fs:0
  00010	50		 push	 eax
  00011	83 ec 0c	 sub	 esp, 12			; 0000000cH
  00014	53		 push	 ebx
  00015	56		 push	 esi
  00016	57		 push	 edi
  00017	a1 00 00 00 00	 mov	 eax, DWORD PTR ___security_cookie
  0001c	33 c5		 xor	 eax, ebp
  0001e	50		 push	 eax
  0001f	8d 45 f4	 lea	 eax, DWORD PTR __$EHRec$[ebp+4]
  00022	64 a3 00 00 00
	00		 mov	 DWORD PTR fs:0, eax
  00028	89 65 f0	 mov	 DWORD PTR __$EHRec$[ebp], esp
  0002b	8b f1		 mov	 esi, ecx
  0002d	89 75 e8	 mov	 DWORD PTR _this$[ebp], esi

; 2183 : 		size_type _Newres = _Newsize | this->_ALLOC_MASK;

  00030	8b 45 08	 mov	 eax, DWORD PTR __Newsize$[ebp]
  00033	8b f8		 mov	 edi, eax
  00035	83 cf 0f	 or	 edi, 15			; 0000000fH

; 2184 : 		if (max_size() < _Newres)

  00038	83 ff fe	 cmp	 edi, -2			; fffffffeH
  0003b	76 04		 jbe	 SHORT $LN9@Copy

; 2185 : 			_Newres = _Newsize;	// undo roundup if too big

  0003d	8b f8		 mov	 edi, eax
  0003f	eb 27		 jmp	 SHORT $LN47@Copy
$LN9@Copy:

; 2186 : 		else if (this->_Myres / 2 <= _Newres / 3)

  00041	8b 5e 14	 mov	 ebx, DWORD PTR [esi+20]
  00044	b8 ab aa aa aa	 mov	 eax, -1431655765	; aaaaaaabH
  00049	f7 e7		 mul	 edi
  0004b	8b cb		 mov	 ecx, ebx
  0004d	d1 e9		 shr	 ecx, 1
  0004f	d1 ea		 shr	 edx, 1
  00051	3b ca		 cmp	 ecx, edx
  00053	76 13		 jbe	 SHORT $LN47@Copy

; 2187 : 			;
; 2188 : 		else if (this->_Myres <= max_size() - this->_Myres / 2)

  00055	b8 fe ff ff ff	 mov	 eax, -2			; fffffffeH
  0005a	2b c1		 sub	 eax, ecx

; 2189 : 			_Newres = this->_Myres
; 2190 : 				+ this->_Myres / 2;	// grow exponentially if possible

  0005c	8d 3c 19	 lea	 edi, DWORD PTR [ecx+ebx]
  0005f	3b d8		 cmp	 ebx, eax
  00061	76 05		 jbe	 SHORT $LN47@Copy

; 518  : 		}
; 519  : 
; 520  : 	const value_type *_Myptr() const
; 521  : 		{	// determine current pointer to buffer for nonmutable string
; 522  : 		return (this->_BUF_SIZE <= this->_Myres
; 523  : 			? _STD addressof(*this->_Bx._Ptr)
; 524  : 			: this->_Bx._Buf);
; 525  : 		}
; 526  : 
; 527  : 	union _Bxty
; 528  : 		{	// storage for small buffer or pointer to larger one
; 529  : 		value_type _Buf[_BUF_SIZE];
; 530  : 		pointer _Ptr;
; 531  : 		char _Alias[_BUF_SIZE];	// to permit aliasing
; 532  : 		} _Bx;
; 533  : 
; 534  : 	size_type _Mysize;	// current length of string
; 535  : 	size_type _Myres;	// current storage reserved for string
; 536  : 	};
; 537  : 
; 538  : 		// TEMPLATE CLASS _String_alloc
; 539  : template<bool _Al_has_storage,
; 540  : 	class _Alloc_types>
; 541  : 	class _String_alloc
; 542  : 		: public _String_val<typename _Alloc_types::_Val_types>
; 543  : 	{	// base class for basic_string to hold allocator with storage
; 544  : public:
; 545  : 	typedef _String_alloc<_Al_has_storage, _Alloc_types> _Myt;
; 546  : 	typedef typename _Alloc_types::_Alloc _Alloc;
; 547  : 
; 548  : 	typedef typename _Alloc_types::_Alty _Alty;
; 549  : 
; 550  :  #if _ITERATOR_DEBUG_LEVEL == 0
; 551  : 	_String_alloc(const _Alloc& _Al = _Alloc())
; 552  : 		: _Alval(_Al)
; 553  : 		{	// construct allocator from _Al
; 554  : 		}
; 555  : 
; 556  : 	void _Change_alloc(const _Alty& _Al)
; 557  : 		{	// replace old allocator
; 558  : 		_Alval = _Al;
; 559  : 		}
; 560  : 
; 561  : 	void _Swap_alloc(_Myt& _Right)
; 562  : 		{	// swap allocators
; 563  : 		_Swap_adl(this->_Alval, _Right._Alval);
; 564  : 		}
; 565  : 
; 566  :  #else /* _ITERATOR_DEBUG_LEVEL == 0 */
; 567  : 	_String_alloc(const _Alloc& _Al = _Alloc())
; 568  : 		: _Alval(_Al)
; 569  : 		{	// construct allocator from _Al
; 570  : 		_Alloc_proxy();
; 571  : 		}
; 572  : 
; 573  : 	~_String_alloc() _NOEXCEPT
; 574  : 		{	// destroy the object
; 575  : 		_Free_proxy();
; 576  : 		}
; 577  : 
; 578  : 	void _Change_alloc(const _Alty& _Al)
; 579  : 		{	// replace old allocator
; 580  : 		_Free_proxy();
; 581  : 		_Alval = _Al;
; 582  : 		_Alloc_proxy();
; 583  : 		}
; 584  : 
; 585  : 	void _Swap_alloc(_Myt& _Right)
; 586  : 		{	// swap allocators
; 587  : 		_Swap_adl(_Alval, _Right._Alval);
; 588  : 		_Swap_adl(this->_Myproxy, _Right._Myproxy);
; 589  : 		}
; 590  : 
; 591  : 	void _Alloc_proxy()
; 592  : 		{	// construct proxy from _Alval
; 593  : 		typename _Alloc::template rebind<_Container_proxy>::other
; 594  : 			_Alproxy(_Alval);
; 595  : 		this->_Myproxy = _Alproxy.allocate(1);
; 596  : 		_Alproxy.construct(this->_Myproxy, _Container_proxy());
; 597  : 		this->_Myproxy->_Mycont = this;
; 598  : 		}
; 599  : 
; 600  : 	void _Free_proxy()
; 601  : 		{	// destroy proxy
; 602  : 		typename _Alloc::template rebind<_Container_proxy>::other
; 603  : 			_Alproxy(_Alval);
; 604  : 		this->_Orphan_all();
; 605  : 		_Alproxy.destroy(this->_Myproxy);
; 606  : 		_Alproxy.deallocate(this->_Myproxy, 1);
; 607  : 		this->_Myproxy = 0;
; 608  : 		}
; 609  :  #endif /* _ITERATOR_DEBUG_LEVEL == 0 */
; 610  : 
; 611  : 	_Alty& _Getal()
; 612  : 		{	// get reference to allocator
; 613  : 		return (_Alval);
; 614  : 		}
; 615  : 
; 616  : 	const _Alty& _Getal() const
; 617  : 		{	// get reference to allocator
; 618  : 		return (_Alval);
; 619  : 		}
; 620  : 
; 621  : 	_Alty _Alval;	// allocator object for strings
; 622  : 	};
; 623  : 
; 624  : template<class _Alloc_types>
; 625  : 	class _String_alloc<false, _Alloc_types>
; 626  : 		: public _String_val<typename _Alloc_types::_Val_types>
; 627  : 	{	// base class for basic_string to hold allocator with no storage
; 628  : public:
; 629  : 	typedef _String_alloc<false, _Alloc_types> _Myt;
; 630  : 	typedef typename _Alloc_types::_Alloc _Alloc;
; 631  : 
; 632  : 	typedef typename _Alloc_types::_Alty _Alty;
; 633  : 
; 634  :  #if _ITERATOR_DEBUG_LEVEL == 0
; 635  : 	_String_alloc(const _Alloc& = _Alloc())
; 636  : 		{	// construct allocator from _Al
; 637  : 		}
; 638  : 
; 639  : 	void _Change_alloc(const _Alty&)
; 640  : 		{	// replace old allocator
; 641  : 		}
; 642  : 
; 643  : 	void _Swap_alloc(_Myt&)
; 644  : 		{	// swap allocators
; 645  : 		}
; 646  : 
; 647  :  #else /* _ITERATOR_DEBUG_LEVEL == 0 */
; 648  : 	_String_alloc(const _Alloc& = _Alloc())
; 649  : 		{	// construct allocator from _Al
; 650  : 		_Alloc_proxy();
; 651  : 		}
; 652  : 
; 653  : 	~_String_alloc() _NOEXCEPT
; 654  : 		{	// destroy the object
; 655  : 		_Free_proxy();
; 656  : 		}
; 657  : 
; 658  : 	void _Change_alloc(const _Alty&)
; 659  : 		{	// replace old allocator
; 660  : 		}
; 661  : 
; 662  : 	void _Swap_alloc(_Myt& _Right)
; 663  : 		{	// swap allocators
; 664  : 		_Swap_adl(this->_Myproxy, _Right._Myproxy);
; 665  : 		}
; 666  : 
; 667  : 	void _Alloc_proxy()
; 668  : 		{	// construct proxy from _Alval
; 669  : 		typename _Alloc::template rebind<_Container_proxy>::other
; 670  : 			_Alproxy;
; 671  : 		this->_Myproxy = _Alproxy.allocate(1);
; 672  : 		_Alproxy.construct(this->_Myproxy, _Container_proxy());
; 673  : 		this->_Myproxy->_Mycont = this;
; 674  : 		}
; 675  : 
; 676  : 	void _Free_proxy()
; 677  : 		{	// destroy proxy
; 678  : 		typename _Alloc::template rebind<_Container_proxy>::other
; 679  : 			_Alproxy;
; 680  : 		this->_Orphan_all();
; 681  : 		_Alproxy.destroy(this->_Myproxy);
; 682  : 		_Alproxy.deallocate(this->_Myproxy, 1);
; 683  : 		this->_Myproxy = 0;
; 684  : 		}
; 685  :  #endif /* _ITERATOR_DEBUG_LEVEL == 0 */
; 686  : 
; 687  : 	_Alty _Getal() const
; 688  : 		{	// get reference to allocator
; 689  : 		return (_Alty());
; 690  : 		}
; 691  : 	};
; 692  : 
; 693  : 		// TEMPLATE CLASS basic_string
; 694  : template<class _Elem,
; 695  : 	class _Traits,
; 696  : 	class _Alloc>
; 697  : 	class basic_string
; 698  : 		: public _String_alloc<!is_empty<_Alloc>::value,
; 699  : 			_String_base_types<_Elem, _Alloc> >
; 700  : 	{	// null-terminated transparent array of elements
; 701  : public:
; 702  : 	typedef basic_string<_Elem, _Traits, _Alloc> _Myt;
; 703  : 	typedef _String_alloc<!is_empty<_Alloc>::value,
; 704  : 		_String_base_types<_Elem, _Alloc> > _Mybase;
; 705  : 	typedef _Traits traits_type;
; 706  : 	typedef _Alloc allocator_type;
; 707  : 
; 708  : 	typedef typename _Mybase::_Alty _Alty;
; 709  : 
; 710  : 	typedef typename _Mybase::value_type value_type;
; 711  : 	typedef typename _Mybase::size_type size_type;
; 712  : 	typedef typename _Mybase::difference_type difference_type;
; 713  : 	typedef typename _Mybase::pointer pointer;
; 714  : 	typedef typename _Mybase::const_pointer const_pointer;
; 715  : 	typedef typename _Mybase::reference reference;
; 716  : 	typedef typename _Mybase::const_reference const_reference;
; 717  : 
; 718  : 	typedef typename _Mybase::iterator iterator;
; 719  : 	typedef typename _Mybase::const_iterator const_iterator;
; 720  : 
; 721  : 	typedef _STD reverse_iterator<iterator> reverse_iterator;
; 722  : 	typedef _STD reverse_iterator<const_iterator> const_reverse_iterator;
; 723  : 
; 724  : 	basic_string(const _Myt& _Right)
; 725  : 
; 726  :  #if _HAS_CPP0X
; 727  : 		: _Mybase(_Right._Getal().select_on_container_copy_construction())
; 728  : 
; 729  :  #else /* _HAS_CPP0X */
; 730  : 		: _Mybase(_Right._Getal())
; 731  :  #endif /* _HAS_CPP0X */
; 732  : 
; 733  : 		{	// construct by copying _Right
; 734  : 		_Tidy();
; 735  : 		assign(_Right, 0, npos);
; 736  : 		}
; 737  : 
; 738  :  #if _HAS_CPP0X
; 739  : 	basic_string(const _Myt& _Right, const _Alloc& _Al)
; 740  : 		: _Mybase(_Al)
; 741  : 		{	// construct by copying with allocator
; 742  : 		_Tidy();
; 743  : 		assign(_Right, 0, npos);
; 744  : 		}
; 745  :  #endif /* _HAS_CPP0X */
; 746  : 
; 747  : 	basic_string()
; 748  : 		: _Mybase()
; 749  : 		{	// construct empty string
; 750  : 		_Tidy();
; 751  : 		}
; 752  : 
; 753  : 	explicit basic_string(const _Alloc& _Al)
; 754  : 		: _Mybase(_Al)
; 755  : 		{	// construct empty string with allocator
; 756  : 		_Tidy();
; 757  : 		}
; 758  : 
; 759  : 	basic_string(const _Myt& _Right, size_type _Roff,
; 760  : 		size_type _Count = npos)
; 761  : 		: _Mybase(_Right._Getal())
; 762  : 		{	// construct from _Right [_Roff, _Roff + _Count)
; 763  : 		_Tidy();
; 764  : 		assign(_Right, _Roff, _Count);
; 765  : 		}
; 766  : 
; 767  : 	basic_string(const _Myt& _Right, size_type _Roff, size_type _Count,
; 768  : 		const _Alloc& _Al)
; 769  : 		: _Mybase(_Al)
; 770  : 		{	// construct from _Right [_Roff, _Roff + _Count) with allocator
; 771  : 		_Tidy();
; 772  : 		assign(_Right, _Roff, _Count);
; 773  : 		}
; 774  : 
; 775  : 	basic_string(const _Elem *_Ptr, size_type _Count)
; 776  : 		: _Mybase()
; 777  : 		{	// construct from [_Ptr, _Ptr + _Count)
; 778  : 		_Tidy();
; 779  : 		assign(_Ptr, _Count);
; 780  : 		}
; 781  : 
; 782  : 	basic_string(const _Elem *_Ptr, size_type _Count, const _Alloc& _Al)
; 783  : 		: _Mybase(_Al)
; 784  : 		{	// construct from [_Ptr, _Ptr + _Count) with allocator
; 785  : 		_Tidy();
; 786  : 		assign(_Ptr, _Count);
; 787  : 		}
; 788  : 
; 789  : 	basic_string(const _Elem *_Ptr)
; 790  : 		: _Mybase()
; 791  : 		{	// construct from [_Ptr, <null>)
; 792  : 		_Tidy();
; 793  : 		assign(_Ptr);
; 794  : 		}
; 795  : 
; 796  : 	basic_string(const _Elem *_Ptr, const _Alloc& _Al)
; 797  : 		: _Mybase(_Al)
; 798  : 		{	// construct from [_Ptr, <null>) with allocator
; 799  : 		_Tidy();
; 800  : 		assign(_Ptr);
; 801  : 		}
; 802  : 
; 803  : 	basic_string(size_type _Count, _Elem _Ch)
; 804  : 		: _Mybase()
; 805  : 		{	// construct from _Count * _Ch
; 806  : 		_Tidy();
; 807  : 		assign(_Count, _Ch);
; 808  : 		}
; 809  : 
; 810  : 	basic_string(size_type _Count, _Elem _Ch, const _Alloc& _Al)
; 811  : 		: _Mybase(_Al)
; 812  : 		{	// construct from _Count * _Ch with allocator
; 813  : 		_Tidy();
; 814  : 		assign(_Count, _Ch);
; 815  : 		}
; 816  : 
; 817  : 	template<class _Iter>
; 818  : 		basic_string(_Iter _First, _Iter _Last,
; 819  : 			typename enable_if<_Is_iterator<_Iter>::value,
; 820  : 				void>::type ** = 0)
; 821  : 		: _Mybase()
; 822  : 		{	// construct from [_First, _Last)
; 823  : 		_Tidy();
; 824  : 		_Construct(_First, _Last, _Iter_cat(_First));
; 825  : 		}
; 826  : 
; 827  : 	template<class _Iter>
; 828  : 		basic_string(_Iter _First, _Iter _Last, const _Alloc& _Al,
; 829  : 			typename enable_if<_Is_iterator<_Iter>::value,
; 830  : 				void>::type ** = 0)
; 831  : 		: _Mybase(_Al)
; 832  : 		{	// construct from [_First, _Last) with allocator
; 833  : 		_Tidy();
; 834  : 		_Construct(_First, _Last, _Iter_cat(_First));
; 835  : 		}
; 836  : 
; 837  : 	template<class _Iter>
; 838  : 		void _Construct(_Iter _First,
; 839  : 			_Iter _Last, input_iterator_tag)
; 840  : 		{	// initialize from [_First, _Last), input iterators
; 841  : 		_TRY_BEGIN
; 842  : 		for (; _First != _Last; ++_First)
; 843  : 			append((size_type)1, (_Elem)*_First);
; 844  : 		_CATCH_ALL
; 845  : 		_Tidy(true);
; 846  : 		_RERAISE;
; 847  : 		_CATCH_END
; 848  : 		}
; 849  : 
; 850  : 	template<class _Iter>
; 851  : 		void _Construct(_Iter _First,
; 852  : 			_Iter _Last, forward_iterator_tag)
; 853  : 		{	// initialize from [_First, _Last), forward iterators
; 854  : 		_DEBUG_RANGE(_First, _Last);
; 855  : 		size_type _Count = 0;
; 856  : 		_Distance(_First, _Last, _Count);
; 857  : 		reserve(_Count);
; 858  : 
; 859  : 		_TRY_BEGIN
; 860  : 		for (; _First != _Last; ++_First)
; 861  : 			append((size_type)1, (_Elem)*_First);
; 862  : 		_CATCH_ALL
; 863  : 		_Tidy(true);
; 864  : 		_RERAISE;
; 865  : 		_CATCH_END
; 866  : 		}
; 867  : 
; 868  : 	basic_string(const_pointer _First, const_pointer _Last)
; 869  : 		: _Mybase()
; 870  : 		{	// construct from [_First, _Last), const pointers
; 871  : 		_DEBUG_RANGE(_First, _Last);
; 872  : 		_Tidy();
; 873  : 		if (_First != _Last)
; 874  : 			assign(&*_First, _Last - _First);
; 875  : 		}
; 876  : 
; 877  : 	basic_string(const_pointer _First, const_pointer _Last,
; 878  : 		const _Alloc& _Al)
; 879  : 		: _Mybase(_Al)
; 880  : 		{	// construct from [_First, _Last), const pointers
; 881  : 		_DEBUG_RANGE(_First, _Last);
; 882  : 		_Tidy();
; 883  : 		if (_First != _Last)
; 884  : 			assign(&*_First, _Last - _First);
; 885  : 		}
; 886  : 
; 887  : 	basic_string(const_iterator _First, const_iterator _Last)
; 888  : 		: _Mybase()
; 889  : 		{	// construct from [_First, _Last), const_iterators
; 890  : 		_DEBUG_RANGE(_First, _Last);
; 891  : 		_Tidy();
; 892  : 		if (_First != _Last)
; 893  : 			assign(&*_First, _Last - _First);
; 894  : 		}
; 895  : 
; 896  : 	basic_string(_Myt&& _Right) _NOEXCEPT
; 897  : 		: _Mybase(_Right._Getal())
; 898  : 		{	// construct by moving _Right
; 899  : 		_Tidy();
; 900  : 		_Assign_rv(_STD forward<_Myt>(_Right));
; 901  : 		}
; 902  : 
; 903  : 	basic_string(_Myt&& _Right, const _Alloc& _Al)
; 904  : 		: _Mybase(_Al)
; 905  : 		{	// construct by moving _Right, allocator
; 906  : 		if (this->_Getal() != _Right._Getal())
; 907  : 			assign(_Right.begin(), _Right.end());
; 908  : 		else
; 909  : 			_Assign_rv(_STD forward<_Myt>(_Right));
; 910  : 		}
; 911  : 
; 912  : 	_Myt& operator=(_Myt&& _Right) _NOEXCEPT
; 913  : 		{	// assign by moving _Right
; 914  : 		if (this != &_Right)
; 915  : 			{	// different, assign it
; 916  : 			_Tidy(true);
; 917  : 
; 918  :  #if _HAS_CPP0X
; 919  : 			if (this->_Getal() != _Right._Getal()
; 920  : 				&& _Alty::propagate_on_container_move_assignment::value)
; 921  : 				this->_Change_alloc(_Right._Getal());
; 922  :  #endif /* _HAS_CPP0X */
; 923  : 
; 924  : 			if (this->_Getal() != _Right._Getal())
; 925  : 				assign(_Right.begin(), _Right.end());
; 926  : 			else
; 927  : 				_Assign_rv(_STD forward<_Myt>(_Right));
; 928  : 			}
; 929  : 		return (*this);
; 930  : 		}
; 931  : 
; 932  : 	_Myt& assign(_Myt&& _Right) _NOEXCEPT
; 933  : 		{	// assign by moving _Right
; 934  : 		if (this == &_Right)
; 935  : 			;
; 936  : 		else if (get_allocator() != _Right.get_allocator()
; 937  : 			&& this->_BUF_SIZE <= _Right._Myres)
; 938  : 			*this = _Right;
; 939  : 		else
; 940  : 			{	// not same, clear this and steal from _Right
; 941  : 			_Tidy(true);
; 942  : 			_Assign_rv(_STD forward<_Myt>(_Right));
; 943  : 			}
; 944  : 		return (*this);
; 945  : 		}
; 946  : 
; 947  : 	void _Assign_rv(_Myt&& _Right)
; 948  : 		{	// assign by moving _Right
; 949  : 		if (_Right._Myres < this->_BUF_SIZE)
; 950  : 			_Traits::move(this->_Bx._Buf, _Right._Bx._Buf,
; 951  : 				_Right._Mysize + 1);
; 952  : 		else
; 953  : 			{	// copy pointer
; 954  : 			this->_Getal().construct(&this->_Bx._Ptr, _Right._Bx._Ptr);
; 955  : 			_Right._Bx._Ptr = pointer();
; 956  : 			}
; 957  : 		this->_Mysize = _Right._Mysize;
; 958  : 		this->_Myres = _Right._Myres;
; 959  : 		_Right._Tidy();
; 960  : 		}
; 961  : 
; 962  : 	~basic_string() _NOEXCEPT
; 963  : 		{	// destroy the string
; 964  : 		_Tidy(true);
; 965  : 		}
; 966  : 
; 967  : 	_PGLOBAL static const size_type npos;	// bad/missing length/position
; 968  : 
; 969  : 	_Myt& operator=(const _Myt& _Right)
; 970  : 		{	// assign _Right
; 971  : 		if (this != &_Right)
; 972  : 			{	// different, assign it
; 973  :  #if _HAS_CPP0X
; 974  : 			if (this->_Getal() != _Right._Getal()
; 975  : 				&& _Alty::propagate_on_container_copy_assignment::value)
; 976  : 				{	// change allocator before copying
; 977  : 				_Tidy(true);
; 978  : 				this->_Change_alloc(_Right._Getal());
; 979  : 				}
; 980  :  #endif /* _HAS_CPP0X */
; 981  : 
; 982  : 			assign(_Right);
; 983  : 			}
; 984  : 		return (*this);
; 985  : 		}
; 986  : 
; 987  : 	_Myt& operator=(const _Elem *_Ptr)
; 988  : 		{	// assign [_Ptr, <null>)
; 989  : 		return (assign(_Ptr));
; 990  : 		}
; 991  : 
; 992  : 	_Myt& operator=(_Elem _Ch)
; 993  : 		{	// assign 1 * _Ch
; 994  : 		return (assign(1, _Ch));
; 995  : 		}
; 996  : 
; 997  : 	_Myt& operator+=(const _Myt& _Right)
; 998  : 		{	// append _Right
; 999  : 		return (append(_Right));
; 1000 : 		}
; 1001 : 
; 1002 : 	_Myt& operator+=(const _Elem *_Ptr)
; 1003 : 		{	// append [_Ptr, <null>)
; 1004 : 		return (append(_Ptr));
; 1005 : 		}
; 1006 : 
; 1007 : 	_Myt& operator+=(_Elem _Ch)
; 1008 : 		{	// append 1 * _Ch
; 1009 : 		return (append((size_type)1, _Ch));
; 1010 : 		}
; 1011 : 
; 1012 : 	_Myt& append(const _Myt& _Right)
; 1013 : 		{	// append _Right
; 1014 : 		return (append(_Right, 0, npos));
; 1015 : 		}
; 1016 : 
; 1017 : 	_Myt& append(const _Myt& _Right,
; 1018 : 		size_type _Roff, size_type _Count)
; 1019 : 		{	// append _Right [_Roff, _Roff + _Count)
; 1020 : 		if (_Right.size() < _Roff)
; 1021 : 			_Xran();	// _Roff off end
; 1022 : 		size_type _Num = _Right.size() - _Roff;
; 1023 : 		if (_Num < _Count)
; 1024 : 			_Count = _Num;	// trim _Count to size
; 1025 : 		if (npos - this->_Mysize <= _Count)
; 1026 : 			_Xlen();	// result too long
; 1027 : 
; 1028 : 		if (0 < _Count && _Grow(_Num = this->_Mysize + _Count))
; 1029 : 			{	// make room and append new stuff
; 1030 : 			_Traits::copy(this->_Myptr() + this->_Mysize,
; 1031 : 				_Right._Myptr() + _Roff, _Count);
; 1032 : 			_Eos(_Num);
; 1033 : 			}
; 1034 : 		return (*this);
; 1035 : 		}
; 1036 : 
; 1037 : 	_Myt& append(const _Elem *_Ptr, size_type _Count)
; 1038 : 		{	// append [_Ptr, _Ptr + _Count)
; 1039 :  #if _ITERATOR_DEBUG_LEVEL == 2
; 1040 : 		if (_Count != 0)
; 1041 : 			_DEBUG_POINTER(_Ptr);
; 1042 :  #endif /* _ITERATOR_DEBUG_LEVEL == 2 */
; 1043 : 
; 1044 : 		if (_Inside(_Ptr))
; 1045 : 			return (append(*this,
; 1046 : 				_Ptr - this->_Myptr(), _Count));	// substring
; 1047 : 		if (npos - this->_Mysize <= _Count)
; 1048 : 			_Xlen();	// result too long
; 1049 : 
; 1050 : 		size_type _Num;
; 1051 : 		if (0 < _Count && _Grow(_Num = this->_Mysize + _Count))
; 1052 : 			{	// make room and append new stuff
; 1053 : 			_Traits::copy(this->_Myptr() + this->_Mysize, _Ptr, _Count);
; 1054 : 			_Eos(_Num);
; 1055 : 			}
; 1056 : 		return (*this);
; 1057 : 		}
; 1058 : 
; 1059 : 	_Myt& append(const _Elem *_Ptr)
; 1060 : 		{	// append [_Ptr, <null>)
; 1061 : 		_DEBUG_POINTER(_Ptr);
; 1062 : 		return (append(_Ptr, _Traits::length(_Ptr)));
; 1063 : 		}
; 1064 : 
; 1065 : 	_Myt& append(size_type _Count, _Elem _Ch)
; 1066 : 		{	// append _Count * _Ch
; 1067 : 		if (npos - this->_Mysize <= _Count)
; 1068 : 			_Xlen();	// result too long
; 1069 : 
; 1070 : 		size_type _Num;
; 1071 : 		if (0 < _Count && _Grow(_Num = this->_Mysize + _Count))
; 1072 : 			{	// make room and append new stuff using assign
; 1073 : 			_Chassign(this->_Mysize, _Count, _Ch);
; 1074 : 			_Eos(_Num);
; 1075 : 			}
; 1076 : 		return (*this);
; 1077 : 		}
; 1078 : 
; 1079 : 	template<class _Iter>
; 1080 : 		typename enable_if<_Is_iterator<_Iter>::value,
; 1081 : 			_Myt&>::type
; 1082 : 		append(_Iter _First, _Iter _Last)
; 1083 : 		{	// append [_First, _Last), input iterators
; 1084 : 		return (replace(end(), end(), _First, _Last));
; 1085 : 		}
; 1086 : 
; 1087 : 	_Myt& append(const_pointer _First, const_pointer _Last)
; 1088 : 		{	// append [_First, _Last), const pointers
; 1089 : 		return (replace(end(), end(), _First, _Last));
; 1090 : 		}
; 1091 : 
; 1092 : 	_Myt& append(const_iterator _First, const_iterator _Last)
; 1093 : 		{	// append [_First, _Last), const_iterators
; 1094 : 		return (replace(end(), end(), _First, _Last));
; 1095 : 		}
; 1096 : 
; 1097 : 	_Myt& assign(const _Myt& _Right)
; 1098 : 		{	// assign _Right
; 1099 : 		return (assign(_Right, 0, npos));
; 1100 : 		}
; 1101 : 
; 1102 : 	_Myt& assign(const _Myt& _Right,
; 1103 : 		size_type _Roff, size_type _Count)
; 1104 : 		{	// assign _Right [_Roff, _Roff + _Count)
; 1105 : 		if (_Right.size() < _Roff)
; 1106 : 			_Xran();	// _Roff off end
; 1107 : 		size_type _Num = _Right.size() - _Roff;
; 1108 : 		if (_Count < _Num)
; 1109 : 			_Num = _Count;	// trim _Num to size
; 1110 : 
; 1111 : 		if (this == &_Right)
; 1112 : 			erase((size_type)(_Roff + _Num)), erase(0, _Roff);	// substring
; 1113 : 		else if (_Grow(_Num))
; 1114 : 			{	// make room and assign new stuff
; 1115 : 			_Traits::copy(this->_Myptr(),
; 1116 : 				_Right._Myptr() + _Roff, _Num);
; 1117 : 			_Eos(_Num);
; 1118 : 			}
; 1119 : 		return (*this);
; 1120 : 		}
; 1121 : 
; 1122 : 	_Myt& assign(const _Elem *_Ptr, size_type _Count)
; 1123 : 		{	// assign [_Ptr, _Ptr + _Count)
; 1124 :  #if _ITERATOR_DEBUG_LEVEL == 2
; 1125 : 		if (_Count != 0)
; 1126 : 			_DEBUG_POINTER(_Ptr);
; 1127 :  #endif /* _ITERATOR_DEBUG_LEVEL == 2 */
; 1128 : 
; 1129 : 		if (_Inside(_Ptr))
; 1130 : 			return (assign(*this,
; 1131 : 				_Ptr - this->_Myptr(), _Count));	// substring
; 1132 : 
; 1133 : 		if (_Grow(_Count))
; 1134 : 			{	// make room and assign new stuff
; 1135 : 			_Traits::copy(this->_Myptr(), _Ptr, _Count);
; 1136 : 			_Eos(_Count);
; 1137 : 			}
; 1138 : 		return (*this);
; 1139 : 		}
; 1140 : 
; 1141 : 	_Myt& assign(const _Elem *_Ptr)
; 1142 : 		{	// assign [_Ptr, <null>)
; 1143 : 		_DEBUG_POINTER(_Ptr);
; 1144 : 		return (assign(_Ptr, _Traits::length(_Ptr)));
; 1145 : 		}
; 1146 : 
; 1147 : 	_Myt& assign(size_type _Count, _Elem _Ch)
; 1148 : 		{	// assign _Count * _Ch
; 1149 : 		if (_Count == npos)
; 1150 : 			_Xlen();	// result too long
; 1151 : 
; 1152 : 		if (_Grow(_Count))
; 1153 : 			{	// make room and assign new stuff
; 1154 : 			_Chassign(0, _Count, _Ch);
; 1155 : 			_Eos(_Count);
; 1156 : 			}
; 1157 : 		return (*this);
; 1158 : 		}
; 1159 : 
; 1160 : 	template<class _Iter>
; 1161 : 		typename enable_if<_Is_iterator<_Iter>::value,
; 1162 : 			_Myt&>::type
; 1163 : 		assign(_Iter _First, _Iter _Last)
; 1164 : 		{	// assign [First, _Last), input iterators
; 1165 : 		return (replace(begin(), end(), _First, _Last));
; 1166 : 		}
; 1167 : 
; 1168 : 	_Myt& assign(const_pointer _First, const_pointer _Last)
; 1169 : 		{	// assign [First, _Last), const pointers
; 1170 : 		return (replace(begin(), end(), _First, _Last));
; 1171 : 		}
; 1172 : 
; 1173 : 	_Myt& assign(const_iterator _First, const_iterator _Last)
; 1174 : 		{	// assign [First, _Last), const_iterators
; 1175 : 		return (replace(begin(), end(), _First, _Last));
; 1176 : 		}
; 1177 : 
; 1178 : 	_Myt& insert(size_type _Off, const _Myt& _Right)
; 1179 : 		{	// insert _Right at _Off
; 1180 : 		return (insert(_Off, _Right, 0, npos));
; 1181 : 		}
; 1182 : 
; 1183 : 	_Myt& insert(size_type _Off,
; 1184 : 		const _Myt& _Right, size_type _Roff, size_type _Count)
; 1185 : 		{	// insert _Right [_Roff, _Roff + _Count) at _Off
; 1186 : 		if (this->_Mysize < _Off || _Right.size() < _Roff)
; 1187 : 			_Xran();	// _Off or _Roff off end
; 1188 : 		size_type _Num = _Right.size() - _Roff;
; 1189 : 		if (_Num < _Count)
; 1190 : 			_Count = _Num;	// trim _Count to size
; 1191 : 		if (npos - this->_Mysize <= _Count)
; 1192 : 			_Xlen();	// result too long
; 1193 : 
; 1194 : 		if (0 < _Count && _Grow(_Num = this->_Mysize + _Count))
; 1195 : 			{	// make room and insert new stuff
; 1196 : 			_Traits::move(this->_Myptr() + _Off + _Count,
; 1197 : 				this->_Myptr() + _Off,
; 1198 : 				this->_Mysize - _Off);	// empty out hole
; 1199 : 			if (this == &_Right)
; 1200 : 				_Traits::move(this->_Myptr() + _Off,
; 1201 : 					this->_Myptr() + (_Off < _Roff ? _Roff + _Count : _Roff),
; 1202 : 						_Count);	// substring
; 1203 : 			else
; 1204 : 				_Traits::copy(this->_Myptr() + _Off,
; 1205 : 					_Right._Myptr() + _Roff, _Count);	// fill hole
; 1206 : 			_Eos(_Num);
; 1207 : 			}
; 1208 : 		return (*this);
; 1209 : 		}
; 1210 : 
; 1211 : 	_Myt& insert(size_type _Off,
; 1212 : 		const _Elem *_Ptr, size_type _Count)
; 1213 : 		{	// insert [_Ptr, _Ptr + _Count) at _Off
; 1214 :  #if _ITERATOR_DEBUG_LEVEL == 2
; 1215 : 		if (_Count != 0)
; 1216 : 			_DEBUG_POINTER(_Ptr);
; 1217 :  #endif /* _ITERATOR_DEBUG_LEVEL == 2 */
; 1218 : 
; 1219 : 		if (_Inside(_Ptr))
; 1220 : 			return (insert(_Off, *this,
; 1221 : 				_Ptr - this->_Myptr(), _Count));	// substring
; 1222 : 		if (this->_Mysize < _Off)
; 1223 : 			_Xran();	// _Off off end
; 1224 : 		if (npos - this->_Mysize <= _Count)
; 1225 : 			_Xlen();	// result too long
; 1226 : 		size_type _Num;
; 1227 : 		if (0 < _Count && _Grow(_Num = this->_Mysize + _Count))
; 1228 : 			{	// make room and insert new stuff
; 1229 : 			_Traits::move(this->_Myptr() + _Off + _Count,
; 1230 : 				this->_Myptr() + _Off,
; 1231 : 				this->_Mysize - _Off);	// empty out hole
; 1232 : 			_Traits::copy(this->_Myptr() + _Off, _Ptr, _Count);	// fill hole
; 1233 : 			_Eos(_Num);
; 1234 : 			}
; 1235 : 		return (*this);
; 1236 : 		}
; 1237 : 
; 1238 : 	_Myt& insert(size_type _Off, const _Elem *_Ptr)
; 1239 : 		{	// insert [_Ptr, <null>) at _Off
; 1240 : 		_DEBUG_POINTER(_Ptr);
; 1241 : 		return (insert(_Off, _Ptr, _Traits::length(_Ptr)));
; 1242 : 		}
; 1243 : 
; 1244 : 	_Myt& insert(size_type _Off,
; 1245 : 		size_type _Count, _Elem _Ch)
; 1246 : 		{	// insert _Count * _Ch at _Off
; 1247 : 		if (this->_Mysize < _Off)
; 1248 : 			_Xran();	// _Off off end
; 1249 : 		if (npos - this->_Mysize <= _Count)
; 1250 : 			_Xlen();	// result too long
; 1251 : 		size_type _Num;
; 1252 : 		if (0 < _Count && _Grow(_Num = this->_Mysize + _Count))
; 1253 : 			{	// make room and insert new stuff
; 1254 : 			_Traits::move(this->_Myptr() + _Off + _Count,
; 1255 : 				this->_Myptr() + _Off,
; 1256 : 				this->_Mysize - _Off);	// empty out hole
; 1257 : 			_Chassign(_Off, _Count, _Ch);	// fill hole
; 1258 : 			_Eos(_Num);
; 1259 : 			}
; 1260 : 		return (*this);
; 1261 : 		}
; 1262 : 
; 1263 : 	iterator insert(const_iterator _Where)
; 1264 : 		{	// insert <null> at _Where
; 1265 : 		return (insert(_Where, _Elem()));
; 1266 : 		}
; 1267 : 
; 1268 : 	iterator insert(const_iterator _Where, _Elem _Ch)
; 1269 : 		{	// insert _Ch at _Where
; 1270 : 		size_type _Off = _Pdif(_Where, begin());
; 1271 : 		insert(_Off, 1, _Ch);
; 1272 : 		return (begin() + _Off);
; 1273 : 		}
; 1274 : 
; 1275 : 	iterator insert(const_iterator _Where, size_type _Count, _Elem _Ch)
; 1276 : 		{	// insert _Count * _Elem at _Where
; 1277 : 		size_type _Off = _Pdif(_Where, begin());
; 1278 : 		insert(_Off, _Count, _Ch);
; 1279 : 		return (begin() + _Off);
; 1280 : 		}
; 1281 : 
; 1282 : 	template<class _Iter>
; 1283 : 		typename enable_if<_Is_iterator<_Iter>::value,
; 1284 : 			iterator>::type
; 1285 : 		insert(const_iterator _Where, _Iter _First, _Iter _Last)
; 1286 : 		{	// insert [_First, _Last) at _Where, input iterators
; 1287 : 		size_type _Off = _Pdif(_Where, begin());
; 1288 : 		replace(_Where, _Where, _First, _Last);
; 1289 : 		return (begin() + _Off);
; 1290 : 		}
; 1291 : 
; 1292 : 	iterator insert(const_iterator _Where,
; 1293 : 		const_pointer _First, const_pointer _Last)
; 1294 : 		{	// insert [_First, _Last) at _Where, const pointers
; 1295 : 		size_type _Off = _Pdif(_Where, begin());
; 1296 : 		replace(_Where, _Where, _First, _Last);
; 1297 : 		return (begin() + _Off);
; 1298 : 		}
; 1299 : 
; 1300 : 	iterator insert(const_iterator _Where,
; 1301 : 		const_iterator _First, const_iterator _Last)
; 1302 : 		{	// insert [_First, _Last) at _Where, const_iterators
; 1303 : 		size_type _Off = _Pdif(_Where, begin());
; 1304 : 		replace(_Where, _Where, _First, _Last);
; 1305 : 		return (begin() + _Off);
; 1306 : 		}
; 1307 : 
; 1308 : 	_Myt& erase(size_type _Off = 0)
; 1309 : 		{	// erase elements [_Off, ...)
; 1310 : 		if (this->_Mysize < _Off)
; 1311 : 			_Xran();	// _Off off end
; 1312 : 		_Eos(_Off);
; 1313 : 		return (*this);
; 1314 : 		}
; 1315 : 
; 1316 : 	_Myt& erase(size_type _Off, size_type _Count)
; 1317 : 		{	// erase elements [_Off, _Off + _Count)
; 1318 : 		if (this->_Mysize < _Off)
; 1319 : 			_Xran();	// _Off off end
; 1320 : 		if (this->_Mysize - _Off <= _Count)
; 1321 : 			_Eos(_Off);	// erase elements [_Off, ...)
; 1322 : 		else if (0 < _Count)
; 1323 : 			{	// move elements down
; 1324 : 			value_type *_Ptr = this->_Myptr() + _Off;
; 1325 : 			size_type _Newsize = this->_Mysize - _Count;
; 1326 : 			_Traits::move(_Ptr, _Ptr + _Count, _Newsize - _Off);
; 1327 : 			_Eos(_Newsize);
; 1328 : 			}
; 1329 : 		return (*this);
; 1330 : 		}
; 1331 : 
; 1332 : 	iterator erase(const_iterator _Where)
; 1333 : 		{	// erase element at _Where
; 1334 : 		size_type _Count = _Pdif(_Where, begin());
; 1335 : 		erase(_Count, 1);
; 1336 : 		return (_STRING_ITERATOR(this->_Myptr() + _Count));
; 1337 : 		}
; 1338 : 
; 1339 : 	iterator erase(const_iterator _First, const_iterator _Last)
; 1340 : 		{	// erase substring [_First, _Last)
; 1341 : 		_DEBUG_RANGE(_First, _Last);
; 1342 : 		size_type _Count = _Pdif(_First, begin());
; 1343 : 		erase(_Count, _Pdif(_Last, _First));
; 1344 : 		return (_STRING_ITERATOR(this->_Myptr() + _Count));
; 1345 : 		}
; 1346 : 
; 1347 : 	void clear() _NOEXCEPT
; 1348 : 		{	// erase all
; 1349 : 		_Eos(0);
; 1350 : 		}
; 1351 : 
; 1352 : 	_Myt& replace(size_type _Off, size_type _N0, const _Myt& _Right)
; 1353 : 		{	// replace [_Off, _Off + _N0) with _Right
; 1354 : 		return (replace(_Off, _N0, _Right, 0, npos));
; 1355 : 		}
; 1356 : 
; 1357 : 	_Myt& replace(size_type _Off,
; 1358 : 		size_type _N0, const _Myt& _Right, size_type _Roff, size_type _Count)
; 1359 : 		{	// replace [_Off, _Off + _N0) with _Right [_Roff, _Roff + _Count)
; 1360 : 		if (this->_Mysize < _Off || _Right.size() < _Roff)
; 1361 : 			_Xran();	// _Off or _Roff off end
; 1362 : 		if (this->_Mysize - _Off < _N0)
; 1363 : 			_N0 = this->_Mysize - _Off;	// trim _N0 to size
; 1364 : 		size_type _Num = _Right.size() - _Roff;
; 1365 : 		if (_Num < _Count)
; 1366 : 			_Count = _Num;	// trim _Count to size
; 1367 : 		if (npos - _Count <= this->_Mysize - _N0)
; 1368 : 			_Xlen();	// result too long
; 1369 : 
; 1370 : 		size_type _Nm = this->_Mysize - _N0 - _Off;	// length of kept tail
; 1371 : 		size_type _Newsize = this->_Mysize + _Count - _N0;
; 1372 : 		if (this->_Mysize < _Newsize)
; 1373 : 			_Grow(_Newsize);
; 1374 : 
; 1375 : 		if (this != &_Right)
; 1376 : 			{	// no overlap, just move down and copy in new stuff
; 1377 : 			_Traits::move(this->_Myptr() + _Off + _Count,
; 1378 : 				this->_Myptr() + _Off + _N0, _Nm);	// empty hole
; 1379 : 			_Traits::copy(this->_Myptr() + _Off,
; 1380 : 				_Right._Myptr() + _Roff, _Count);	// fill hole
; 1381 : 			}
; 1382 : 		else if (_Count <= _N0)
; 1383 : 			{	// hole doesn't get larger, just copy in substring
; 1384 : 			_Traits::move(this->_Myptr() + _Off,
; 1385 : 				this->_Myptr() + _Roff, _Count);	// fill hole
; 1386 : 			_Traits::move(this->_Myptr() + _Off + _Count,
; 1387 : 				this->_Myptr() + _Off + _N0, _Nm);	// move tail down
; 1388 : 			}
; 1389 : 		else if (_Roff <= _Off)
; 1390 : 			{	// hole gets larger, substring begins before hole
; 1391 : 			_Traits::move(this->_Myptr() + _Off + _Count,
; 1392 : 				this->_Myptr() + _Off + _N0, _Nm);	// move tail down
; 1393 : 			_Traits::move(this->_Myptr() + _Off,
; 1394 : 				this->_Myptr() + _Roff, _Count);	// fill hole
; 1395 : 			}
; 1396 : 		else if (_Off + _N0 <= _Roff)
; 1397 : 			{	// hole gets larger, substring begins after hole
; 1398 : 			_Traits::move(this->_Myptr() + _Off + _Count,
; 1399 : 				this->_Myptr() + _Off + _N0, _Nm);	// move tail down
; 1400 : 			_Traits::move(this->_Myptr() + _Off,
; 1401 : 				this->_Myptr() + (_Roff + _Count - _N0),
; 1402 : 				_Count);	// fill hole
; 1403 : 			}
; 1404 : 		else
; 1405 : 			{	// hole gets larger, substring begins in hole
; 1406 : 			_Traits::move(this->_Myptr() + _Off,
; 1407 : 				this->_Myptr() + _Roff, _N0);	// fill old hole
; 1408 : 			_Traits::move(this->_Myptr() + _Off + _Count,
; 1409 : 				this->_Myptr() + _Off + _N0, _Nm);	// move tail down
; 1410 : 			_Traits::move(this->_Myptr() + _Off + _N0,
; 1411 : 				this->_Myptr() + _Roff + _Count,
; 1412 : 				_Count - _N0);	// fill rest of new hole
; 1413 : 			}
; 1414 : 
; 1415 : 		_Eos(_Newsize);
; 1416 : 		return (*this);
; 1417 : 		}
; 1418 : 
; 1419 : 	_Myt& replace(size_type _Off,
; 1420 : 		size_type _N0, const _Elem *_Ptr, size_type _Count)
; 1421 : 		{	// replace [_Off, _Off + _N0) with [_Ptr, _Ptr + _Count)
; 1422 :  #if _ITERATOR_DEBUG_LEVEL == 2
; 1423 : 		if (_Count != 0)
; 1424 : 			_DEBUG_POINTER(_Ptr);
; 1425 :  #endif /* _ITERATOR_DEBUG_LEVEL == 2 */
; 1426 : 
; 1427 : 		if (_Inside(_Ptr))
; 1428 : 			return (replace(_Off, _N0, *this,
; 1429 : 				_Ptr - this->_Myptr(),
; 1430 : 				_Count));	// substring, replace carefully
; 1431 : 		if (this->_Mysize < _Off)
; 1432 : 			_Xran();	// _Off off end
; 1433 : 		if (this->_Mysize - _Off < _N0)
; 1434 : 			_N0 = this->_Mysize - _Off;	// trim _N0 to size
; 1435 : 		if (npos - _Count <= this->_Mysize - _N0)
; 1436 : 			_Xlen();	// result too long
; 1437 : 		size_type _Nm = this->_Mysize - _N0 - _Off;
; 1438 : 
; 1439 : 		if (_Count < _N0)
; 1440 : 			_Traits::move(this->_Myptr() + _Off + _Count,
; 1441 : 				this->_Myptr() + _Off + _N0,
; 1442 : 				_Nm);	// smaller hole, move tail up
; 1443 : 		size_type _Num;
; 1444 : 		if ((0 < _Count || 0 < _N0)
; 1445 : 			&& _Grow(_Num = this->_Mysize + _Count - _N0))
; 1446 : 			{	// make room and rearrange
; 1447 : 			if (_N0 < _Count)
; 1448 : 				_Traits::move(this->_Myptr() + _Off + _Count,
; 1449 : 					this->_Myptr() + _Off + _N0, _Nm);	// move tail down
; 1450 : 			_Traits::copy(this->_Myptr() + _Off, _Ptr, _Count);	// fill hole
; 1451 : 			_Eos(_Num);
; 1452 : 			}
; 1453 : 		return (*this);
; 1454 : 		}
; 1455 : 
; 1456 : 	_Myt& replace(size_type _Off, size_type _N0, const _Elem *_Ptr)
; 1457 : 		{	// replace [_Off, _Off + _N0) with [_Ptr, <null>)
; 1458 : 		_DEBUG_POINTER(_Ptr);
; 1459 : 		return (replace(_Off, _N0, _Ptr, _Traits::length(_Ptr)));
; 1460 : 		}
; 1461 : 
; 1462 : 	_Myt& replace(size_type _Off,
; 1463 : 		size_type _N0, size_type _Count, _Elem _Ch)
; 1464 : 		{	// replace [_Off, _Off + _N0) with _Count * _Ch
; 1465 : 		if (this->_Mysize < _Off)
; 1466 : 			_Xran();	// _Off off end
; 1467 : 		if (this->_Mysize - _Off < _N0)
; 1468 : 			_N0 = this->_Mysize - _Off;	// trim _N0 to size
; 1469 : 		if (npos - _Count <= this->_Mysize - _N0)
; 1470 : 			_Xlen();	// result too long
; 1471 : 		size_type _Nm = this->_Mysize - _N0 - _Off;
; 1472 : 
; 1473 : 		if (_Count < _N0)
; 1474 : 			_Traits::move(this->_Myptr() + _Off + _Count,
; 1475 : 				this->_Myptr() + _Off + _N0,
; 1476 : 				_Nm);	// smaller hole, move tail up
; 1477 : 		size_type _Num;
; 1478 : 		if ((0 < _Count || 0 < _N0)
; 1479 : 			&& _Grow(_Num = this->_Mysize + _Count - _N0))
; 1480 : 			{	// make room and rearrange
; 1481 : 			if (_N0 < _Count)
; 1482 : 				_Traits::move(this->_Myptr() + _Off + _Count,
; 1483 : 					this->_Myptr() + _Off + _N0, _Nm);	// move tail down
; 1484 : 			_Chassign(_Off, _Count, _Ch);	// fill hole
; 1485 : 			_Eos(_Num);
; 1486 : 			}
; 1487 : 		return (*this);
; 1488 : 		}
; 1489 : 
; 1490 : 	_Myt& replace(const_iterator _First, const_iterator _Last,
; 1491 : 		const _Myt& _Right)
; 1492 : 		{	// replace [_First, _Last) with _Right
; 1493 : 		return (replace(
; 1494 : 			_Pdif(_First, begin()), _Pdif(_Last, _First), _Right));
; 1495 : 		}
; 1496 : 
; 1497 : 	_Myt& replace(const_iterator _First, const_iterator _Last,
; 1498 : 		const _Elem *_Ptr, size_type _Count)
; 1499 : 		{	// replace [_First, _Last) with [_Ptr, _Ptr + _Count)
; 1500 : 		return (replace(
; 1501 : 			_Pdif(_First, begin()), _Pdif(_Last, _First), _Ptr, _Count));
; 1502 : 		}
; 1503 : 
; 1504 : 	_Myt& replace(const_iterator _First, const_iterator _Last,
; 1505 : 		const _Elem *_Ptr)
; 1506 : 		{	// replace [_First, _Last) with [_Ptr, <null>)
; 1507 : 		return (replace(
; 1508 : 			_Pdif(_First, begin()), _Pdif(_Last, _First), _Ptr));
; 1509 : 		}
; 1510 : 
; 1511 : 	_Myt& replace(const_iterator _First, const_iterator _Last,
; 1512 : 		size_type _Count, _Elem _Ch)
; 1513 : 		{	// replace [_First, _Last) with _Count * _Ch
; 1514 : 		return (replace(
; 1515 : 			_Pdif(_First, begin()), _Pdif(_Last, _First), _Count, _Ch));
; 1516 : 		}
; 1517 : 
; 1518 : 	template<class _Iter>
; 1519 : 		typename enable_if<_Is_iterator<_Iter>::value,
; 1520 : 			_Myt&>::type
; 1521 : 		replace(const_iterator _First, const_iterator _Last,
; 1522 : 			_Iter _First2, _Iter _Last2)
; 1523 : 		{	// replace [_First, _Last) with [_First2, _Last2), input iterators
; 1524 : 		_Myt _Right(_First2, _Last2);
; 1525 : 		replace(_First, _Last, _Right);
; 1526 : 		return (*this);
; 1527 : 		}
; 1528 : 
; 1529 : 	_Myt& replace(const_iterator _First, const_iterator _Last,
; 1530 : 		const_pointer _First2, const_pointer _Last2)
; 1531 : 		{	// replace [_First, _Last) with [_First2, _Last2), const pointers
; 1532 : 		if (_First2 == _Last2)
; 1533 : 			erase(_Pdif(_First, begin()), _Pdif(_Last, _First));
; 1534 : 		else
; 1535 : 			replace(_Pdif(_First, begin()), _Pdif(_Last, _First),
; 1536 : 				&*_First2, _Last2 - _First2);
; 1537 : 		return (*this);
; 1538 : 		}
; 1539 : 
; 1540 : 	_Myt& replace(const_iterator _First, const_iterator _Last,
; 1541 : 		pointer _First2, pointer _Last2)
; 1542 : 		{	// replace [_First, _Last) with [_First2, _Last2), const pointers
; 1543 : 		if (_First2 == _Last2)
; 1544 : 			erase(_Pdif(_First, begin()), _Pdif(_Last, _First));
; 1545 : 		else
; 1546 : 			replace(_Pdif(_First, begin()), _Pdif(_Last, _First),
; 1547 : 				&*_First2, _Last2 - _First2);
; 1548 : 		return (*this);
; 1549 : 		}
; 1550 : 
; 1551 : 	_Myt& replace(const_iterator _First, const_iterator _Last,
; 1552 : 		const_iterator _First2, const_iterator _Last2)
; 1553 : 		{	// replace [_First, _Last) with [_First2, _Last2), const_iterators
; 1554 : 		if (_First2 == _Last2)
; 1555 : 			erase(_Pdif(_First, begin()), _Pdif(_Last, _First));
; 1556 : 		else
; 1557 : 			replace(_Pdif(_First, begin()), _Pdif(_Last, _First),
; 1558 : 				&*_First2, _Last2 - _First2);
; 1559 : 		return (*this);
; 1560 : 		}
; 1561 : 
; 1562 : 	_Myt& replace(const_iterator _First, const_iterator _Last,
; 1563 : 		iterator _First2, iterator _Last2)
; 1564 : 		{	// replace [_First, _Last) with [_First2, _Last2), const_iterators
; 1565 : 		if (_First2 == _Last2)
; 1566 : 			erase(_Pdif(_First, begin()), _Pdif(_Last, _First));
; 1567 : 		else
; 1568 : 			replace(_Pdif(_First, begin()), _Pdif(_Last, _First),
; 1569 : 				&*_First2, _Last2 - _First2);
; 1570 : 		return (*this);
; 1571 : 		}
; 1572 : 
; 1573 : 	iterator begin() _NOEXCEPT
; 1574 : 		{	// return iterator for beginning of mutable sequence
; 1575 : 		return (_STRING_ITERATOR(this->_Myptr()));
; 1576 : 		}
; 1577 : 
; 1578 : 	const_iterator begin() const _NOEXCEPT
; 1579 : 		{	// return iterator for beginning of nonmutable sequence
; 1580 : 		return (_STRING_CONST_ITERATOR(this->_Myptr()));
; 1581 : 		}
; 1582 : 
; 1583 : 	iterator end() _NOEXCEPT
; 1584 : 		{	// return iterator for end of mutable sequence
; 1585 : 		return (_STRING_ITERATOR(this->_Myptr() + this->_Mysize));
; 1586 : 		}
; 1587 : 
; 1588 : 	const_iterator end() const _NOEXCEPT
; 1589 : 		{	// return iterator for end of nonmutable sequence
; 1590 : 		return (_STRING_CONST_ITERATOR(this->_Myptr() + this->_Mysize));
; 1591 : 		}
; 1592 : 
; 1593 : 	reverse_iterator rbegin() _NOEXCEPT
; 1594 : 		{	// return iterator for beginning of reversed mutable sequence
; 1595 : 		return (reverse_iterator(end()));
; 1596 : 		}
; 1597 : 
; 1598 : 	const_reverse_iterator rbegin() const _NOEXCEPT
; 1599 : 		{	// return iterator for beginning of reversed nonmutable sequence
; 1600 : 		return (const_reverse_iterator(end()));
; 1601 : 		}
; 1602 : 
; 1603 : 	reverse_iterator rend() _NOEXCEPT
; 1604 : 		{	// return iterator for end of reversed mutable sequence
; 1605 : 		return (reverse_iterator(begin()));
; 1606 : 		}
; 1607 : 
; 1608 : 	const_reverse_iterator rend() const _NOEXCEPT
; 1609 : 		{	// return iterator for end of reversed nonmutable sequence
; 1610 : 		return (const_reverse_iterator(begin()));
; 1611 : 		}
; 1612 : 
; 1613 :  #if _HAS_CPP0X
; 1614 : 	const_iterator cbegin() const _NOEXCEPT
; 1615 : 		{	// return iterator for beginning of nonmutable sequence
; 1616 : 		return (((const _Myt *)this)->begin());
; 1617 : 		}
; 1618 : 
; 1619 : 	const_iterator cend() const _NOEXCEPT
; 1620 : 		{	// return iterator for end of nonmutable sequence
; 1621 : 		return (((const _Myt *)this)->end());
; 1622 : 		}
; 1623 : 
; 1624 : 	const_reverse_iterator crbegin() const _NOEXCEPT
; 1625 : 		{	// return iterator for beginning of reversed nonmutable sequence
; 1626 : 		return (((const _Myt *)this)->rbegin());
; 1627 : 		}
; 1628 : 
; 1629 : 	const_reverse_iterator crend() const _NOEXCEPT
; 1630 : 		{	// return iterator for end of reversed nonmutable sequence
; 1631 : 		return (((const _Myt *)this)->rend());
; 1632 : 		}
; 1633 : 
; 1634 : 	void shrink_to_fit()
; 1635 : 		{	// reduce capacity
; 1636 : 		if ((size() | this->_ALLOC_MASK) < capacity())
; 1637 : 			{	// worth shrinking, do it
; 1638 : 			_Myt _Tmp(*this);
; 1639 : 			swap(_Tmp);
; 1640 : 			}
; 1641 : 		}
; 1642 :  #endif /* _HAS_CPP0X */
; 1643 : 
; 1644 : 	reference at(size_type _Off)
; 1645 : 		{	// subscript mutable sequence with checking
; 1646 : 		if (this->_Mysize <= _Off)
; 1647 : 			_Xran();	// _Off off end
; 1648 : 		return (this->_Myptr()[_Off]);
; 1649 : 		}
; 1650 : 
; 1651 : 	const_reference at(size_type _Off) const
; 1652 : 		{	// subscript nonmutable sequence with checking
; 1653 : 		if (this->_Mysize <= _Off)
; 1654 : 			_Xran();	// _Off off end
; 1655 : 		return (this->_Myptr()[_Off]);
; 1656 : 		}
; 1657 : 
; 1658 : 	reference operator[](size_type _Off)
; 1659 : 		{	// subscript mutable sequence
; 1660 :  #if _ITERATOR_DEBUG_LEVEL == 2
; 1661 : 		if (this->_Mysize < _Off)	// sic
; 1662 : 			_DEBUG_ERROR("string subscript out of range");
; 1663 : 
; 1664 :  #elif _ITERATOR_DEBUG_LEVEL == 1
; 1665 : 		_SCL_SECURE_VALIDATE_RANGE(_Off <= this->_Mysize);	// sic
; 1666 :  #endif /* _ITERATOR_DEBUG_LEVEL == 2 */
; 1667 : 
; 1668 : 		return (this->_Myptr()[_Off]);
; 1669 : 		}
; 1670 : 
; 1671 : 	const_reference operator[](size_type _Off) const
; 1672 : 		{	// subscript nonmutable sequence
; 1673 :  #if _ITERATOR_DEBUG_LEVEL == 2
; 1674 : 		if (this->_Mysize < _Off)	// sic
; 1675 : 			_DEBUG_ERROR("string subscript out of range");
; 1676 : 
; 1677 :  #elif _ITERATOR_DEBUG_LEVEL == 1
; 1678 : 		_SCL_SECURE_VALIDATE_RANGE(_Off <= this->_Mysize);	// sic
; 1679 :  #endif /* _ITERATOR_DEBUG_LEVEL == 2 */
; 1680 : 
; 1681 : 		return (this->_Myptr()[_Off]);
; 1682 : 		}
; 1683 : 
; 1684 : 	void push_back(_Elem _Ch)
; 1685 : 		{	// insert element at end
; 1686 : 		insert(end(), _Ch);
; 1687 : 		}
; 1688 : 
; 1689 :  #if _HAS_CPP0X
; 1690 : 	void pop_back()
; 1691 : 		{	// erase element at end
; 1692 : 		erase(this->_Mysize - 1);	// throws if _Mysize == 0
; 1693 : 		}
; 1694 : 
; 1695 : 	reference front()
; 1696 : 		{	// return first element of mutable sequence
; 1697 : 		return (*begin());
; 1698 : 		}
; 1699 : 
; 1700 : 	const_reference front() const
; 1701 : 		{	// return first element of nonmutable sequence
; 1702 : 		return (*begin());
; 1703 : 		}
; 1704 : 
; 1705 : 	reference back()
; 1706 : 		{	// return last element of mutable sequence
; 1707 : 		return (*(end() - 1));
; 1708 : 		}
; 1709 : 
; 1710 : 	const_reference back() const
; 1711 : 		{	// return last element of nonmutable sequence
; 1712 : 		return (*(end() - 1));
; 1713 : 		}
; 1714 :  #endif /* _HAS_CPP0X */
; 1715 : 
; 1716 : 	const _Elem *c_str() const _NOEXCEPT
; 1717 : 		{	// return pointer to null-terminated nonmutable array
; 1718 : 		return (this->_Myptr());
; 1719 : 		}
; 1720 : 
; 1721 : 	const _Elem *data() const _NOEXCEPT
; 1722 : 		{	// return pointer to nonmutable array
; 1723 : 		return (c_str());
; 1724 : 		}
; 1725 : 
; 1726 : 	size_type length() const _NOEXCEPT
; 1727 : 		{	// return length of sequence
; 1728 : 		return (this->_Mysize);
; 1729 : 		}
; 1730 : 
; 1731 : 	size_type size() const _NOEXCEPT
; 1732 : 		{	// return length of sequence
; 1733 : 		return (this->_Mysize);
; 1734 : 		}
; 1735 : 
; 1736 : 	size_type max_size() const _NOEXCEPT
; 1737 : 		{	// return maximum possible length of sequence
; 1738 : 		size_type _Num = this->_Getal().max_size();
; 1739 : 		return (_Num <= 1 ? 1 : _Num - 1);

  00063	bf fe ff ff ff	 mov	 edi, -2			; fffffffeH
$LN47@Copy:

; 2196 : 			_Ptr = this->_Getal().allocate(_Newres + 1);

  00068	8d 4f 01	 lea	 ecx, DWORD PTR [edi+1]
; File c:\program files (x86)\microsoft visual studio 11.0\vc\include\xmemory0

; 23   : 	void *_Ptr = 0;

  0006b	33 c0		 xor	 eax, eax
; File c:\program files (x86)\microsoft visual studio 11.0\vc\include\xstring

; 2195 : 		_TRY_BEGIN

  0006d	c7 45 fc 00 00
	00 00		 mov	 DWORD PTR __$EHRec$[ebp+12], 0
; File c:\program files (x86)\microsoft visual studio 11.0\vc\include\xmemory0

; 23   : 	void *_Ptr = 0;

  00074	89 45 ec	 mov	 DWORD PTR __Ptr$1$[ebp], eax

; 24   : 
; 25   : 	if (_Count == 0)

  00077	85 c9		 test	 ecx, ecx
  00079	74 45		 je	 SHORT $LN19@Copy

; 26   : 		;
; 27   : 	else if (((size_t)(-1) / sizeof (_Ty) < _Count)
; 28   : 		|| (_Ptr = ::operator new(_Count * sizeof (_Ty))) == 0)

  0007b	83 f9 ff	 cmp	 ecx, -1
  0007e	77 11		 ja	 SHORT $LN62@Copy
  00080	51		 push	 ecx
  00081	ff 15 00 00 00
	00		 call	 DWORD PTR __imp_??2@YAPAXI@Z
  00087	83 c4 04	 add	 esp, 4
  0008a	89 45 ec	 mov	 DWORD PTR __Ptr$1$[ebp], eax
  0008d	85 c0		 test	 eax, eax
  0008f	75 2f		 jne	 SHORT $LN19@Copy
$LN62@Copy:

; 29   : 		_Xbad_alloc();	// report no memory

  00091	ff 15 00 00 00
	00		 call	 DWORD PTR __imp_?_Xbad_alloc@std@@YAXXZ
$LN174@Copy:
__catch$?_Copy@?$basic_string@DU?$char_traits@D@std@@V?$allocator@D@2@@std@@QAEXII@Z$0:
; File c:\program files (x86)\microsoft visual studio 11.0\vc\include\xstring

; 2198 : 			_Newres = _Newsize;	// allocation failed, undo roundup and retry

  00097	8b 45 08	 mov	 eax, DWORD PTR __Newsize$[ebp]
  0009a	89 45 08	 mov	 DWORD PTR __Newres$[ebp], eax

; 2199 : 			_TRY_BEGIN
; 2200 : 				_Ptr = this->_Getal().allocate(_Newres + 1);

  0009d	40		 inc	 eax
  0009e	89 65 f0	 mov	 DWORD PTR __$EHRec$[ebp], esp
  000a1	50		 push	 eax
  000a2	c6 45 fc 02	 mov	 BYTE PTR __$EHRec$[ebp+12], 2
  000a6	e8 00 00 00 00	 call	 ?allocate@?$_Wrap_alloc@V?$allocator@D@std@@@std@@QAEPADI@Z ; std::_Wrap_alloc<std::allocator<char> >::allocate
  000ab	89 45 ec	 mov	 DWORD PTR __Ptr$[ebp], eax

; 2204 : 			_CATCH_END
; 2205 : 		_CATCH_END

  000ae	b8 00 00 00 00	 mov	 eax, $LN171@Copy
  000b3	c3		 ret	 0
$LN171@Copy:
  000b4	8b 45 ec	 mov	 eax, DWORD PTR __Ptr$[ebp]
  000b7	8b 75 e8	 mov	 esi, DWORD PTR _this$[ebp]
  000ba	8b 7d 08	 mov	 edi, DWORD PTR __Newres$[ebp]
  000bd	89 45 ec	 mov	 DWORD PTR __Ptr$1$[ebp], eax
$LN19@Copy:

; 2206 : 
; 2207 : 		if (0 < _Oldlen)

  000c0	8b 5d 0c	 mov	 ebx, DWORD PTR __Oldlen$[ebp]
  000c3	85 db		 test	 ebx, ebx
  000c5	74 49		 je	 SHORT $LN112@Copy

; 517  : 			: this->_Bx._Buf);

  000c7	83 7e 14 10	 cmp	 DWORD PTR [esi+20], 16	; 00000010H
  000cb	72 32		 jb	 SHORT $LN105@Copy
; File c:\program files (x86)\microsoft visual studio 11.0\vc\include\xstddef

; 88   : 		reinterpret_cast<const volatile char&>(_Val)))));

  000cd	8b 0e		 mov	 ecx, DWORD PTR [esi]
; File c:\program files (x86)\microsoft visual studio 11.0\vc\include\xstring

; 517  : 			: this->_Bx._Buf);

  000cf	eb 30		 jmp	 SHORT $LN106@Copy
__catch$?_Copy@?$basic_string@DU?$char_traits@D@std@@V?$allocator@D@2@@std@@QAEXII@Z$1:

; 2256 : 		else if (this->_BUF_SIZE <= this->_Myres)

  000d1	8b 75 e8	 mov	 esi, DWORD PTR _this$[ebp]
  000d4	83 7e 14 10	 cmp	 DWORD PTR [esi+20], 16	; 00000010H
  000d8	72 0b		 jb	 SHORT $LN91@Copy
; File c:\program files (x86)\microsoft visual studio 11.0\vc\include\xmemory0

; 586  : 		::operator delete(_Ptr);

  000da	ff 36		 push	 DWORD PTR [esi]
  000dc	ff 15 00 00 00
	00		 call	 DWORD PTR __imp_??3@YAXPAX@Z
  000e2	83 c4 04	 add	 esp, 4
$LN91@Copy:
; File c:\program files (x86)\microsoft visual studio 11.0\vc\include\xstring

; 2203 : 			_RERAISE;

  000e5	6a 00		 push	 0

; 2257 : 			{	// copy any leftovers to small buffer and deallocate
; 2258 : 			pointer _Ptr = this->_Bx._Ptr;
; 2259 : 			this->_Getal().destroy(&this->_Bx._Ptr);
; 2260 : 			if (0 < _Newsize)
; 2261 : 				_Traits::copy(this->_Bx._Buf,
; 2262 : 					_STD addressof(*_Ptr), _Newsize);
; 2263 : 			this->_Getal().deallocate(_Ptr, this->_Myres + 1);
; 2264 : 			}
; 2265 : 		this->_Myres = this->_BUF_SIZE - 1;

  000e7	c7 46 14 0f 00
	00 00		 mov	 DWORD PTR [esi+20], 15	; 0000000fH

; 2215 : 
; 2216 : 	void _Eos(size_type _Newsize)
; 2217 : 		{	// set new length and null terminator
; 2218 : 		_Traits::assign(this->_Myptr()[this->_Mysize = _Newsize], _Elem());

  000ee	c7 46 10 00 00
	00 00		 mov	 DWORD PTR [esi+16], 0

; 2203 : 			_RERAISE;

  000f5	6a 00		 push	 0
; File c:\program files (x86)\microsoft visual studio 11.0\vc\include\iosfwd

; 564  : 		_Left = _Right;

  000f7	c6 06 00	 mov	 BYTE PTR [esi], 0
; File c:\program files (x86)\microsoft visual studio 11.0\vc\include\xstring

; 2203 : 			_RERAISE;

  000fa	e8 00 00 00 00	 call	 __CxxThrowException@8
$LN175@Copy:
$LN105@Copy:

; 517  : 			: this->_Bx._Buf);

  000ff	8b ce		 mov	 ecx, esi
$LN106@Copy:
; File c:\program files (x86)\microsoft visual studio 11.0\vc\include\iosfwd

; 530  : 			: (_Elem *)_CSTD memcpy(_First1, _First2, _Count));

  00101	85 db		 test	 ebx, ebx
  00103	74 0b		 je	 SHORT $LN112@Copy
  00105	53		 push	 ebx
  00106	51		 push	 ecx
  00107	50		 push	 eax
  00108	e8 00 00 00 00	 call	 _memcpy
  0010d	83 c4 0c	 add	 esp, 12			; 0000000cH
$LN112@Copy:
; File c:\program files (x86)\microsoft visual studio 11.0\vc\include\xstring

; 2256 : 		else if (this->_BUF_SIZE <= this->_Myres)

  00110	83 7e 14 10	 cmp	 DWORD PTR [esi+20], 16	; 00000010H
  00114	72 0b		 jb	 SHORT $LN131@Copy
; File c:\program files (x86)\microsoft visual studio 11.0\vc\include\xmemory0

; 586  : 		::operator delete(_Ptr);

  00116	ff 36		 push	 DWORD PTR [esi]
  00118	ff 15 00 00 00
	00		 call	 DWORD PTR __imp_??3@YAXPAX@Z
  0011e	83 c4 04	 add	 esp, 4
$LN131@Copy:

; 617  : _VARIADIC_EXPAND_0X(_ALLOC_MEMBER_CONSTRUCT, , , , )

  00121	8b 45 ec	 mov	 eax, DWORD PTR __Ptr$1$[ebp]
; File c:\program files (x86)\microsoft visual studio 11.0\vc\include\iosfwd

; 564  : 		_Left = _Right;

  00124	c6 06 00	 mov	 BYTE PTR [esi], 0
; File c:\program files (x86)\microsoft visual studio 11.0\vc\include\xmemory0

; 617  : _VARIADIC_EXPAND_0X(_ALLOC_MEMBER_CONSTRUCT, , , , )

  00127	89 06		 mov	 DWORD PTR [esi], eax
; File c:\program files (x86)\microsoft visual studio 11.0\vc\include\xstring

; 2212 : 		this->_Myres = _Newres;

  00129	89 7e 14	 mov	 DWORD PTR [esi+20], edi

; 2215 : 
; 2216 : 	void _Eos(size_type _Newsize)
; 2217 : 		{	// set new length and null terminator
; 2218 : 		_Traits::assign(this->_Myptr()[this->_Mysize = _Newsize], _Elem());

  0012c	89 5e 10	 mov	 DWORD PTR [esi+16], ebx

; 517  : 			: this->_Bx._Buf);

  0012f	83 ff 10	 cmp	 edi, 16			; 00000010H
  00132	72 02		 jb	 SHORT $LN166@Copy
; File c:\program files (x86)\microsoft visual studio 11.0\vc\include\xstddef

; 88   : 		reinterpret_cast<const volatile char&>(_Val)))));

  00134	8b f0		 mov	 esi, eax
$LN166@Copy:
; File c:\program files (x86)\microsoft visual studio 11.0\vc\include\iosfwd

; 564  : 		_Left = _Right;

  00136	c6 04 1e 00	 mov	 BYTE PTR [esi+ebx], 0
; File c:\program files (x86)\microsoft visual studio 11.0\vc\include\xstring

; 2214 : 		}

  0013a	8b 4d f4	 mov	 ecx, DWORD PTR __$EHRec$[ebp+4]
  0013d	64 89 0d 00 00
	00 00		 mov	 DWORD PTR fs:0, ecx
  00144	59		 pop	 ecx
  00145	5f		 pop	 edi
  00146	5e		 pop	 esi
  00147	5b		 pop	 ebx
  00148	8b e5		 mov	 esp, ebp
  0014a	5d		 pop	 ebp
  0014b	c2 08 00	 ret	 8
$LN173@Copy:
_TEXT	ENDS
;	COMDAT text$x
text$x	SEGMENT
__ehhandler$?_Copy@?$basic_string@DU?$char_traits@D@std@@V?$allocator@D@2@@std@@QAEXII@Z:
  00000	8b 54 24 08	 mov	 edx, DWORD PTR [esp+8]
  00004	8d 42 0c	 lea	 eax, DWORD PTR [edx+12]
  00007	8b 4a e4	 mov	 ecx, DWORD PTR [edx-28]
  0000a	33 c8		 xor	 ecx, eax
  0000c	e8 00 00 00 00	 call	 @__security_check_cookie@4
  00011	b8 00 00 00 00	 mov	 eax, OFFSET __ehfuncinfo$?_Copy@?$basic_string@DU?$char_traits@D@std@@V?$allocator@D@2@@std@@QAEXII@Z
  00016	e9 00 00 00 00	 jmp	 ___CxxFrameHandler3
text$x	ENDS
?_Copy@?$basic_string@DU?$char_traits@D@std@@V?$allocator@D@2@@std@@QAEXII@Z ENDP ; std::basic_string<char,std::char_traits<char>,std::allocator<char> >::_Copy
; Function compile flags: /Ogtp
; File c:\program files (x86)\microsoft visual studio 11.0\vc\include\xmemory0
;	COMDAT ?allocate@?$_Wrap_alloc@V?$allocator@D@std@@@std@@QAEPADI@Z
_TEXT	SEGMENT
__Count$ = 8						; size = 4
?allocate@?$_Wrap_alloc@V?$allocator@D@std@@@std@@QAEPADI@Z PROC ; std::_Wrap_alloc<std::allocator<char> >::allocate, COMDAT
; _this$dead$ = ecx

; 875  : 		{	// allocate array of _Count elements

  00000	55		 push	 ebp
  00001	8b ec		 mov	 ebp, esp

; 25   : 	if (_Count == 0)

  00003	8b 45 08	 mov	 eax, DWORD PTR __Count$[ebp]
  00006	33 c9		 xor	 ecx, ecx
  00008	85 c0		 test	 eax, eax
  0000a	74 1b		 je	 SHORT $LN6@allocate

; 26   : 		;
; 27   : 	else if (((size_t)(-1) / sizeof (_Ty) < _Count)
; 28   : 		|| (_Ptr = ::operator new(_Count * sizeof (_Ty))) == 0)

  0000c	83 f8 ff	 cmp	 eax, -1
  0000f	77 10		 ja	 SHORT $LN5@allocate
  00011	50		 push	 eax
  00012	ff 15 00 00 00
	00		 call	 DWORD PTR __imp_??2@YAPAXI@Z
  00018	8b c8		 mov	 ecx, eax
  0001a	83 c4 04	 add	 esp, 4
  0001d	85 c9		 test	 ecx, ecx
  0001f	75 06		 jne	 SHORT $LN6@allocate
$LN5@allocate:

; 29   : 		_Xbad_alloc();	// report no memory

  00021	ff 15 00 00 00
	00		 call	 DWORD PTR __imp_?_Xbad_alloc@std@@YAXXZ
$LN15@allocate:
$LN6@allocate:

; 876  : 		return (_Mybase::allocate(_Count));

  00027	8b c1		 mov	 eax, ecx

; 877  : 		}

  00029	5d		 pop	 ebp
  0002a	c2 04 00	 ret	 4
$LN14@allocate:
?allocate@?$_Wrap_alloc@V?$allocator@D@std@@@std@@QAEPADI@Z ENDP ; std::_Wrap_alloc<std::allocator<char> >::allocate
_TEXT	ENDS
; Function compile flags: /Ogtp
; File c:\program files (x86)\microsoft visual studio 11.0\vc\include\xmemory0
;	COMDAT ?max_size@?$_Wrap_alloc@V?$allocator@D@std@@@std@@QBEIXZ
_TEXT	SEGMENT
?max_size@?$_Wrap_alloc@V?$allocator@D@std@@@std@@QBEIXZ PROC ; std::_Wrap_alloc<std::allocator<char> >::max_size, COMDAT
; _this$dead$ = ecx

; 914  : 		return (_Mytraits::max_size(*this));

  00000	83 c8 ff	 or	 eax, -1

; 915  : 		}

  00003	c3		 ret	 0
?max_size@?$_Wrap_alloc@V?$allocator@D@std@@@std@@QBEIXZ ENDP ; std::_Wrap_alloc<std::allocator<char> >::max_size
_TEXT	ENDS
; Function compile flags: /Ogtp
; File c:\program files (x86)\microsoft visual studio 11.0\vc\include\xmemory0
;	COMDAT ?allocate@?$allocator@D@std@@QAEPADI@Z
_TEXT	SEGMENT
__Count$ = 8						; size = 4
?allocate@?$allocator@D@std@@QAEPADI@Z PROC		; std::allocator<char>::allocate, COMDAT
; _this$dead$ = ecx

; 590  : 		{	// allocate array of _Count elements

  00000	55		 push	 ebp
  00001	8b ec		 mov	 ebp, esp

; 25   : 	if (_Count == 0)

  00003	8b 45 08	 mov	 eax, DWORD PTR __Count$[ebp]
  00006	33 c9		 xor	 ecx, ecx
  00008	85 c0		 test	 eax, eax
  0000a	74 1b		 je	 SHORT $LN4@allocate

; 26   : 		;
; 27   : 	else if (((size_t)(-1) / sizeof (_Ty) < _Count)
; 28   : 		|| (_Ptr = ::operator new(_Count * sizeof (_Ty))) == 0)

  0000c	83 f8 ff	 cmp	 eax, -1
  0000f	77 10		 ja	 SHORT $LN3@allocate
  00011	50		 push	 eax
  00012	ff 15 00 00 00
	00		 call	 DWORD PTR __imp_??2@YAPAXI@Z
  00018	8b c8		 mov	 ecx, eax
  0001a	83 c4 04	 add	 esp, 4
  0001d	85 c9		 test	 ecx, ecx
  0001f	75 06		 jne	 SHORT $LN4@allocate
$LN3@allocate:

; 29   : 		_Xbad_alloc();	// report no memory

  00021	ff 15 00 00 00
	00		 call	 DWORD PTR __imp_?_Xbad_alloc@std@@YAXXZ
$LN12@allocate:
$LN4@allocate:

; 591  : 		return (_Allocate(_Count, (pointer)0));

  00027	8b c1		 mov	 eax, ecx

; 592  : 		}

  00029	5d		 pop	 ebp
  0002a	c2 04 00	 ret	 4
$LN11@allocate:
?allocate@?$allocator@D@std@@QAEPADI@Z ENDP		; std::allocator<char>::allocate
_TEXT	ENDS
; Function compile flags: /Ogtp
; File c:\program files (x86)\microsoft visual studio 11.0\vc\include\xmemory0
;	COMDAT ?max_size@?$allocator_traits@V?$allocator@D@std@@@std@@SAIABV?$allocator@D@2@@Z
_TEXT	SEGMENT
?max_size@?$allocator_traits@V?$allocator@D@std@@@std@@SAIABV?$allocator@D@2@@Z PROC ; std::allocator_traits<std::allocator<char> >::max_size, COMDAT
; __Al$dead$ = ecx

; 762  : 		return (_Al.max_size());

  00000	83 c8 ff	 or	 eax, -1

; 763  : 		}

  00003	c3		 ret	 0
?max_size@?$allocator_traits@V?$allocator@D@std@@@std@@SAIABV?$allocator@D@2@@Z ENDP ; std::allocator_traits<std::allocator<char> >::max_size
_TEXT	ENDS
; Function compile flags: /Ogtp
; File c:\program files (x86)\microsoft visual studio 11.0\vc\include\xmemory0
;	COMDAT ?max_size@?$allocator@D@std@@QBEIXZ
_TEXT	SEGMENT
?max_size@?$allocator@D@std@@QBEIXZ PROC		; std::allocator<char>::max_size, COMDAT
; _this$dead$ = ecx

; 628  : 		return ((size_t)(-1) / sizeof (_Ty));

  00000	83 c8 ff	 or	 eax, -1

; 629  : 		}

  00003	c3		 ret	 0
?max_size@?$allocator@D@std@@QBEIXZ ENDP		; std::allocator<char>::max_size
_TEXT	ENDS
; Function compile flags: /Ogtp
; File c:\program files (x86)\microsoft visual studio 11.0\vc\include\xmemory0
;	COMDAT ??__E?_Generic_object@?$_Error_objects@H@std@@2V_Generic_error_category@2@A@@YAXXZ
text$yc	SEGMENT
??__E?_Generic_object@?$_Error_objects@H@std@@2V_Generic_error_category@2@A@@YAXXZ PROC ; `dynamic initializer for 'std::_Error_objects<int>::_Generic_object'', COMDAT

; 627  : 		{	// estimate maximum array size

  00000	68 00 00 00 00	 push	 OFFSET ??__F?_Generic_object@?$_Error_objects@H@std@@2V_Generic_error_category@2@A@@YAXXZ ; `dynamic atexit destructor for 'std::_Error_objects<int>::_Generic_object''
  00005	e8 00 00 00 00	 call	 _atexit
  0000a	59		 pop	 ecx
  0000b	c3		 ret	 0
??__E?_Generic_object@?$_Error_objects@H@std@@2V_Generic_error_category@2@A@@YAXXZ ENDP ; `dynamic initializer for 'std::_Error_objects<int>::_Generic_object''
text$yc	ENDS
; Function compile flags: /Ogtp
; File c:\program files (x86)\microsoft visual studio 11.0\vc\include\xmemory0
;	COMDAT ??__E?_Iostream_object@?$_Error_objects@H@std@@2V_Iostream_error_category@2@A@@YAXXZ
text$yc	SEGMENT
??__E?_Iostream_object@?$_Error_objects@H@std@@2V_Iostream_error_category@2@A@@YAXXZ PROC ; `dynamic initializer for 'std::_Error_objects<int>::_Iostream_object'', COMDAT

; 627  : 		{	// estimate maximum array size

  00000	68 00 00 00 00	 push	 OFFSET ??__F?_Iostream_object@?$_Error_objects@H@std@@2V_Iostream_error_category@2@A@@YAXXZ ; `dynamic atexit destructor for 'std::_Error_objects<int>::_Iostream_object''
  00005	e8 00 00 00 00	 call	 _atexit
  0000a	59		 pop	 ecx
  0000b	c3		 ret	 0
??__E?_Iostream_object@?$_Error_objects@H@std@@2V_Iostream_error_category@2@A@@YAXXZ ENDP ; `dynamic initializer for 'std::_Error_objects<int>::_Iostream_object''
text$yc	ENDS
; Function compile flags: /Ogtp
; File c:\program files (x86)\microsoft visual studio 11.0\vc\include\xmemory0
;	COMDAT ??__E?_System_object@?$_Error_objects@H@std@@2V_System_error_category@2@A@@YAXXZ
text$yc	SEGMENT
??__E?_System_object@?$_Error_objects@H@std@@2V_System_error_category@2@A@@YAXXZ PROC ; `dynamic initializer for 'std::_Error_objects<int>::_System_object'', COMDAT

; 627  : 		{	// estimate maximum array size

  00000	68 00 00 00 00	 push	 OFFSET ??__F?_System_object@?$_Error_objects@H@std@@2V_System_error_category@2@A@@YAXXZ ; `dynamic atexit destructor for 'std::_Error_objects<int>::_System_object''
  00005	e8 00 00 00 00	 call	 _atexit
  0000a	59		 pop	 ecx
  0000b	c3		 ret	 0
??__E?_System_object@?$_Error_objects@H@std@@2V_System_error_category@2@A@@YAXXZ ENDP ; `dynamic initializer for 'std::_Error_objects<int>::_System_object''
text$yc	ENDS
; Function compile flags: /Ogtp
; File c:\program files (x86)\microsoft visual studio 11.0\vc\include\ostream
; File c:\program files (x86)\microsoft visual studio 11.0\vc\include\iosfwd
; File c:\program files (x86)\microsoft visual studio 11.0\vc\include\xiosbase
; File c:\program files (x86)\microsoft visual studio 11.0\vc\include\iosfwd
; File c:\program files (x86)\microsoft visual studio 11.0\vc\include\xiosbase
; File c:\program files (x86)\microsoft visual studio 11.0\vc\include\ostream
; File c:\program files (x86)\microsoft visual studio 11.0\vc\include\ios
; File c:\program files (x86)\microsoft visual studio 11.0\vc\include\ostream
; File c:\program files (x86)\microsoft visual studio 11.0\vc\include\xiosbase
; File c:\program files (x86)\microsoft visual studio 11.0\vc\include\ostream
; File c:\program files (x86)\microsoft visual studio 11.0\vc\include\ios
; File c:\program files (x86)\microsoft visual studio 11.0\vc\include\ostream
; File c:\program files (x86)\microsoft visual studio 11.0\vc\include\xiosbase
; File c:\program files (x86)\microsoft visual studio 11.0\vc\include\ostream
; File c:\program files (x86)\microsoft visual studio 11.0\vc\include\xiosbase
; File c:\program files (x86)\microsoft visual studio 11.0\vc\include\ostream
; File c:\program files (x86)\microsoft visual studio 11.0\vc\include\ios
; File c:\program files (x86)\microsoft visual studio 11.0\vc\include\ostream
; File c:\program files (x86)\microsoft visual studio 11.0\vc\include\ios
; File c:\program files (x86)\microsoft visual studio 11.0\vc\include\ostream
; File c:\program files (x86)\microsoft visual studio 11.0\vc\include\iosfwd
; File c:\program files (x86)\microsoft visual studio 11.0\vc\include\ostream
; File c:\program files (x86)\microsoft visual studio 11.0\vc\include\ios
; File c:\program files (x86)\microsoft visual studio 11.0\vc\include\ostream
; File c:\program files (x86)\microsoft visual studio 11.0\vc\include\ios
; File c:\program files (x86)\microsoft visual studio 11.0\vc\include\ostream
; File c:\program files (x86)\microsoft visual studio 11.0\vc\include\ios
; File c:\program files (x86)\microsoft visual studio 11.0\vc\include\ostream
; File c:\program files (x86)\microsoft visual studio 11.0\vc\include\ios
; File c:\program files (x86)\microsoft visual studio 11.0\vc\include\ostream
; File c:\program files (x86)\microsoft visual studio 11.0\vc\include\iosfwd
; File c:\program files (x86)\microsoft visual studio 11.0\vc\include\ostream
; File c:\program files (x86)\microsoft visual studio 11.0\vc\include\xiosbase
; File c:\program files (x86)\microsoft visual studio 11.0\vc\include\ostream
;	COMDAT ??$?6U?$char_traits@D@std@@@std@@YAAAV?$basic_ostream@DU?$char_traits@D@std@@@0@AAV10@PBD@Z
_TEXT	SEGMENT
__Ok$ = -36						; size = 8
__Val$1$ = -28						; size = 4
$T2 = -28						; size = 1
__Pad$ = -24						; size = 8
$T3 = -20						; size = 1
__Count$1$ = -16					; size = 4
__$EHRec$ = -12						; size = 12
??$?6U?$char_traits@D@std@@@std@@YAAAV?$basic_ostream@DU?$char_traits@D@std@@@0@AAV10@PBD@Z PROC ; std::operator<<<std::char_traits<char> >, COMDAT
; __Ostr$ = ecx
; __Val$ = edx

; 783  : 	{	// insert NTBS into char stream

  00000	55		 push	 ebp
  00001	8b ec		 mov	 ebp, esp
  00003	6a ff		 push	 -1
  00005	68 00 00 00 00	 push	 __ehhandler$??$?6U?$char_traits@D@std@@@std@@YAAAV?$basic_ostream@DU?$char_traits@D@std@@@0@AAV10@PBD@Z
  0000a	64 a1 00 00 00
	00		 mov	 eax, DWORD PTR fs:0
  00010	50		 push	 eax
  00011	83 ec 1c	 sub	 esp, 28			; 0000001cH
  00014	53		 push	 ebx
  00015	56		 push	 esi
  00016	57		 push	 edi
  00017	a1 00 00 00 00	 mov	 eax, DWORD PTR ___security_cookie
  0001c	33 c5		 xor	 eax, ebp
  0001e	50		 push	 eax
  0001f	8d 45 f4	 lea	 eax, DWORD PTR __$EHRec$[ebp]
  00022	64 a3 00 00 00
	00		 mov	 DWORD PTR fs:0, eax
  00028	8b c2		 mov	 eax, edx
  0002a	89 45 e4	 mov	 DWORD PTR __Val$1$[ebp], eax
  0002d	8b d9		 mov	 ebx, ecx
; File c:\program files (x86)\microsoft visual studio 11.0\vc\include\iosfwd

; 523  : 			: _CSTD strlen(_First));

  0002f	80 38 00	 cmp	 BYTE PTR [eax], 0
  00032	75 04		 jne	 SHORT $LN26@operator
  00034	33 c9		 xor	 ecx, ecx
  00036	eb 11		 jmp	 SHORT $LN117@operator
$LN26@operator:
  00038	8b c8		 mov	 ecx, eax
  0003a	8d 51 01	 lea	 edx, DWORD PTR [ecx+1]
  0003d	8d 49 00	 npad	 3
$LL101@operator:
  00040	8a 01		 mov	 al, BYTE PTR [ecx]
  00042	41		 inc	 ecx
  00043	84 c0		 test	 al, al
  00045	75 f9		 jne	 SHORT $LL101@operator
  00047	2b ca		 sub	 ecx, edx
$LN117@operator:
; File c:\program files (x86)\microsoft visual studio 11.0\vc\include\xiosbase

; 431  : 		return (_Wide);

  00049	8b 03		 mov	 eax, DWORD PTR [ebx]
; File c:\program files (x86)\microsoft visual studio 11.0\vc\include\iosfwd

; 523  : 			: _CSTD strlen(_First));

  0004b	89 4d f0	 mov	 DWORD PTR __Count$1$[ebp], ecx
; File c:\program files (x86)\microsoft visual studio 11.0\vc\include\xiosbase

; 431  : 		return (_Wide);

  0004e	8b 40 04	 mov	 eax, DWORD PTR [eax+4]
  00051	8b 7c 18 24	 mov	 edi, DWORD PTR [eax+ebx+36]
  00055	8b 74 18 20	 mov	 esi, DWORD PTR [eax+ebx+32]
; File c:\program files (x86)\microsoft visual studio 11.0\vc\include\ostream

; 789  : 		? 0 : _Ostr.width() - _Count;

  00059	85 ff		 test	 edi, edi
  0005b	7c 17		 jl	 SHORT $LN17@operator
  0005d	7f 0e		 jg	 SHORT $LN103@operator
  0005f	85 f6		 test	 esi, esi
  00061	74 11		 je	 SHORT $LN17@operator
  00063	85 ff		 test	 edi, edi
  00065	7c 0d		 jl	 SHORT $LN17@operator
  00067	7f 04		 jg	 SHORT $LN103@operator
  00069	3b f1		 cmp	 esi, ecx
  0006b	76 07		 jbe	 SHORT $LN17@operator
$LN103@operator:
  0006d	2b f1		 sub	 esi, ecx
  0006f	83 df 00	 sbb	 edi, 0
  00072	eb 0e		 jmp	 SHORT $LN18@operator
$LN17@operator:
  00074	0f 57 c0	 xorps	 xmm0, xmm0
  00077	66 0f 13 45 e8	 movlpd	 QWORD PTR __Pad$[ebp], xmm0
  0007c	8b 7d ec	 mov	 edi, DWORD PTR __Pad$[ebp+4]
  0007f	8b 75 e8	 mov	 esi, DWORD PTR __Pad$[ebp]
$LN18@operator:
; File c:\program files (x86)\microsoft visual studio 11.0\vc\include\ios

; 96   : 		return (_Mystrbuf);

  00082	8b 4c 18 38	 mov	 ecx, DWORD PTR [eax+ebx+56]
; File c:\program files (x86)\microsoft visual studio 11.0\vc\include\ostream

; 103  : 			{	// lock the stream buffer, if there

  00086	89 5d dc	 mov	 DWORD PTR __Ok$[ebp], ebx

; 104  : 			if (_Myostr.rdbuf() != 0)

  00089	85 c9		 test	 ecx, ecx
  0008b	74 05		 je	 SHORT $LN38@operator

; 105  : 				_Myostr.rdbuf()->_Lock();

  0008d	8b 01		 mov	 eax, DWORD PTR [ecx]
  0008f	ff 50 04	 call	 DWORD PTR [eax+4]
$LN38@operator:

; 112  : 			}
; 113  : 
; 114  : 		_Myt& _Myostr;	// the output stream, for _Unlock call at destruction
; 115  : 
; 116  : 	private:
; 117  : 		_Sentry_base& operator=(const _Sentry_base&);
; 118  : 		};
; 119  : 
; 120  : 	class sentry
; 121  : 		: public _Sentry_base
; 122  : 		{	// stores thread lock and state of stream
; 123  : 	public:
; 124  : 		explicit __CLR_OR_THIS_CALL sentry(_Myt& _Ostr)
; 125  : 			: _Sentry_base(_Ostr)
; 126  : 			{	// construct locking and testing stream

  00092	c7 45 fc 00 00
	00 00		 mov	 DWORD PTR __$EHRec$[ebp+8], 0
; File c:\program files (x86)\microsoft visual studio 11.0\vc\include\xiosbase

; 327  : 		return (_Mystate);

  00099	8b 03		 mov	 eax, DWORD PTR [ebx]
  0009b	8b 40 04	 mov	 eax, DWORD PTR [eax+4]

; 328  : 		}
; 329  : 
; 330  : 	void __CLR_OR_THIS_CALL setstate(iostate _State, bool _Exreraise)
; 331  : 		{	// merge in state argument, possibly reraise exception
; 332  : 		if (_State != goodbit)
; 333  : 			clear((iostate)((int)rdstate() | (int)_State), _Exreraise);
; 334  : 		}
; 335  : 
; 336  : 	void __CLR_OR_THIS_CALL setstate(iostate _State)
; 337  : 		{	// merge in state argument
; 338  : 		if (_State != goodbit)
; 339  : 			clear((iostate)((int)rdstate() | (int)_State), false);
; 340  : 		}
; 341  : 
; 342  : 	void __CLR_OR_THIS_CALL setstate(io_state _State)
; 343  : 		{	// merge in state argument, old style
; 344  : 		setstate((iostate)_State);
; 345  : 		}
; 346  : 
; 347  : 	bool __CLR_OR_THIS_CALL good() const
; 348  : 		{	// test if no state bits are set
; 349  : 		return (rdstate() == goodbit);

  0009e	83 7c 18 0c 00	 cmp	 DWORD PTR [eax+ebx+12], 0
; File c:\program files (x86)\microsoft visual studio 11.0\vc\include\ostream

; 127  : 			if (_Ostr.good() && _Ostr.tie() != 0)

  000a3	75 0e		 jne	 SHORT $LN34@operator
; File c:\program files (x86)\microsoft visual studio 11.0\vc\include\ios

; 84   : 		return (_Tiestr);

  000a5	8b 4c 18 3c	 mov	 ecx, DWORD PTR [eax+ebx+60]
; File c:\program files (x86)\microsoft visual studio 11.0\vc\include\ostream

; 127  : 			if (_Ostr.good() && _Ostr.tie() != 0)

  000a9	85 c9		 test	 ecx, ecx
  000ab	74 06		 je	 SHORT $LN34@operator

; 128  : 				_Ostr.tie()->flush();

  000ad	ff 15 00 00 00
	00		 call	 DWORD PTR __imp_?flush@?$basic_ostream@DU?$char_traits@D@std@@@std@@QAEAAV12@XZ
$LN34@operator:
; File c:\program files (x86)\microsoft visual studio 11.0\vc\include\xiosbase

; 327  : 		return (_Mystate);

  000b3	8b 03		 mov	 eax, DWORD PTR [ebx]
  000b5	8b 48 04	 mov	 ecx, DWORD PTR [eax+4]

; 328  : 		}
; 329  : 
; 330  : 	void __CLR_OR_THIS_CALL setstate(iostate _State, bool _Exreraise)
; 331  : 		{	// merge in state argument, possibly reraise exception
; 332  : 		if (_State != goodbit)
; 333  : 			clear((iostate)((int)rdstate() | (int)_State), _Exreraise);
; 334  : 		}
; 335  : 
; 336  : 	void __CLR_OR_THIS_CALL setstate(iostate _State)
; 337  : 		{	// merge in state argument
; 338  : 		if (_State != goodbit)
; 339  : 			clear((iostate)((int)rdstate() | (int)_State), false);
; 340  : 		}
; 341  : 
; 342  : 	void __CLR_OR_THIS_CALL setstate(io_state _State)
; 343  : 		{	// merge in state argument, old style
; 344  : 		setstate((iostate)_State);
; 345  : 		}
; 346  : 
; 347  : 	bool __CLR_OR_THIS_CALL good() const
; 348  : 		{	// test if no state bits are set
; 349  : 		return (rdstate() == goodbit);

  000b8	83 7c 19 0c 00	 cmp	 DWORD PTR [ecx+ebx+12], 0
  000bd	0f 94 c0	 sete	 al
; File c:\program files (x86)\microsoft visual studio 11.0\vc\include\ostream

; 129  : 			_Ok = _Ostr.good();	// store test only after flushing tie

  000c0	88 45 e0	 mov	 BYTE PTR __Ok$[ebp+4], al

; 790  : 	const typename _Myos::sentry _Ok(_Ostr);

  000c3	c7 45 fc 01 00
	00 00		 mov	 DWORD PTR __$EHRec$[ebp+8], 1

; 137  : 
; 138  :  #else /* _HAS_EXCEPTIONS */
; 139  : 			this->_Myostr._Osfx();
; 140  :  #endif /* _HAS_EXCEPTIONS */
; 141  : 			}
; 142  : 
; 143  : 		_TYPEDEF_BOOL_TYPE;
; 144  : 
; 145  : 		__CLR_OR_THIS_CALL _OPERATOR_BOOL() const
; 146  : 			{	// test if stream state okay
; 147  : 			return (_Ok ? _CONVERTIBLE_TO_TRUE : 0);

  000ca	84 c0		 test	 al, al

; 791  : 
; 792  : 	if (!_Ok)

  000cc	75 0a		 jne	 SHORT $LN14@operator

; 793  : 		_State |= ios_base::badbit;

  000ce	b9 04 00 00 00	 mov	 ecx, 4

; 794  : 	else

  000d3	e9 d4 00 00 00	 jmp	 $LN22@operator
$LN14@operator:

; 795  : 		{	// state okay, insert
; 796  : 		_TRY_IO_BEGIN

  000d8	c6 45 fc 02	 mov	 BYTE PTR __$EHRec$[ebp+8], 2
; File c:\program files (x86)\microsoft visual studio 11.0\vc\include\xiosbase

; 386  : 		return (_Fmtfl);

  000dc	8b 44 19 14	 mov	 eax, DWORD PTR [ecx+ebx+20]
; File c:\program files (x86)\microsoft visual studio 11.0\vc\include\ostream

; 797  : 		if ((_Ostr.flags() & ios_base::adjustfield) != ios_base::left)

  000e0	25 c0 01 00 00	 and	 eax, 448		; 000001c0H
  000e5	83 f8 40	 cmp	 eax, 64			; 00000040H
  000e8	74 3c		 je	 SHORT $LN99@operator

; 798  : 			for (; 0 < _Pad; --_Pad)	// pad on left

  000ea	85 ff		 test	 edi, edi
  000ec	7c 38		 jl	 SHORT $LN99@operator
  000ee	7f 04		 jg	 SHORT $LL109@operator
  000f0	85 f6		 test	 esi, esi
  000f2	74 32		 je	 SHORT $LN99@operator
$LL109@operator:
; File c:\program files (x86)\microsoft visual studio 11.0\vc\include\ios

; 117  : 		return (_Fillch);

  000f4	8b 03		 mov	 eax, DWORD PTR [ebx]
  000f6	8b 48 04	 mov	 ecx, DWORD PTR [eax+4]
  000f9	8a 44 19 40	 mov	 al, BYTE PTR [ecx+ebx+64]
; File c:\program files (x86)\microsoft visual studio 11.0\vc\include\ostream

; 800  : 					_Ostr.rdbuf()->sputc(_Ostr.fill())))

  000fd	8b 4c 19 38	 mov	 ecx, DWORD PTR [ecx+ebx+56]
; File c:\program files (x86)\microsoft visual studio 11.0\vc\include\ios

; 117  : 		return (_Fillch);

  00101	88 45 ec	 mov	 BYTE PTR $T3[ebp], al
; File c:\program files (x86)\microsoft visual studio 11.0\vc\include\ostream

; 800  : 					_Ostr.rdbuf()->sputc(_Ostr.fill())))

  00104	ff 75 ec	 push	 DWORD PTR $T3[ebp]
  00107	ff 15 00 00 00
	00		 call	 DWORD PTR __imp_?sputc@?$basic_streambuf@DU?$char_traits@D@std@@@std@@QAEHD@Z
; File c:\program files (x86)\microsoft visual studio 11.0\vc\include\iosfwd

; 594  : 		return (_Left == _Right);

  0010d	83 f8 ff	 cmp	 eax, -1
; File c:\program files (x86)\microsoft visual studio 11.0\vc\include\ostream

; 800  : 					_Ostr.rdbuf()->sputc(_Ostr.fill())))

  00110	0f 84 e5 00 00
	00		 je	 $LN93@operator

; 798  : 			for (; 0 < _Pad; --_Pad)	// pad on left

  00116	83 c6 ff	 add	 esi, -1
  00119	83 d7 ff	 adc	 edi, -1
  0011c	85 ff		 test	 edi, edi
  0011e	7f d4		 jg	 SHORT $LL109@operator
  00120	7c 04		 jl	 SHORT $LN99@operator
  00122	85 f6		 test	 esi, esi
  00124	75 ce		 jne	 SHORT $LL109@operator
$LN99@operator:
; File c:\program files (x86)\microsoft visual studio 11.0\vc\include\ios

; 96   : 		return (_Mystrbuf);

  00126	8b 03		 mov	 eax, DWORD PTR [ebx]
; File c:\program files (x86)\microsoft visual studio 11.0\vc\include\ostream

; 807  : 			&& _Ostr.rdbuf()->sputn(_Val, _Count) != _Count)

  00128	6a 00		 push	 0
  0012a	ff 75 f0	 push	 DWORD PTR __Count$1$[ebp]
; File c:\program files (x86)\microsoft visual studio 11.0\vc\include\ios

; 96   : 		return (_Mystrbuf);

  0012d	8b 40 04	 mov	 eax, DWORD PTR [eax+4]
; File c:\program files (x86)\microsoft visual studio 11.0\vc\include\ostream

; 807  : 			&& _Ostr.rdbuf()->sputn(_Val, _Count) != _Count)

  00130	ff 75 e4	 push	 DWORD PTR __Val$1$[ebp]
  00133	8b 4c 18 38	 mov	 ecx, DWORD PTR [eax+ebx+56]
  00137	ff 15 00 00 00
	00		 call	 DWORD PTR __imp_?sputn@?$basic_streambuf@DU?$char_traits@D@std@@@std@@QAE_JPBD_J@Z
  0013d	3b 45 f0	 cmp	 eax, DWORD PTR __Count$1$[ebp]
  00140	0f 85 b5 00 00
	00		 jne	 $LN93@operator
  00146	85 d2		 test	 edx, edx
  00148	0f 85 ad 00 00
	00		 jne	 $LN93@operator

; 808  : 			_State |= ios_base::badbit;
; 809  : 
; 810  : 		if (_State == ios_base::goodbit)
; 811  : 			for (; 0 < _Pad; --_Pad)	// pad on right

  0014e	85 ff		 test	 edi, edi
  00150	7c 3c		 jl	 SHORT $LN115@operator
  00152	7f 0c		 jg	 SHORT $LL110@operator
  00154	85 f6		 test	 esi, esi
  00156	74 36		 je	 SHORT $LN115@operator
  00158	eb 06 8d 9b 00
	00 00 00	 npad	 8
$LL110@operator:
; File c:\program files (x86)\microsoft visual studio 11.0\vc\include\ios

; 117  : 		return (_Fillch);

  00160	8b 03		 mov	 eax, DWORD PTR [ebx]
  00162	8b 48 04	 mov	 ecx, DWORD PTR [eax+4]
  00165	8a 44 19 40	 mov	 al, BYTE PTR [ecx+ebx+64]
; File c:\program files (x86)\microsoft visual studio 11.0\vc\include\ostream

; 813  : 					_Ostr.rdbuf()->sputc(_Ostr.fill())))

  00169	8b 4c 19 38	 mov	 ecx, DWORD PTR [ecx+ebx+56]
; File c:\program files (x86)\microsoft visual studio 11.0\vc\include\ios

; 117  : 		return (_Fillch);

  0016d	88 45 e4	 mov	 BYTE PTR $T2[ebp], al
; File c:\program files (x86)\microsoft visual studio 11.0\vc\include\ostream

; 813  : 					_Ostr.rdbuf()->sputc(_Ostr.fill())))

  00170	ff 75 e4	 push	 DWORD PTR $T2[ebp]
  00173	ff 15 00 00 00
	00		 call	 DWORD PTR __imp_?sputc@?$basic_streambuf@DU?$char_traits@D@std@@@std@@QAEHD@Z
; File c:\program files (x86)\microsoft visual studio 11.0\vc\include\iosfwd

; 594  : 		return (_Left == _Right);

  00179	83 f8 ff	 cmp	 eax, -1
; File c:\program files (x86)\microsoft visual studio 11.0\vc\include\ostream

; 813  : 					_Ostr.rdbuf()->sputc(_Ostr.fill())))

  0017c	74 7d		 je	 SHORT $LN93@operator

; 808  : 			_State |= ios_base::badbit;
; 809  : 
; 810  : 		if (_State == ios_base::goodbit)
; 811  : 			for (; 0 < _Pad; --_Pad)	// pad on right

  0017e	83 c6 ff	 add	 esi, -1
  00181	83 d7 ff	 adc	 edi, -1
  00184	85 ff		 test	 edi, edi
  00186	7f d8		 jg	 SHORT $LL110@operator
  00188	7c 04		 jl	 SHORT $LN115@operator
  0018a	85 f6		 test	 esi, esi
  0018c	75 d2		 jne	 SHORT $LL110@operator
$LN115@operator:
  0018e	33 c9		 xor	 ecx, ecx
$LN2@operator:

; 814  : 					{	// insertion failed, quit
; 815  : 					_State |= ios_base::badbit;
; 816  : 					break;
; 817  : 					}
; 818  : 		_Ostr.width(0);

  00190	8b 03		 mov	 eax, DWORD PTR [ebx]
  00192	8b 40 04	 mov	 eax, DWORD PTR [eax+4]
  00195	c7 45 fc 01 00
	00 00		 mov	 DWORD PTR __$EHRec$[ebp+8], 1
; File c:\program files (x86)\microsoft visual studio 11.0\vc\include\xiosbase

; 437  : 		_Wide = _Newwidth;

  0019c	c7 44 18 20 00
	00 00 00	 mov	 DWORD PTR [eax+ebx+32], 0
  001a4	c7 44 18 24 00
	00 00 00	 mov	 DWORD PTR [eax+ebx+36], 0
$LN22@operator:
; File c:\program files (x86)\microsoft visual studio 11.0\vc\include\ostream

; 822  : 	_Ostr.setstate(_State);

  001ac	8b 03		 mov	 eax, DWORD PTR [ebx]
  001ae	6a 00		 push	 0
  001b0	51		 push	 ecx
  001b1	8b 48 04	 mov	 ecx, DWORD PTR [eax+4]
  001b4	03 cb		 add	 ecx, ebx
  001b6	ff 15 00 00 00
	00		 call	 DWORD PTR __imp_?setstate@?$basic_ios@DU?$char_traits@D@std@@@std@@QAEXH_N@Z

; 823  : 	return (_Ostr);

  001bc	c7 45 fc ff ff
	ff ff		 mov	 DWORD PTR __$EHRec$[ebp+8], -1

; 130  : 			}
; 131  : 
; 132  : 		__CLR_OR_THIS_CALL ~sentry() _NOEXCEPT
; 133  : 			{	// destroy the object
; 134  :  #if _HAS_EXCEPTIONS
; 135  : 			if (!_XSTD uncaught_exception())

  001c3	ff 15 00 00 00
	00		 call	 DWORD PTR __imp_?uncaught_exception@std@@YA_NXZ
  001c9	84 c0		 test	 al, al
  001cb	75 08		 jne	 SHORT $LN81@operator

; 136  : 				this->_Myostr._Osfx();

  001cd	8b cb		 mov	 ecx, ebx
  001cf	ff 15 00 00 00
	00		 call	 DWORD PTR __imp_?_Osfx@?$basic_ostream@DU?$char_traits@D@std@@@std@@QAEXXZ
$LN81@operator:

; 106  : 			}
; 107  : 
; 108  : 		__CLR_OR_THIS_CALL ~_Sentry_base() _NOEXCEPT
; 109  : 			{	// destroy after unlocking
; 110  : 			if (_Myostr.rdbuf() != 0)

  001d5	8b 03		 mov	 eax, DWORD PTR [ebx]
  001d7	8b 40 04	 mov	 eax, DWORD PTR [eax+4]
  001da	8b 4c 18 38	 mov	 ecx, DWORD PTR [eax+ebx+56]
  001de	85 c9		 test	 ecx, ecx
  001e0	74 05		 je	 SHORT $LN111@operator

; 111  : 				_Myostr.rdbuf()->_Unlock();

  001e2	8b 01		 mov	 eax, DWORD PTR [ecx]
  001e4	ff 50 08	 call	 DWORD PTR [eax+8]
$LN111@operator:

; 823  : 	return (_Ostr);

  001e7	8b c3		 mov	 eax, ebx

; 824  : 	}

  001e9	8b 4d f4	 mov	 ecx, DWORD PTR __$EHRec$[ebp]
  001ec	64 89 0d 00 00
	00 00		 mov	 DWORD PTR fs:0, ecx
  001f3	59		 pop	 ecx
  001f4	5f		 pop	 edi
  001f5	5e		 pop	 esi
  001f6	5b		 pop	 ebx
  001f7	8b e5		 mov	 esp, ebp
  001f9	5d		 pop	 ebp
  001fa	c3		 ret	 0
$LN93@operator:

; 801  : 					{	// insertion failed, quit
; 802  : 					_State |= ios_base::badbit;

  001fb	b9 04 00 00 00	 mov	 ecx, 4

; 807  : 			&& _Ostr.rdbuf()->sputn(_Val, _Count) != _Count)

  00200	eb 8e		 jmp	 SHORT $LN2@operator
_TEXT	ENDS
;	COMDAT text$x
text$x	SEGMENT
__unwindfunclet$??$?6U?$char_traits@D@std@@@std@@YAAAV?$basic_ostream@DU?$char_traits@D@std@@@0@AAV10@PBD@Z$3:
  00000	8d 4d dc	 lea	 ecx, DWORD PTR __Ok$[ebp]
  00003	e9 00 00 00 00	 jmp	 ??1_Sentry_base@?$basic_ostream@DU?$char_traits@D@std@@@std@@QAE@XZ ; std::basic_ostream<char,std::char_traits<char> >::_Sentry_base::~_Sentry_base
__unwindfunclet$??$?6U?$char_traits@D@std@@@std@@YAAAV?$basic_ostream@DU?$char_traits@D@std@@@0@AAV10@PBD@Z$2:
  00008	8d 4d dc	 lea	 ecx, DWORD PTR __Ok$[ebp]
  0000b	e9 00 00 00 00	 jmp	 ??1sentry@?$basic_ostream@DU?$char_traits@D@std@@@std@@QAE@XZ ; std::basic_ostream<char,std::char_traits<char> >::sentry::~sentry
__ehhandler$??$?6U?$char_traits@D@std@@@std@@YAAAV?$basic_ostream@DU?$char_traits@D@std@@@0@AAV10@PBD@Z:
  00010	8b 54 24 08	 mov	 edx, DWORD PTR [esp+8]
  00014	8d 42 0c	 lea	 eax, DWORD PTR [edx+12]
  00017	8b 4a d4	 mov	 ecx, DWORD PTR [edx-44]
  0001a	33 c8		 xor	 ecx, eax
  0001c	e8 00 00 00 00	 call	 @__security_check_cookie@4
  00021	b8 00 00 00 00	 mov	 eax, OFFSET __ehfuncinfo$??$?6U?$char_traits@D@std@@@std@@YAAAV?$basic_ostream@DU?$char_traits@D@std@@@0@AAV10@PBD@Z
  00026	e9 00 00 00 00	 jmp	 ___CxxFrameHandler3
text$x	ENDS
??$?6U?$char_traits@D@std@@@std@@YAAAV?$basic_ostream@DU?$char_traits@D@std@@@0@AAV10@PBD@Z ENDP ; std::operator<<<std::char_traits<char> >
; Function compile flags: /Ogtp
; File c:\program files (x86)\microsoft visual studio 11.0\vc\include\xmemory0
;	COMDAT ??$construct@PADAAPAD@?$_Wrap_alloc@V?$allocator@D@std@@@std@@QAEXPAPADAAPAD@Z
_TEXT	SEGMENT
__Ptr$ = 8						; size = 4
__V0$ = 12						; size = 4
??$construct@PADAAPAD@?$_Wrap_alloc@V?$allocator@D@std@@@std@@QAEXPAPADAAPAD@Z PROC ; std::_Wrap_alloc<std::allocator<char> >::construct<char *,char * &>, COMDAT
; _this$dead$ = ecx

; 903  : _VARIADIC_EXPAND_0X(_WRAP_ALLOC_CONSTRUCT, , , , )

  00000	55		 push	 ebp
  00001	8b ec		 mov	 ebp, esp

; 617  : _VARIADIC_EXPAND_0X(_ALLOC_MEMBER_CONSTRUCT, , , , )

  00003	8b 4d 08	 mov	 ecx, DWORD PTR __Ptr$[ebp]
  00006	85 c9		 test	 ecx, ecx
  00008	74 07		 je	 SHORT $LN11@construct
  0000a	8b 45 0c	 mov	 eax, DWORD PTR __V0$[ebp]
  0000d	8b 00		 mov	 eax, DWORD PTR [eax]
  0000f	89 01		 mov	 DWORD PTR [ecx], eax
$LN11@construct:

; 903  : _VARIADIC_EXPAND_0X(_WRAP_ALLOC_CONSTRUCT, , , , )

  00011	5d		 pop	 ebp
  00012	c2 08 00	 ret	 8
??$construct@PADAAPAD@?$_Wrap_alloc@V?$allocator@D@std@@@std@@QAEXPAPADAAPAD@Z ENDP ; std::_Wrap_alloc<std::allocator<char> >::construct<char *,char * &>
_TEXT	ENDS
; Function compile flags: /Ogtp
; File c:\program files (x86)\microsoft visual studio 11.0\vc\include\xmemory0
;	COMDAT ??$destroy@PAD@?$_Wrap_alloc@V?$allocator@D@std@@@std@@QAEXPAPAD@Z
_TEXT	SEGMENT
__Ptr$dead$ = 8						; size = 4
??$destroy@PAD@?$_Wrap_alloc@V?$allocator@D@std@@@std@@QAEXPAPAD@Z PROC ; std::_Wrap_alloc<std::allocator<char> >::destroy<char *>, COMDAT
; _this$dead$ = ecx

; 908  : 		{	// destroy object at _Ptr
; 909  : 		_Mytraits::destroy(*this, _Ptr);
; 910  : 		}

  00000	c2 04 00	 ret	 4
??$destroy@PAD@?$_Wrap_alloc@V?$allocator@D@std@@@std@@QAEXPAPAD@Z ENDP ; std::_Wrap_alloc<std::allocator<char> >::destroy<char *>
_TEXT	ENDS
; Function compile flags: /Ogtp
; File c:\program files (x86)\microsoft visual studio 11.0\vc\include\xstddef
;	COMDAT ??$addressof@D@std@@YAPADAAD@Z
_TEXT	SEGMENT
??$addressof@D@std@@YAPADAAD@Z PROC			; std::addressof<char>, COMDAT
; __Val$ = ecx

; 86   : 	return (reinterpret_cast<_Ty *>(
; 87   : 		(&const_cast<char&>(
; 88   : 		reinterpret_cast<const volatile char&>(_Val)))));

  00000	8b c1		 mov	 eax, ecx

; 89   : 	}

  00002	c3		 ret	 0
??$addressof@D@std@@YAPADAAD@Z ENDP			; std::addressof<char>
_TEXT	ENDS
; Function compile flags: /Ogtp
; File c:\program files (x86)\microsoft visual studio 11.0\vc\include\xmemory0
;	COMDAT ??$_Allocate@D@std@@YAPADIPAD@Z
_TEXT	SEGMENT
??$_Allocate@D@std@@YAPADIPAD@Z PROC			; std::_Allocate<char>, COMDAT
; __Count$ = ecx

; 23   : 	void *_Ptr = 0;
; 24   : 
; 25   : 	if (_Count == 0)
; 26   : 		;
; 27   : 	else if (((size_t)(-1) / sizeof (_Ty) < _Count)
; 28   : 		|| (_Ptr = ::operator new(_Count * sizeof (_Ty))) == 0)

  00000	83 f9 ff	 cmp	 ecx, -1
  00003	77 0e		 ja	 SHORT $LN1@Allocate
  00005	51		 push	 ecx
  00006	ff 15 00 00 00
	00		 call	 DWORD PTR __imp_??2@YAPAXI@Z
  0000c	83 c4 04	 add	 esp, 4
  0000f	85 c0		 test	 eax, eax
  00011	75 06		 jne	 SHORT $LN7@Allocate
$LN1@Allocate:

; 29   : 		_Xbad_alloc();	// report no memory

  00013	ff 25 00 00 00
	00		 jmp	 DWORD PTR __imp_?_Xbad_alloc@std@@YAXXZ
$LN7@Allocate:

; 30   : 
; 31   : 	return ((_Ty *)_Ptr);
; 32   : 	}

  00019	c3		 ret	 0
??$_Allocate@D@std@@YAPADIPAD@Z ENDP			; std::_Allocate<char>
_TEXT	ENDS
; Function compile flags: /Ogtp
; File c:\program files (x86)\microsoft visual studio 11.0\vc\include\system_error
;	COMDAT ??__F?_System_object@?$_Error_objects@H@std@@2V_System_error_category@2@A@@YAXXZ
text$yd	SEGMENT
??__F?_System_object@?$_Error_objects@H@std@@2V_System_error_category@2@A@@YAXXZ PROC ; `dynamic atexit destructor for 'std::_Error_objects<int>::_System_object'', COMDAT

; 167  : 		{	// destroy the object

  00000	c7 05 00 00 00
	00 00 00 00 00	 mov	 DWORD PTR ?_System_object@?$_Error_objects@H@std@@2V_System_error_category@2@A, OFFSET ??_7error_category@std@@6B@ ; std::_Error_objects<int>::_System_object
  0000a	c3		 ret	 0
??__F?_System_object@?$_Error_objects@H@std@@2V_System_error_category@2@A@@YAXXZ ENDP ; `dynamic atexit destructor for 'std::_Error_objects<int>::_System_object''
text$yd	ENDS
; Function compile flags: /Ogtp
; File c:\program files (x86)\microsoft visual studio 11.0\vc\include\system_error
;	COMDAT ??__F?_Iostream_object@?$_Error_objects@H@std@@2V_Iostream_error_category@2@A@@YAXXZ
text$yd	SEGMENT
??__F?_Iostream_object@?$_Error_objects@H@std@@2V_Iostream_error_category@2@A@@YAXXZ PROC ; `dynamic atexit destructor for 'std::_Error_objects<int>::_Iostream_object'', COMDAT

; 167  : 		{	// destroy the object

  00000	c7 05 00 00 00
	00 00 00 00 00	 mov	 DWORD PTR ?_Iostream_object@?$_Error_objects@H@std@@2V_Iostream_error_category@2@A, OFFSET ??_7error_category@std@@6B@ ; std::_Error_objects<int>::_Iostream_object
  0000a	c3		 ret	 0
??__F?_Iostream_object@?$_Error_objects@H@std@@2V_Iostream_error_category@2@A@@YAXXZ ENDP ; `dynamic atexit destructor for 'std::_Error_objects<int>::_Iostream_object''
text$yd	ENDS
; Function compile flags: /Ogtp
; File c:\program files (x86)\microsoft visual studio 11.0\vc\include\system_error
;	COMDAT ??__F?_Generic_object@?$_Error_objects@H@std@@2V_Generic_error_category@2@A@@YAXXZ
text$yd	SEGMENT
??__F?_Generic_object@?$_Error_objects@H@std@@2V_Generic_error_category@2@A@@YAXXZ PROC ; `dynamic atexit destructor for 'std::_Error_objects<int>::_Generic_object'', COMDAT

; 167  : 		{	// destroy the object

  00000	c7 05 00 00 00
	00 00 00 00 00	 mov	 DWORD PTR ?_Generic_object@?$_Error_objects@H@std@@2V_Generic_error_category@2@A, OFFSET ??_7error_category@std@@6B@ ; std::_Error_objects<int>::_Generic_object
  0000a	c3		 ret	 0
??__F?_Generic_object@?$_Error_objects@H@std@@2V_Generic_error_category@2@A@@YAXXZ ENDP ; `dynamic atexit destructor for 'std::_Error_objects<int>::_Generic_object''
text$yd	ENDS
; Function compile flags: /Ogtp
; File c:\program files (x86)\microsoft visual studio 11.0\vc\include\type_traits
;	COMDAT ??$forward@AAPAD@std@@YAAAPADAAPAD@Z
_TEXT	SEGMENT
??$forward@AAPAD@std@@YAAAPADAAPAD@Z PROC		; std::forward<char * &>, COMDAT
; __Arg$ = ecx

; 1776 : 	return (static_cast<_Ty&&>(_Arg));

  00000	8b c1		 mov	 eax, ecx

; 1777 : 	}

  00002	c3		 ret	 0
??$forward@AAPAD@std@@YAAAPADAAPAD@Z ENDP		; std::forward<char * &>
_TEXT	ENDS
; Function compile flags: /Ogtp
; File c:\program files (x86)\microsoft visual studio 11.0\vc\include\xmemory0
;	COMDAT ??$construct@PADAAPAD@?$allocator_traits@V?$allocator@D@std@@@std@@SAXAAV?$allocator@D@1@PAPADAAPAD@Z
_TEXT	SEGMENT
__V0$ = 8						; size = 4
??$construct@PADAAPAD@?$allocator_traits@V?$allocator@D@std@@@std@@SAXAAV?$allocator@D@1@PAPADAAPAD@Z PROC ; std::allocator_traits<std::allocator<char> >::construct<char *,char * &>, COMDAT
; __Al$dead$ = ecx
; __Ptr$ = edx

; 751  : _VARIADIC_EXPAND_0X(_ALLOC_TRAITS_SPECIAL_CONSTRUCT, , , , )

  00000	55		 push	 ebp
  00001	8b ec		 mov	 ebp, esp

; 617  : _VARIADIC_EXPAND_0X(_ALLOC_MEMBER_CONSTRUCT, , , , )

  00003	85 d2		 test	 edx, edx
  00005	74 07		 je	 SHORT $LN7@construct
  00007	8b 45 08	 mov	 eax, DWORD PTR __V0$[ebp]
  0000a	8b 00		 mov	 eax, DWORD PTR [eax]
  0000c	89 02		 mov	 DWORD PTR [edx], eax
$LN7@construct:

; 751  : _VARIADIC_EXPAND_0X(_ALLOC_TRAITS_SPECIAL_CONSTRUCT, , , , )

  0000e	5d		 pop	 ebp
  0000f	c3		 ret	 0
??$construct@PADAAPAD@?$allocator_traits@V?$allocator@D@std@@@std@@SAXAAV?$allocator@D@1@PAPADAAPAD@Z ENDP ; std::allocator_traits<std::allocator<char> >::construct<char *,char * &>
_TEXT	ENDS
; Function compile flags: /Ogtp
; File c:\program files (x86)\microsoft visual studio 11.0\vc\include\xmemory0
;	COMDAT ??$destroy@PAD@?$allocator_traits@V?$allocator@D@std@@@std@@SAXAAV?$allocator@D@1@PAPAD@Z
_TEXT	SEGMENT
??$destroy@PAD@?$allocator_traits@V?$allocator@D@std@@@std@@SAXAAV?$allocator@D@1@PAPAD@Z PROC ; std::allocator_traits<std::allocator<char> >::destroy<char *>, COMDAT
; __Al$dead$ = ecx
; __Ptr$dead$ = edx

; 756  : 		{	// destroy object at _Ptr
; 757  : 		_Al.destroy(_Ptr);
; 758  : 		}

  00000	c3		 ret	 0
??$destroy@PAD@?$allocator_traits@V?$allocator@D@std@@@std@@SAXAAV?$allocator@D@1@PAPAD@Z ENDP ; std::allocator_traits<std::allocator<char> >::destroy<char *>
_TEXT	ENDS
; Function compile flags: /Ogtp
; File c:\program files (x86)\microsoft visual studio 11.0\vc\include\xmemory0
;	COMDAT ??$construct@PADAAPAD@?$allocator@D@std@@QAEXPAPADAAPAD@Z
_TEXT	SEGMENT
__Ptr$ = 8						; size = 4
__V0$ = 12						; size = 4
??$construct@PADAAPAD@?$allocator@D@std@@QAEXPAPADAAPAD@Z PROC ; std::allocator<char>::construct<char *,char * &>, COMDAT
; _this$dead$ = ecx

; 617  : _VARIADIC_EXPAND_0X(_ALLOC_MEMBER_CONSTRUCT, , , , )

  00000	55		 push	 ebp
  00001	8b ec		 mov	 ebp, esp
  00003	8b 4d 08	 mov	 ecx, DWORD PTR __Ptr$[ebp]
  00006	85 c9		 test	 ecx, ecx
  00008	74 07		 je	 SHORT $LN3@construct
  0000a	8b 45 0c	 mov	 eax, DWORD PTR __V0$[ebp]
  0000d	8b 00		 mov	 eax, DWORD PTR [eax]
  0000f	89 01		 mov	 DWORD PTR [ecx], eax
$LN3@construct:
  00011	5d		 pop	 ebp
  00012	c2 08 00	 ret	 8
??$construct@PADAAPAD@?$allocator@D@std@@QAEXPAPADAAPAD@Z ENDP ; std::allocator<char>::construct<char *,char * &>
_TEXT	ENDS
; Function compile flags: /Ogtp
; File c:\program files (x86)\microsoft visual studio 11.0\vc\include\xmemory0
;	COMDAT ??$destroy@PAD@?$allocator@D@std@@QAEXPAPAD@Z
_TEXT	SEGMENT
__Ptr$dead$ = 8						; size = 4
??$destroy@PAD@?$allocator@D@std@@QAEXPAPAD@Z PROC	; std::allocator<char>::destroy<char *>, COMDAT
; _this$dead$ = ecx

; 622  : 		{	// destroy object at _Ptr
; 623  : 		_Ptr->~_Uty();
; 624  : 		}

  00000	c2 04 00	 ret	 4
??$destroy@PAD@?$allocator@D@std@@QAEXPAPAD@Z ENDP	; std::allocator<char>::destroy<char *>
_TEXT	ENDS
END
